 ProjSoftware

 Timestamp is 45108837 (Tue Sep 19 21:15:51 2006)

 Preferred load address is 00400000

 Start         Length     Name                   Class
 0001:00000000 00042b29H .textbss                DATA
 0002:00000000 0008889eH .text                   CODE
 0002:000888a0 00002993H .text$x                 CODE
 0002:0008b240 00001084H .text$yc                CODE
 0002:0008c2d0 000010acH .text$yd                CODE
 0003:00000000 00000104H .CRT$XCA                DATA
 0003:00000104 00000104H .CRT$XCC                DATA
 0003:00000208 00000104H .CRT$XCU                DATA
 0003:0000030c 00000104H .CRT$XCZ                DATA
 0003:00000410 00000104H .CRT$XIA                DATA
 0003:00000514 00000118H .CRT$XIC                DATA
 0003:0000062c 00000104H .CRT$XIY                DATA
 0003:00000730 00000104H .CRT$XIZ                DATA
 0003:00000834 00000104H .CRT$XPA                DATA
 0003:00000938 00000109H .CRT$XPX                DATA
 0003:00000a44 00000104H .CRT$XPXA               DATA
 0003:00000b48 00000104H .CRT$XPZ                DATA
 0003:00000c4c 00000104H .CRT$XTA                DATA
 0003:00000d50 00000104H .CRT$XTB                DATA
 0003:00000e54 00000104H .CRT$XTZ                DATA
 0003:00000f60 00012f70H .rdata                  DATA
 0003:00013ed0 0000016aH .rdata$debug            DATA
 0003:0001403c 000017eeH .rdata$r                DATA
 0003:0001582c 00000104H .rtc$IAA                DATA
 0003:00015930 00000148H .rtc$IMZ                DATA
 0003:00015a78 00000104H .rtc$IZZ                DATA
 0003:00015b7c 00000104H .rtc$TAA                DATA
 0003:00015c80 00000148H .rtc$TMZ                DATA
 0003:00015dc8 00000104H .rtc$TZZ                DATA
 0003:00015ed0 00002a12H .xdata$x                DATA
 0003:000188e2 00000000H .edata                  DATA
 0004:00000000 000021e6H .data                   DATA
 0004:00002200 00002410H .bss                    DATA
 0005:00000000 0000003cH .idata$2                DATA
 0005:0000003c 00000014H .idata$3                DATA
 0005:00000050 000003f8H .idata$4                DATA
 0005:00000448 000003f8H .idata$5                DATA
 0005:00000840 00001453H .idata$6                DATA
 0006:00000000 00000169H .rsrc$01                DATA
 0006:00000170 00000a99H .rsrc$02                DATA

  Address         Publics by Value              Rva+Base       Lib:Object

 0000:00000000       ___safe_se_handler_table   00000000     <absolute>
 0000:00000000       __except_list              00000000     <absolute>
 0000:00000000       ___safe_se_handler_count   00000000     <absolute>
 0000:00000000       ___ImageBase               00400000     <linker-defined>
 0001:00000000       __enc$textbss$begin        00401000     <linker-defined>
 0001:00042b29       __enc$textbss$end          00443b29     <linker-defined>
 0002:00004680       ??0ArmorKing@@QAE@HHHH@Z   00448680 f   armorking.obj
 0002:00004950       ??0Sprite@@QAE@H@Z         00448950 f i armorking.obj
 0002:00004a10       ?loadFrame@Sprite@@QAEXPAD@Z 00448a10 f i armorking.obj
 0002:00004ae0       ??0Heroi@@QAE@HHHH@Z       00448ae0 f i armorking.obj
 0002:00004b90       ?setSprite@Heroi@@QAEXPAVSprite@@@Z 00448b90 f i armorking.obj
 0002:00004be0       ?acao@ArmorKing@@UAEXH@Z   00448be0 f   armorking.obj
 0002:00004e50       ?setFrame@Sprite@@QAEXH@Z  00448e50 f i armorking.obj
 0002:00004ea0       ?getVy@Heroi@@QAEHXZ       00448ea0 f i armorking.obj
 0002:00004ee0       ?setVy@Heroi@@QAEXH@Z      00448ee0 f i armorking.obj
 0002:00004f30       ?incPx@Heroi@@QAEXH@Z      00448f30 f i armorking.obj
 0002:00004f80       ?getDirecao@Heroi@@QAEHXZ  00448f80 f i armorking.obj
 0002:00004fc0       ?setDirecao@Heroi@@QAEXH@Z 00448fc0 f i armorking.obj
 0002:00005010       ?getEstado@Heroi@@QAEHXZ   00449010 f i armorking.obj
 0002:00005050       ?setEstado@Heroi@@QAEXH@Z  00449050 f i armorking.obj
 0002:000050a0       ?getSprite@Heroi@@QAEPAVSprite@@XZ 004490a0 f i armorking.obj
 0002:000050e0       ?update@ArmorKing@@UAEXPAVCenario@@@Z 004490e0 f   armorking.obj
 0002:00005340       ?incPy@Heroi@@QAEXH@Z      00449340 f i armorking.obj
 0002:00005390       ?incVy@Heroi@@QAEXH@Z      00449390 f i armorking.obj
 0002:000053e0       ?getSangue@Heroi@@QAEHXZ   004493e0 f i armorking.obj
 0002:00005420       ??0Cenario@@QAE@PAD00@Z    00449420 f   cenario.obj
 0002:00005670       ??1Cenario@@QAE@XZ         00449670 f   cenario.obj
 0002:000057b0       ??_GSprite@@QAEPAXI@Z      004497b0 f i cenario.obj
 0002:00005820       ?getFundo@Cenario@@QAEPAVSprite@@XZ 00449820 f   cenario.obj
 0002:00005860       ?getCenario1@Cenario@@QAEPAVSprite@@XZ 00449860 f   cenario.obj
 0002:000058a0       ?getCenario2@Cenario@@QAEPAVSprite@@XZ 004498a0 f   cenario.obj
 0002:000058e0       ?setPx@Cenario@@QAEXH@Z    004498e0 f   cenario.obj
 0002:00005930       ?draw_fundoCenario@Cenario@@QAEXPAVSprite@@@Z 00449930 f   cenario.obj
 0002:00005a00       ?getLargura@Sprite@@QAEHXZ 00449a00 f i cenario.obj
 0002:00005a50       ?getAltura@Sprite@@QAEHXZ  00449a50 f i cenario.obj
 0002:00005aa0       ?draw@Sprite@@QAEXPAV1@HHHHHH@Z 00449aa0 f i cenario.obj
 0002:00005b50       ?draw_frenteCenario@Cenario@@QAEXPAVSprite@@@Z 00449b50 f   cenario.obj
 0002:00005bd0       ??0Controlador@@QAE@XZ     00449bd0 f   controlador.obj
 0002:00006110       ??1Controlador@@QAE@XZ     0044a110 f   controlador.obj
 0002:000062b0       ?carregarFase@Controlador@@QAEXPADH@Z 0044a2b0 f   controlador.obj
 0002:00007330       ?reset@Heroi@@QAEXXZ       0044b330 f i controlador.obj
 0002:000073c0       ?getNumVidas@Heroi@@QAEHXZ 0044b3c0 f i controlador.obj
 0002:00007400       ?setNumVidas@Heroi@@QAEXH@Z 0044b400 f i controlador.obj
 0002:00007450       ??0Charade@@QAE@HHHHHH@Z   0044b450 f i controlador.obj
 0002:00007620       ?setDirecao@Inimigo@@QAEXH@Z 0044b620 f i controlador.obj
 0002:00007670       ?setTipoInimigo@Inimigo@@QAEXH@Z 0044b670 f i controlador.obj
 0002:000076c0       ?setSprite@Inimigo@@QAEXPAVSprite@@@Z 0044b6c0 f i controlador.obj
 0002:00007710       ?update@Charade@@UAEXPAVCenario@@PAVHeroi@@@Z 0044b710 f i controlador.obj
 0002:000077e0       ?incPx@Inimigo@@QAEXH@Z    0044b7e0 f i controlador.obj
 0002:00007830       ?getDirecao@Inimigo@@QAEHXZ 0044b830 f i controlador.obj
 0002:00007870       ?getSprite@Inimigo@@QAEPAVSprite@@XZ 0044b870 f i controlador.obj
 0002:000078b0       ??0Raptor@@QAE@HHHHH@Z     0044b8b0 f i controlador.obj
 0002:00007ad0       ?update@Raptor@@UAEXPAVCenario@@PAVHeroi@@@Z 0044bad0 f i controlador.obj
 0002:00007c60       ??0Hiryuu@@QAE@HHHHH@Z     0044bc60 f i controlador.obj
 0002:00007ed0       ?update@Hiryuu@@UAEXPAVCenario@@PAVHeroi@@@Z 0044bed0 f i controlador.obj
 0002:00008120       ?getPx@Heroi@@QAEHXZ       0044c120 f i controlador.obj
 0002:00008160       ?getPx@Inimigo@@QAEHXZ     0044c160 f i controlador.obj
 0002:000081a0       ??0Ginzu@@QAE@HHHH@Z       0044c1a0 f i controlador.obj
 0002:000083d0       ?update@Ginzu@@UAEXPAVCenario@@PAVHeroi@@@Z 0044c3d0 f i controlador.obj
 0002:00008750       ?getLargura@Heroi@@QAEHXZ  0044c750 f i controlador.obj
 0002:000087b0       ?getPy@Heroi@@QAEHXZ       0044c7b0 f i controlador.obj
 0002:000087f0       ?setPx@Inimigo@@QAEXH@Z    0044c7f0 f i controlador.obj
 0002:00008840       ?getPy@Inimigo@@QAEHXZ     0044c840 f i controlador.obj
 0002:00008880       ?setPy@Inimigo@@QAEXH@Z    0044c880 f i controlador.obj
 0002:000088d0       ??0Morte@@QAE@HHHH@Z       0044c8d0 f i controlador.obj
 0002:00008a50       ?update@Morte@@UAEXPAVCenario@@PAVHeroi@@@Z 0044ca50 f i controlador.obj
 0002:00008bf0       ??0Lobo@@QAE@HHHHHH@Z      0044cbf0 f i controlador.obj
 0002:00008dc0       ?update@Lobo@@UAEXPAVCenario@@PAVHeroi@@@Z 0044cdc0 f i controlador.obj
 0002:00008e90       ??0Ogre@@QAE@HHHH@Z        0044ce90 f i controlador.obj
 0002:000090a0       ?update@Ogre@@UAEXPAVCenario@@PAVHeroi@@@Z 0044d0a0 f i controlador.obj
 0002:00009310       ??0Sam@@QAE@HHHHH@Z        0044d310 f i controlador.obj
 0002:000095f0       ?update@Sam@@UAEXPAVCenario@@PAVHeroi@@@Z 0044d5f0 f i controlador.obj
 0002:00009840       ??0Heihachi@@QAE@HHHH@Z    0044d840 f i controlador.obj
 0002:00009ac0       ?update@Heihachi@@UAEXPAVCenario@@PAVHeroi@@@Z 0044dac0 f i controlador.obj
 0002:00009d30       ??0Valkirie@@QAE@HHHHHH@Z  0044dd30 f i controlador.obj
 0002:00009fe0       ?update@Valkirie@@UAEXPAVCenario@@PAVHeroi@@@Z 0044dfe0 f i controlador.obj
 0002:0000a1d0       ??0Imp@@QAE@HHHH@Z         0044e1d0 f i controlador.obj
 0002:0000a3a0       ?update@Imp@@UAEXPAVCenario@@PAVHeroi@@@Z 0044e3a0 f i controlador.obj
 0002:0000a510       ??0Boss@@QAE@HHHH@Z        0044e510 f i controlador.obj
 0002:0000a710       ?update@Boss@@UAEXPAVCenario@@PAVHeroi@@@Z 0044e710 f i controlador.obj
 0002:0000a8d0       ?reagirTecla@Controlador@@QAEXHH@Z 0044e8d0 f   controlador.obj
 0002:0000a980       ?colidirInimigo@@YAHPAVHeroi@@PAVInimigo@@@Z 0044e980 f   controlador.obj
 0002:0000b220       ?getPixel@Sprite@@QAEHHH@Z 0044f220 f i controlador.obj
 0002:0000b2a0       ?getAltura@Heroi@@QAEHXZ   0044f2a0 f i controlador.obj
 0002:0000b300       ?getMasks@Heroi@@QAEPAVSprite@@XZ 0044f300 f i controlador.obj
 0002:0000b340       ?getAltura@Inimigo@@QAEHXZ 0044f340 f i controlador.obj
 0002:0000b3a0       ?getLargura@Inimigo@@QAEHXZ 0044f3a0 f i controlador.obj
 0002:0000b400       ?update@Controlador@@QAEHXZ 0044f400 f   controlador.obj
 0002:0000bc20       ?getPx@Cenario@@QAEHXZ     0044fc20 f i controlador.obj
 0002:0000bc60       ?setWaiting@Heroi@@QAEXH@Z 0044fc60 f i controlador.obj
 0002:0000bcb0       ?getWaiting@Heroi@@QAEHXZ  0044fcb0 f i controlador.obj
 0002:0000bcf0       ?setSangue@Heroi@@QAEXH@Z  0044fcf0 f i controlador.obj
 0002:0000bd40       ?incSangue@Heroi@@QAEXH@Z  0044fd40 f i controlador.obj
 0002:0000bd90       ?getTipoHeroi@Heroi@@QAEHXZ 0044fd90 f i controlador.obj
 0002:0000bdd0       ?setWaiting@Inimigo@@QAEXH@Z 0044fdd0 f i controlador.obj
 0002:0000be20       ?getWaiting@Inimigo@@QAEHXZ 0044fe20 f i controlador.obj
 0002:0000be60       ?getSangue@Inimigo@@QAEHXZ 0044fe60 f i controlador.obj
 0002:0000bea0       ?setSangue@Inimigo@@QAEXH@Z 0044fea0 f i controlador.obj
 0002:0000bef0       ?getPx@Item@@QAEHXZ        0044fef0 f i controlador.obj
 0002:0000bf30       ?getPy@Item@@QAEHXZ        0044ff30 f i controlador.obj
 0002:0000bf70       ?getLargura@Item@@QAEHXZ   0044ff70 f i controlador.obj
 0002:0000bfd0       ?getAltura@Item@@QAEHXZ    0044ffd0 f i controlador.obj
 0002:0000c030       ?gettipoItem@Item@@QAEHXZ  00450030 f i controlador.obj
 0002:0000c070       ?draw@Controlador@@QAEXPAVSprite@@@Z 00450070 f   controlador.obj
 0002:0000c460       ?draw@Sprite@@QAEXPAV1@HH@Z 00450460 f i controlador.obj
 0002:0000c4f0       ?fillRect@Sprite@@QAEXHHHHH@Z 004504f0 f i controlador.obj
 0002:0000c590       ?makeColor@Sprite@@SAHHHH@Z 00450590 f i controlador.obj
 0002:0000c600       ?getStamina@Heroi@@QAEHXZ  00450600 f i controlador.obj
 0002:0000c640       ?draw@Inimigo@@QAEXPAVSprite@@HH@Z 00450640 f i controlador.obj
 0002:0000c710       ?draw_h_flip@Sprite@@QAEXPAV1@HH@Z 00450710 f i controlador.obj
 0002:0000c7a0       ?getSprite@Item@@QAEPAVSprite@@XZ 004507a0 f i controlador.obj
 0002:0000c7e0       ?finalizarFase@Controlador@@QAEXXZ 004507e0 f   controlador.obj
 0002:0000c990       ??_GCenario@@QAEPAXI@Z     00450990 f i controlador.obj
 0002:0000ca00       ??0Felicia@@QAE@HHHH@Z     00450a00 f   felicia.obj
 0002:0000ced0       ?setTipoHeroi@Heroi@@QAEXH@Z 00450ed0 f i felicia.obj
 0002:0000cf20       ?setMasks@Heroi@@QAEXPAVSprite@@@Z 00450f20 f i felicia.obj
 0002:0000cf70       ?acao@Felicia@@UAEXH@Z     00450f70 f   felicia.obj
 0002:0000d260       ?incStamina@Heroi@@QAEXH@Z 00451260 f i felicia.obj
 0002:0000d2b0       ?update@Felicia@@UAEXPAVCenario@@@Z 004512b0 f   felicia.obj
 0002:0000d640       ?getStepAtual@Sprite@@QAEHXZ 00451640 f i felicia.obj
 0002:0000d680       ?draw@Heroi@@QAEXPAVSprite@@HH@Z 00451680 f   heroi.obj
 0002:0000d750       ?testeColisaoChao@Heroi@@QAE_NPAVCenario@@@Z 00451750 f   heroi.obj
 0002:0000d870       ?testeColisaoParede@Heroi@@QAE_NPAVCenario@@@Z 00451870 f   heroi.obj
 0002:0000d9a0       ??1_Marshaller_InfoHeroi@@UAE@XZ 004519a0 f   idl.obj
 0002:0000da00       ??_G_Marshaller_InfoHeroi@@UAEPAXI@Z 00451a00 f i idl.obj
 0002:0000da00       ??_E_Marshaller_InfoHeroi@@UAEPAXI@Z 00451a00 f i idl.obj
 0002:0000da70       ?create@_Marshaller_InfoHeroi@@UBEPAXXZ 00451a70 f   idl.obj
 0002:0000dad0       ?assign@_Marshaller_InfoHeroi@@UBEXPAXQAX@Z 00451ad0 f   idl.obj
 0002:0000db30       ?free@_Marshaller_InfoHeroi@@UBEXPAX@Z 00451b30 f   idl.obj
 0002:0000dba0       ?demarshal@_Marshaller_InfoHeroi@@UBEEAAVDataDecoder@CORBA@@PAX@Z 00451ba0 f   idl.obj
 0002:0000dee0       ?marshal@_Marshaller_InfoHeroi@@UBEXAAVDataEncoder@CORBA@@PAX@Z 00451ee0 f   idl.obj
 0002:0000e180       ??1_Marshaller_InfoInimigo@@UAE@XZ 00452180 f   idl.obj
 0002:0000e1e0       ??_E_Marshaller_InfoInimigo@@UAEPAXI@Z 004521e0 f i idl.obj
 0002:0000e1e0       ??_G_Marshaller_InfoInimigo@@UAEPAXI@Z 004521e0 f i idl.obj
 0002:0000e250       ?create@_Marshaller_InfoInimigo@@UBEPAXXZ 00452250 f   idl.obj
 0002:0000e2b0       ?assign@_Marshaller_InfoInimigo@@UBEXPAXQAX@Z 004522b0 f   idl.obj
 0002:0000e300       ?free@_Marshaller_InfoInimigo@@UBEXPAX@Z 00452300 f   idl.obj
 0002:0000e370       ?demarshal@_Marshaller_InfoInimigo@@UBEEAAVDataDecoder@CORBA@@PAX@Z 00452370 f   idl.obj
 0002:0000e5b0       ?marshal@_Marshaller_InfoInimigo@@UBEXAAVDataEncoder@CORBA@@PAX@Z 004525b0 f   idl.obj
 0002:0000e780       ??1_Marshaller_InfoItem@@UAE@XZ 00452780 f   idl.obj
 0002:0000e7e0       ??_E_Marshaller_InfoItem@@UAEPAXI@Z 004527e0 f i idl.obj
 0002:0000e7e0       ??_G_Marshaller_InfoItem@@UAEPAXI@Z 004527e0 f i idl.obj
 0002:0000e850       ?create@_Marshaller_InfoItem@@UBEPAXXZ 00452850 f   idl.obj
 0002:0000e8b0       ?assign@_Marshaller_InfoItem@@UBEXPAXQAX@Z 004528b0 f   idl.obj
 0002:0000e900       ?free@_Marshaller_InfoItem@@UBEXPAX@Z 00452900 f   idl.obj
 0002:0000e970       ?demarshal@_Marshaller_InfoItem@@UBEEAAVDataDecoder@CORBA@@PAX@Z 00452970 f   idl.obj
 0002:0000eae0       ?marshal@_Marshaller_InfoItem@@UBEXAAVDataEncoder@CORBA@@PAX@Z 00452ae0 f   idl.obj
 0002:0000ec10       ??1_Marshaller_InfoFase@@UAE@XZ 00452c10 f   idl.obj
 0002:0000ec70       ??_E_Marshaller_InfoFase@@UAEPAXI@Z 00452c70 f i idl.obj
 0002:0000ec70       ??_G_Marshaller_InfoFase@@UAEPAXI@Z 00452c70 f i idl.obj
 0002:0000ece0       ?create@_Marshaller_InfoFase@@UBEPAXXZ 00452ce0 f   idl.obj
 0002:0000edd0       ??0InfoFase@@QAE@XZ        00452dd0 f i idl.obj
 0002:0000ee80       ?assign@_Marshaller_InfoFase@@UBEXPAXQAX@Z 00452e80 f   idl.obj
 0002:0000eee0       ??4InfoFase@@QAEAAU0@ABU0@@Z 00452ee0 f i idl.obj
 0002:0000eff0       ?free@_Marshaller_InfoFase@@UBEXPAX@Z 00452ff0 f   idl.obj
 0002:0000f090       ??_GInfoFase@@QAEPAXI@Z    00453090 f i idl.obj
 0002:0000f100       ??1InfoFase@@QAE@XZ        00453100 f i idl.obj
 0002:0000f1b0       ?demarshal@_Marshaller_InfoFase@@UBEEAAVDataDecoder@CORBA@@PAX@Z 004531b0 f   idl.obj
 0002:0000f4a0       ?marshal@_Marshaller_InfoFase@@UBEXAAVDataEncoder@CORBA@@PAX@Z 004534a0 f   idl.obj
 0002:0000f700       ??1_Marshaller_InfoInicial@@UAE@XZ 00453700 f   idl.obj
 0002:0000f760       ??_E_Marshaller_InfoInicial@@UAEPAXI@Z 00453760 f i idl.obj
 0002:0000f760       ??_G_Marshaller_InfoInicial@@UAEPAXI@Z 00453760 f i idl.obj
 0002:0000f7d0       ?create@_Marshaller_InfoInicial@@UBEPAXXZ 004537d0 f   idl.obj
 0002:0000f8c0       ??0InfoInicial@@QAE@XZ     004538c0 f i idl.obj
 0002:0000f970       ?assign@_Marshaller_InfoInicial@@UBEXPAXQAX@Z 00453970 f   idl.obj
 0002:0000f9d0       ??4InfoInicial@@QAEAAU0@ABU0@@Z 004539d0 f i idl.obj
 0002:0000fac0       ?free@_Marshaller_InfoInicial@@UBEXPAX@Z 00453ac0 f   idl.obj
 0002:0000fb60       ??_GInfoInicial@@QAEPAXI@Z 00453b60 f i idl.obj
 0002:0000fbd0       ??1InfoInicial@@QAE@XZ     00453bd0 f i idl.obj
 0002:0000fc80       ?demarshal@_Marshaller_InfoInicial@@UBEEAAVDataDecoder@CORBA@@PAX@Z 00453c80 f   idl.obj
 0002:0000fef0       ?marshal@_Marshaller_InfoInicial@@UBEXAAVDataEncoder@CORBA@@PAX@Z 00453ef0 f   idl.obj
 0002:000100e0       ??1InterfaceServidor@@UAE@XZ 004540e0 f   idl.obj
 0002:00010160       ?_narrow_helper@InterfaceServidor@@UAEPAXPBD@Z 00454160 f   idl.obj
 0002:000101d0       ?_narrow@InterfaceServidor@@SAPAV1@PAVObject@CORBA@@@Z 004541d0 f   idl.obj
 0002:00010410       ?_repoid@Object@CORBA@@QAEPBDXZ 00454410 f i idl.obj
 0002:00010490       ?_duplicate@InterfaceServidor@@SAPAV1@PAV1@@Z 00454490 f i idl.obj
 0002:00010520       ?_duplicate@Object@CORBA@@SAPAV12@PAV12@@Z 00454520 f i idl.obj
 0002:00010580       ?_nil@InterfaceServidor@@SAPAV1@XZ 00454580 f i idl.obj
 0002:000105b0       ??0InterfaceServidor_stub@@QAE@XZ 004545b0 f i idl.obj
 0002:00010710       ??0InterfaceServidor@@IAE@XZ 00454710 f i idl.obj
 0002:000107f0       ?_narrow@InterfaceServidor@@SAPAV1@PAVAbstractBase@CORBA@@@Z 004547f0 f   idl.obj
 0002:00010860       ??1_Marshaller_InterfaceServidor@@UAE@XZ 00454860 f   idl.obj
 0002:000108c0       ??_G_Marshaller_InterfaceServidor@@UAEPAXI@Z 004548c0 f i idl.obj
 0002:000108c0       ??_E_Marshaller_InterfaceServidor@@UAEPAXI@Z 004548c0 f i idl.obj
 0002:00010930       ?create@_Marshaller_InterfaceServidor@@UBEPAXXZ 00454930 f   idl.obj
 0002:000109d0       ?assign@_Marshaller_InterfaceServidor@@UBEXPAXQAX@Z 004549d0 f   idl.obj
 0002:00010a30       ?free@_Marshaller_InterfaceServidor@@UBEXPAX@Z 00454a30 f   idl.obj
 0002:00010bb0       ?release@_Marshaller_InterfaceServidor@@UBEXPAX@Z 00454bb0 f   idl.obj
 0002:00010c50       ?demarshal@_Marshaller_InterfaceServidor@@UBEEAAVDataDecoder@CORBA@@PAX@Z 00454c50 f   idl.obj
 0002:00010dd0       ?marshal@_Marshaller_InterfaceServidor@@UBEXAAVDataEncoder@CORBA@@PAX@Z 00454dd0 f   idl.obj
 0002:00010ed0       ??1InterfaceServidor_stub@@UAE@XZ 00454ed0 f   idl.obj
 0002:00010f80       ?_narrow_helper@POA_InterfaceServidor@@UAEPAXPBD@Z 00454f80 f   idl.obj
 0002:00010ff0       ?_narrow@POA_InterfaceServidor@@SAPAV1@PAVServantBase@PortableServer@@@Z 00454ff0 f   idl.obj
 0002:00011080       ??0InterfaceServidor_stub_clp@@IAE@XZ 00455080 f   idl.obj
 0002:00011270       ??0InterfaceServidor_stub_clp@@QAE@PAVPOA@PortableServer@@PAVObject@CORBA@@@Z 00455270 f   idl.obj
 0002:00011460       ??1InterfaceServidor_stub_clp@@UAE@XZ 00455460 f   idl.obj
 0002:00011510       ?getInfoInicial@InterfaceServidor_stub@@UAEPAUInfoInicial@@XZ 00455510 f   idl.obj
 0002:000116d0       ??0StaticAny@CORBA@@QAE@PAVStaticTypeInfo@1@PBXE@Z 004556d0 f i idl.obj
 0002:00011730       ?set_result@StaticRequest@CORBA@@QAEXPAVStaticAny@2@@Z 00455730 f i idl.obj
 0002:00011970       ?value@StaticAny@CORBA@@QAEPAXXZ 00455970 f i idl.obj
 0002:00011a10       ?getInfoInicial@InterfaceServidor_stub_clp@@UAEPAUInfoInicial@@XZ 00455a10 f   idl.obj
 0002:00011c10       ?getInfoFase@InterfaceServidor_stub@@UAEPAUInfoFase@@XZ 00455c10 f   idl.obj
 0002:00011dd0       ?getInfoFase@InterfaceServidor_stub_clp@@UAEPAUInfoFase@@XZ 00455dd0 f   idl.obj
 0002:00011fd0       ?reagirTecla@InterfaceServidor_stub@@UAEXE@Z 00455fd0 f   idl.obj
 0002:00012180       ?reagirTecla@InterfaceServidor_stub_clp@@UAEXE@Z 00456180 f   idl.obj
 0002:00012370       ??1_Marshaller__seq_InfoInimigo@@UAE@XZ 00456370 f   idl.obj
 0002:000123d0       ??_G_Marshaller__seq_InfoInimigo@@UAEPAXI@Z 004563d0 f i idl.obj
 0002:000123d0       ??_E_Marshaller__seq_InfoInimigo@@UAEPAXI@Z 004563d0 f i idl.obj
 0002:00012440       ?create@_Marshaller__seq_InfoInimigo@@UBEPAXXZ 00456440 f   idl.obj
 0002:00012530       ?assign@_Marshaller__seq_InfoInimigo@@UBEXPAXQAX@Z 00456530 f   idl.obj
 0002:00012590       ?free@_Marshaller__seq_InfoInimigo@@UBEXPAX@Z 00456590 f   idl.obj
 0002:00012630       ??_G?$SequenceTmpl@UInfoInimigo@@$0A@@@QAEPAXI@Z 00456630 f i idl.obj
 0002:000126a0       ?demarshal@_Marshaller__seq_InfoInimigo@@UBEEAAVDataDecoder@CORBA@@PAX@Z 004566a0 f   idl.obj
 0002:000127f0       ?marshal@_Marshaller__seq_InfoInimigo@@UBEXAAVDataEncoder@CORBA@@PAX@Z 004567f0 f   idl.obj
 0002:000128f0       ??1_Marshaller__seq_InfoItem@@UAE@XZ 004568f0 f   idl.obj
 0002:00012950       ??_E_Marshaller__seq_InfoItem@@UAEPAXI@Z 00456950 f i idl.obj
 0002:00012950       ??_G_Marshaller__seq_InfoItem@@UAEPAXI@Z 00456950 f i idl.obj
 0002:000129c0       ?create@_Marshaller__seq_InfoItem@@UBEPAXXZ 004569c0 f   idl.obj
 0002:00012ab0       ?assign@_Marshaller__seq_InfoItem@@UBEXPAXQAX@Z 00456ab0 f   idl.obj
 0002:00012b10       ?free@_Marshaller__seq_InfoItem@@UBEXPAX@Z 00456b10 f   idl.obj
 0002:00012bb0       ??_G?$SequenceTmpl@UInfoItem@@$0A@@@QAEPAXI@Z 00456bb0 f i idl.obj
 0002:00012c20       ?demarshal@_Marshaller__seq_InfoItem@@UBEEAAVDataDecoder@CORBA@@PAX@Z 00456c20 f   idl.obj
 0002:00012d70       ?marshal@_Marshaller__seq_InfoItem@@UBEXAAVDataEncoder@CORBA@@PAX@Z 00456d70 f   idl.obj
 0002:00012e70       ??1POA_InterfaceServidor@@UAE@XZ 00456e70 f   idl.obj
 0002:00012f30       ?_this@POA_InterfaceServidor@@QAEPAVInterfaceServidor@@XZ 00456f30 f   idl.obj
 0002:00013050       ?_is_a@POA_InterfaceServidor@@UAEEPBD@Z 00457050 f   idl.obj
 0002:000130c0       ?_get_interface@POA_InterfaceServidor@@UAEPAVInterfaceDef@CORBA@@XZ 004570c0 f   idl.obj
 0002:00013210       ?_primary_interface@POA_InterfaceServidor@@UAEPADABV?$SequenceTmpl@E$02@@PAVPOA@PortableServer@@@Z 00457210 f   idl.obj
 0002:00013270       ?_make_stub@POA_InterfaceServidor@@UAEPAVObject@CORBA@@PAVPOA@PortableServer@@PAV23@@Z 00457270 f   idl.obj
 0002:000133b0       ?dispatch@POA_InterfaceServidor@@QAE_NPAVStaticServerRequest@CORBA@@@Z 004573b0 f   idl.obj
 0002:00013a20       ??CSystemException@CORBA@@QAEPAV01@XZ 00457a20 f i idl.obj
 0002:00013a60       ?op_name@StaticServerRequest@CORBA@@QAEPBDXZ 00457a60 f i idl.obj
 0002:00013ad0       ?set_result@StaticServerRequest@CORBA@@QAEXPAVStaticAny@2@@Z 00457ad0 f i idl.obj
 0002:00013b20       ?set_exception@StaticServerRequest@CORBA@@QAEXPAVException@2@@Z 00457b20 f i idl.obj
 0002:00013b80       ?invoke@POA_InterfaceServidor@@UAEXPAVStaticServerRequest@CORBA@@@Z 00457b80 f   idl.obj
 0002:00013cb0       ?allocate@?$_DebugHeapAllocator@D@std@@QAAPADIPBX@Z 00457cb0 f i idl.obj
 0002:00013d70       ??0bad_alloc@std@@QAE@PBD@Z 00457d70 f i idl.obj
 0002:00013de0       ??1bad_alloc@std@@UAE@XZ   00457de0 f i idl.obj
 0002:00013e40       ??_Ebad_alloc@std@@UAEPAXI@Z 00457e40 f i idl.obj
 0002:00013e40       ??_Gbad_alloc@std@@UAEPAXI@Z 00457e40 f i idl.obj
 0002:00013eb0       ?allocate@?$_DebugHeapAllocator@D@std@@QAEPADI@Z 00457eb0 f i idl.obj
 0002:00013f70       ?deallocate@?$_DebugHeapAllocator@D@std@@QAEXPADI@Z 00457f70 f i idl.obj
 0002:00013fd0       ??0?$ObjVar@VObject@CORBA@@@@QAE@PAVObject@CORBA@@@Z 00457fd0 f i idl.obj
 0002:00014020       ??1?$ObjVar@VObject@CORBA@@@@QAE@XZ 00458020 f i idl.obj
 0002:00014070       ??B?$ObjVar@VObject@CORBA@@@@QAEPAVObject@CORBA@@XZ 00458070 f i idl.obj
 0002:000140b0       ??0?$SequenceTmpl@UInfoInimigo@@$0A@@@QAE@XZ 004580b0 f i idl.obj
 0002:00014110       ??1?$SequenceTmpl@UInfoInimigo@@$0A@@@QAE@XZ 00458110 f i idl.obj
 0002:00014160       ??4?$SequenceTmpl@UInfoInimigo@@$0A@@@QAEAAV0@ABV0@@Z 00458160 f i idl.obj
 0002:000141c0       ??0?$SequenceTmpl@UInfoItem@@$0A@@@QAE@XZ 004581c0 f i idl.obj
 0002:00014220       ??1?$SequenceTmpl@UInfoItem@@$0A@@@QAE@XZ 00458220 f i idl.obj
 0002:00014270       ??4?$SequenceTmpl@UInfoItem@@$0A@@@QAEAAV0@ABV0@@Z 00458270 f i idl.obj
 0002:000142d0       ??0bad_alloc@std@@QAE@ABV01@@Z 004582d0 f i idl.obj
 0002:00014340       ??0?$_DebugHeapAllocator@D@std@@QAE@XZ 00458340 f i idl.obj
 0002:000143a0       ??0?$_DebugHeapAllocator@D@std@@QAE@ABV01@@Z 004583a0 f i idl.obj
 0002:00014400       ??0?$allocator@D@std@@QAE@XZ 00458400 f i idl.obj
 0002:00014440       ??0?$allocator@D@std@@QAE@ABV01@@Z 00458440 f i idl.obj
 0002:00014480       ??0?$vector@UInfoInimigo@@V?$allocator@UInfoInimigo@@@std@@@std@@QAE@XZ 00458480 f i idl.obj
 0002:00014540       ??1?$vector@UInfoInimigo@@V?$allocator@UInfoInimigo@@@std@@@std@@QAE@XZ 00458540 f i idl.obj
 0002:000145e0       ??4?$vector@UInfoInimigo@@V?$allocator@UInfoInimigo@@@std@@@std@@QAEAAV01@ABV01@@Z 004585e0 f i idl.obj
 0002:00014800       ?_Orphan_all@_Container_base@std@@QBEXXZ 00458800 f i idl.obj
 0002:000148e0       ??0?$vector@UInfoItem@@V?$allocator@UInfoItem@@@std@@@std@@QAE@XZ 004588e0 f i idl.obj
 0002:000149a0       ??1?$vector@UInfoItem@@V?$allocator@UInfoItem@@@std@@@std@@QAE@XZ 004589a0 f i idl.obj
 0002:00014a40       ??4?$vector@UInfoItem@@V?$allocator@UInfoItem@@@std@@@std@@QAEAAV01@ABV01@@Z 00458a40 f i idl.obj
 0002:00014c70       ??1?$_Vector_val@UInfoInimigo@@V?$allocator@UInfoInimigo@@@std@@@std@@QAE@XZ 00458c70 f i idl.obj
 0002:00014cc0       ??1_Container_base@std@@QAE@XZ 00458cc0 f i idl.obj
 0002:00014d10       ??1?$_Vector_val@UInfoItem@@V?$allocator@UInfoItem@@@std@@@std@@QAE@XZ 00458d10 f i idl.obj
 0002:00014d60       ?capacity@?$vector@UInfoInimigo@@V?$allocator@UInfoInimigo@@@std@@@std@@QBEIXZ 00458d60 f i idl.obj
 0002:00014dd0       ?size@?$vector@UInfoInimigo@@V?$allocator@UInfoInimigo@@@std@@@std@@QBEIXZ 00458dd0 f i idl.obj
 0002:00014e40       ?clear@?$vector@UInfoInimigo@@V?$allocator@UInfoInimigo@@@std@@@std@@QAEXXZ 00458e40 f i idl.obj
 0002:00014f50       ?_Buy@?$vector@UInfoInimigo@@V?$allocator@UInfoInimigo@@@std@@@std@@IAE_NI@Z 00458f50 f i idl.obj
 0002:00015030       ?_Destroy@?$vector@UInfoInimigo@@V?$allocator@UInfoInimigo@@@std@@@std@@IAEXPAUInfoInimigo@@0@Z 00459030 f i idl.obj
 0002:000150a0       ?_Tidy@?$vector@UInfoInimigo@@V?$allocator@UInfoInimigo@@@std@@@std@@IAEXXZ 004590a0 f i idl.obj
 0002:00015170       ??0?$_Vector_val@UInfoInimigo@@V?$allocator@UInfoInimigo@@@std@@@std@@IAE@V?$allocator@UInfoInimigo@@@1@@Z 00459170 f i idl.obj
 0002:000151e0       ??0_Container_base@std@@QAE@XZ 004591e0 f i idl.obj
 0002:00015230       ??0?$allocator@UInfoInimigo@@@std@@QAE@XZ 00459230 f i idl.obj
 0002:00015270       ?deallocate@?$allocator@UInfoInimigo@@@std@@QAEXPAUInfoInimigo@@I@Z 00459270 f i idl.obj
 0002:000152d0       ?capacity@?$vector@UInfoItem@@V?$allocator@UInfoItem@@@std@@@std@@QBEIXZ 004592d0 f i idl.obj
 0002:00015350       ?size@?$vector@UInfoItem@@V?$allocator@UInfoItem@@@std@@@std@@QBEIXZ 00459350 f i idl.obj
 0002:000153d0       ?clear@?$vector@UInfoItem@@V?$allocator@UInfoItem@@@std@@@std@@QAEXXZ 004593d0 f i idl.obj
 0002:000154e0       ?_Buy@?$vector@UInfoItem@@V?$allocator@UInfoItem@@@std@@@std@@IAE_NI@Z 004594e0 f i idl.obj
 0002:000155c0       ?_Destroy@?$vector@UInfoItem@@V?$allocator@UInfoItem@@@std@@@std@@IAEXPAUInfoItem@@0@Z 004595c0 f i idl.obj
 0002:00015630       ?_Tidy@?$vector@UInfoItem@@V?$allocator@UInfoItem@@@std@@@std@@IAEXXZ 00459630 f i idl.obj
 0002:00015700       ??0?$_Vector_val@UInfoItem@@V?$allocator@UInfoItem@@@std@@@std@@IAE@V?$allocator@UInfoItem@@@1@@Z 00459700 f i idl.obj
 0002:00015770       ??0?$allocator@UInfoItem@@@std@@QAE@XZ 00459770 f i idl.obj
 0002:000157b0       ?deallocate@?$allocator@UInfoItem@@@std@@QAEXPAUInfoItem@@I@Z 004597b0 f i idl.obj
 0002:00015810       ??1?$_Vector_iterator@UInfoInimigo@@V?$allocator@UInfoInimigo@@@std@@@std@@QAE@XZ 00459810 f i idl.obj
 0002:00015860       ??1?$_Vector_iterator@UInfoItem@@V?$allocator@UInfoItem@@@std@@@std@@QAE@XZ 00459860 f i idl.obj
 0002:000158b0       ??1?$_Vector_const_iterator@UInfoInimigo@@V?$allocator@UInfoInimigo@@@std@@@std@@QAE@XZ 004598b0 f i idl.obj
 0002:00015900       ??1?$_Vector_const_iterator@UInfoItem@@V?$allocator@UInfoItem@@@std@@@std@@QAE@XZ 00459900 f i idl.obj
 0002:00015950       ??1?$_Ranit@UInfoInimigo@@HPBU1@ABU1@@std@@QAE@XZ 00459950 f i idl.obj
 0002:000159a0       ??1_Iterator_base@std@@QAE@XZ 004599a0 f i idl.obj
 0002:00015a90       ?_Orphan_me@_Iterator_base@std@@QAEXXZ 00459a90 f i idl.obj
 0002:00015b60       ??1?$_Ranit@UInfoItem@@HPBU1@ABU1@@std@@QAE@XZ 00459b60 f i idl.obj
 0002:00015bb0       ?begin@?$vector@UInfoInimigo@@V?$allocator@UInfoInimigo@@@std@@@std@@QAE?AV?$_Vector_iterator@UInfoInimigo@@V?$allocator@UInfoInimigo@@@std@@@2@XZ 00459bb0 f i idl.obj
 0002:00015c40       ?end@?$vector@UInfoInimigo@@V?$allocator@UInfoInimigo@@@std@@@std@@QAE?AV?$_Vector_iterator@UInfoInimigo@@V?$allocator@UInfoInimigo@@@std@@@2@XZ 00459c40 f i idl.obj
 0002:00015cd0       ?max_size@?$vector@UInfoInimigo@@V?$allocator@UInfoInimigo@@@std@@@std@@QBEIXZ 00459cd0 f i idl.obj
 0002:00015d30       ?erase@?$vector@UInfoInimigo@@V?$allocator@UInfoInimigo@@@std@@@std@@QAE?AV?$_Vector_iterator@UInfoInimigo@@V?$allocator@UInfoInimigo@@@std@@@2@V32@0@Z 00459d30 f i idl.obj
 0002:00015ee0       ?_Xlen@?$vector@UInfoInimigo@@V?$allocator@UInfoInimigo@@@std@@@std@@KAXXZ 00459ee0 f i idl.obj
 0002:00015fc0       ??0length_error@std@@QAE@ABV?$basic_string@DU?$char_traits@D@std@@V?$allocator@D@2@@1@@Z 00459fc0 f i idl.obj
 0002:00016030       ??0logic_error@std@@QAE@ABV?$basic_string@DU?$char_traits@D@std@@V?$allocator@D@2@@1@@Z 0045a030 f i idl.obj
 0002:000160f0       ?what@logic_error@std@@UBEPBDXZ 0045a0f0 f i idl.obj
 0002:00016150       ??_Glogic_error@std@@UAEPAXI@Z 0045a150 f i idl.obj
 0002:00016150       ??_Elogic_error@std@@UAEPAXI@Z 0045a150 f i idl.obj
 0002:000161c0       ??1logic_error@std@@UAE@XZ 0045a1c0 f i idl.obj
 0002:00016230       ??1length_error@std@@UAE@XZ 0045a230 f i idl.obj
 0002:00016290       ??_Glength_error@std@@UAEPAXI@Z 0045a290 f i idl.obj
 0002:00016290       ??_Elength_error@std@@UAEPAXI@Z 0045a290 f i idl.obj
 0002:00016300       ??0logic_error@std@@QAE@ABV01@@Z 0045a300 f i idl.obj
 0002:000163d0       ??0?$basic_string@DU?$char_traits@D@std@@V?$allocator@D@2@@std@@QAE@ABV01@@Z 0045a3d0 f i idl.obj
 0002:000164b0       ??0?$basic_string@DU?$char_traits@D@std@@V?$allocator@D@2@@std@@QAE@PBD@Z 0045a4b0 f i idl.obj
 0002:00016580       ??1?$basic_string@DU?$char_traits@D@std@@V?$allocator@D@2@@std@@QAE@XZ 0045a580 f i idl.obj
 0002:00016630       ?c_str@?$basic_string@DU?$char_traits@D@std@@V?$allocator@D@2@@std@@QBEPBDXZ 0045a630 f i idl.obj
 0002:00016680       ??1?$_String_val@DV?$allocator@D@std@@@std@@QAE@XZ 0045a680 f i idl.obj
 0002:000166d0       ??1_String_base@std@@QAE@XZ 0045a6d0 f i idl.obj
 0002:00016720       ?assign@?$basic_string@DU?$char_traits@D@std@@V?$allocator@D@2@@std@@QAEAAV12@ABV12@II@Z 0045a720 f i idl.obj
 0002:00016840       ?size@?$basic_string@DU?$char_traits@D@std@@V?$allocator@D@2@@std@@QBEIXZ 0045a840 f i idl.obj
 0002:00016880       ?assign@?$basic_string@DU?$char_traits@D@std@@V?$allocator@D@2@@std@@QAEAAV12@PBD@Z 0045a880 f i idl.obj
 0002:000168f0       ?length@?$char_traits@D@std@@SAIPBD@Z 0045a8f0 f i idl.obj
 0002:00016940       ?_Tidy@?$basic_string@DU?$char_traits@D@std@@V?$allocator@D@2@@std@@IAEX_NI@Z 0045a940 f i idl.obj
 0002:00016a10       ?_Myptr@?$basic_string@DU?$char_traits@D@std@@V?$allocator@D@2@@std@@IBEPBDXZ 0045aa10 f i idl.obj
 0002:00016a80       ??0?$_String_val@DV?$allocator@D@std@@@std@@IAE@V?$allocator@D@1@@Z 0045aa80 f i idl.obj
 0002:00016af0       ??0_String_base@std@@QAE@XZ 0045aaf0 f i idl.obj
 0002:00016b50       ?assign@?$basic_string@DU?$char_traits@D@std@@V?$allocator@D@2@@std@@QAEAAV12@PBDI@Z 0045ab50 f i idl.obj
 0002:00016c30       ?erase@?$basic_string@DU?$char_traits@D@std@@V?$allocator@D@2@@std@@QAEAAV12@II@Z 0045ac30 f i idl.obj
 0002:00016d20       ?_Eos@?$basic_string@DU?$char_traits@D@std@@V?$allocator@D@2@@std@@IAEXI@Z 0045ad20 f i idl.obj
 0002:00016da0       ?assign@?$char_traits@D@std@@SAXAADABD@Z 0045ada0 f i idl.obj
 0002:00016de0       ?_Grow@?$basic_string@DU?$char_traits@D@std@@V?$allocator@D@2@@std@@IAE_NI_N@Z 0045ade0 f i idl.obj
 0002:00016ee0       ?_Myptr@?$basic_string@DU?$char_traits@D@std@@V?$allocator@D@2@@std@@IAEPADXZ 0045aee0 f i idl.obj
 0002:00016f50       ?deallocate@?$allocator@D@std@@QAEXPADI@Z 0045af50 f i idl.obj
 0002:00016fb0       ??0length_error@std@@QAE@ABV01@@Z 0045afb0 f i idl.obj
 0002:00017020       ?max_size@?$basic_string@DU?$char_traits@D@std@@V?$allocator@D@2@@std@@QBEIXZ 0045b020 f i idl.obj
 0002:000170b0       ?_Copy@?$basic_string@DU?$char_traits@D@std@@V?$allocator@D@2@@std@@IAEXII@Z 0045b0b0 f i idl.obj
 0002:000172d0       ?_Inside@?$basic_string@DU?$char_traits@D@std@@V?$allocator@D@2@@std@@IAE_NPBD@Z 0045b2d0 f i idl.obj
 0002:00017370       ??0?$allocator@UInfoInimigo@@@std@@QAE@ABV01@@Z 0045b370 f i idl.obj
 0002:000173b0       ?allocate@?$allocator@UInfoInimigo@@@std@@QAEPAUInfoInimigo@@I@Z 0045b3b0 f i idl.obj
 0002:00017410       ?begin@?$vector@UInfoItem@@V?$allocator@UInfoItem@@@std@@@std@@QAE?AV?$_Vector_iterator@UInfoItem@@V?$allocator@UInfoItem@@@std@@@2@XZ 0045b410 f i idl.obj
 0002:000174a0       ?end@?$vector@UInfoItem@@V?$allocator@UInfoItem@@@std@@@std@@QAE?AV?$_Vector_iterator@UInfoItem@@V?$allocator@UInfoItem@@@std@@@2@XZ 0045b4a0 f i idl.obj
 0002:00017530       ?max_size@?$vector@UInfoItem@@V?$allocator@UInfoItem@@@std@@@std@@QBEIXZ 0045b530 f i idl.obj
 0002:00017590       ?erase@?$vector@UInfoItem@@V?$allocator@UInfoItem@@@std@@@std@@QAE?AV?$_Vector_iterator@UInfoItem@@V?$allocator@UInfoItem@@@std@@@2@V32@0@Z 0045b590 f i idl.obj
 0002:00017740       ?_Xlen@?$vector@UInfoItem@@V?$allocator@UInfoItem@@@std@@@std@@KAXXZ 0045b740 f i idl.obj
 0002:00017820       ??0?$allocator@UInfoItem@@@std@@QAE@ABV01@@Z 0045b820 f i idl.obj
 0002:00017860       ?allocate@?$allocator@UInfoItem@@@std@@QAEPAUInfoItem@@I@Z 0045b860 f i idl.obj
 0002:000178c0       ?allocate@?$allocator@D@std@@QAEPADI@Z 0045b8c0 f i idl.obj
 0002:00017920       ?max_size@?$allocator@D@std@@QBEIXZ 0045b920 f i idl.obj
 0002:00017990       ?_Orphan_range@?$vector@UInfoInimigo@@V?$allocator@UInfoInimigo@@@std@@@std@@IBEXPAUInfoInimigo@@0@Z 0045b990 f i idl.obj
 0002:00017a90       ?max_size@?$allocator@UInfoInimigo@@@std@@QBEIXZ 0045ba90 f i idl.obj
 0002:00017b00       ?_Orphan_range@?$vector@UInfoItem@@V?$allocator@UInfoItem@@@std@@@std@@IBEXPAUInfoItem@@0@Z 0045bb00 f i idl.obj
 0002:00017c00       ?max_size@?$allocator@UInfoItem@@@std@@QBEIXZ 0045bc00 f i idl.obj
 0002:00017c70       ??0?$_Vector_iterator@UInfoInimigo@@V?$allocator@UInfoInimigo@@@std@@@std@@QAE@PAUInfoInimigo@@PBV_Container_base@1@@Z 0045bc70 f i idl.obj
 0002:00017cd0       ??9?$_Vector_const_iterator@UInfoInimigo@@V?$allocator@UInfoInimigo@@@std@@@std@@QBE_NABV01@@Z 0045bcd0 f i idl.obj
 0002:00017d40       ??M?$_Vector_const_iterator@UInfoInimigo@@V?$allocator@UInfoInimigo@@@std@@@std@@QBE_NABV01@@Z 0045bd40 f i idl.obj
 0002:00017db0       ??0?$_Vector_iterator@UInfoItem@@V?$allocator@UInfoItem@@@std@@@std@@QAE@PAUInfoItem@@PBV_Container_base@1@@Z 0045bdb0 f i idl.obj
 0002:00017e10       ??9?$_Vector_const_iterator@UInfoItem@@V?$allocator@UInfoItem@@@std@@@std@@QBE_NABV01@@Z 0045be10 f i idl.obj
 0002:00017e80       ??M?$_Vector_const_iterator@UInfoItem@@V?$allocator@UInfoItem@@@std@@@std@@QBE_NABV01@@Z 0045be80 f i idl.obj
 0002:00017ef0       ??0?$_Vector_const_iterator@UInfoInimigo@@V?$allocator@UInfoInimigo@@@std@@@std@@QAE@PAUInfoInimigo@@PBV_Container_base@1@@Z 0045bef0 f i idl.obj
 0002:00018020       ?_Adopt@_Iterator_base@std@@QAEXPBV_Container_base@2@@Z 0045c020 f i idl.obj
 0002:00018150       ??8?$_Vector_const_iterator@UInfoInimigo@@V?$allocator@UInfoInimigo@@@std@@@std@@QBE_NABV01@@Z 0045c150 f i idl.obj
 0002:000181c0       ?_Compat@?$_Vector_const_iterator@UInfoInimigo@@V?$allocator@UInfoInimigo@@@std@@@std@@QBEXABV12@@Z 0045c1c0 f i idl.obj
 0002:00018290       ??0?$_Vector_const_iterator@UInfoItem@@V?$allocator@UInfoItem@@@std@@@std@@QAE@PAUInfoItem@@PBV_Container_base@1@@Z 0045c290 f i idl.obj
 0002:000183c0       ??8?$_Vector_const_iterator@UInfoItem@@V?$allocator@UInfoItem@@@std@@@std@@QBE_NABV01@@Z 0045c3c0 f i idl.obj
 0002:00018430       ?_Compat@?$_Vector_const_iterator@UInfoItem@@V?$allocator@UInfoItem@@@std@@@std@@QBEXABV12@@Z 0045c430 f i idl.obj
 0002:00018500       ??0?$_Ranit@UInfoInimigo@@HPBU1@ABU1@@std@@QAE@XZ 0045c500 f i idl.obj
 0002:00018560       ??0_Iterator_base@std@@QAE@XZ 0045c560 f i idl.obj
 0002:000185b0       ??0?$_Ranit@UInfoItem@@HPBU1@ABU1@@std@@QAE@XZ 0045c5b0 f i idl.obj
 0002:00018610       ??$_Debug_pointer@D@std@@YAXPBDPB_WI@Z 0045c610 f i idl.obj
 0002:00018670       ?free@?$ObjVar@VObject@CORBA@@@@AAEXXZ 0045c670 f i idl.obj
 0002:000186e0       ?nil@?$ObjVar@VObject@CORBA@@@@CAPAVObject@CORBA@@XZ 0045c6e0 f i idl.obj
 0002:00018710       ?length@?$SequenceTmpl@UInfoInimigo@@$0A@@@QBEKXZ 0045c710 f i idl.obj
 0002:00018760       ?length@?$SequenceTmpl@UInfoInimigo@@$0A@@@QAEXK@Z 0045c760 f i idl.obj
 0002:00018960       ??A?$SequenceTmpl@UInfoInimigo@@$0A@@@QAEAAUInfoInimigo@@K@Z 0045c960 f i idl.obj
 0002:000189c0       ?length@?$SequenceTmpl@UInfoItem@@$0A@@@QBEKXZ 0045c9c0 f i idl.obj
 0002:00018a10       ?length@?$SequenceTmpl@UInfoItem@@$0A@@@QAEXK@Z 0045ca10 f i idl.obj
 0002:00018c10       ??A?$SequenceTmpl@UInfoItem@@$0A@@@QAEAAUInfoItem@@K@Z 0045cc10 f i idl.obj
 0002:00018c70       ??$_DebugHeapDelete@X@std@@YAXPAX@Z 0045cc70 f i idl.obj
 0002:00018cd0       ??$copy_s@U?$char_traits@D@std@@@_Traits_helper@std@@YAPADPADIPBDI@Z 0045ccd0 f i idl.obj
 0002:00018d50       ??$unchecked_copy@PAUInfoInimigo@@PAU1@@stdext@@YAPAUInfoInimigo@@PAU1@00@Z 0045cd50 f i idl.obj
 0002:00018e20       ??$_Ucopy@PAUInfoInimigo@@@?$vector@UInfoInimigo@@V?$allocator@UInfoInimigo@@@std@@@std@@IAEPAUInfoInimigo@@PAU2@00@Z 0045ce20 f i idl.obj
 0002:00018e90       ??$unchecked_copy@PAUInfoItem@@PAU1@@stdext@@YAPAUInfoItem@@PAU1@00@Z 0045ce90 f i idl.obj
 0002:00018f60       ??$_Ucopy@PAUInfoItem@@@?$vector@UInfoItem@@V?$allocator@UInfoItem@@@std@@@std@@IAEPAUInfoItem@@PAU2@00@Z 0045cf60 f i idl.obj
 0002:00018fd0       ??$move_s@U?$char_traits@D@std@@@_Traits_helper@std@@YAPADPADIPBDI@Z 0045cfd0 f i idl.obj
 0002:00019050       ??$_Destroy_range@UInfoInimigo@@V?$allocator@UInfoInimigo@@@std@@@std@@YAXPAUInfoInimigo@@0AAV?$allocator@UInfoInimigo@@@0@@Z 0045d050 f i idl.obj
 0002:000190d0       ??$_Destroy_range@UInfoItem@@V?$allocator@UInfoItem@@@std@@@std@@YAXPAUInfoItem@@0AAV?$allocator@UInfoItem@@@0@@Z 0045d0d0 f i idl.obj
 0002:00019150       ??$_Allocate@UInfoInimigo@@@std@@YAPAUInfoInimigo@@IPAU1@@Z 0045d150 f i idl.obj
 0002:000191f0       ??$_Allocate@UInfoItem@@@std@@YAPAUInfoItem@@IPAU1@@Z 0045d1f0 f i idl.obj
 0002:00019290       ??$_Allocate@D@std@@YAPADIPAD@Z 0045d290 f i idl.obj
 0002:00019330       ??A?$vector@UInfoInimigo@@V?$allocator@UInfoInimigo@@@std@@@std@@QAEAAUInfoInimigo@@I@Z 0045d330 f i idl.obj
 0002:00019470       ?insert@?$vector@UInfoInimigo@@V?$allocator@UInfoInimigo@@@std@@@std@@QAEXV?$_Vector_iterator@UInfoInimigo@@V?$allocator@UInfoInimigo@@@std@@@2@IABUInfoInimigo@@@Z 0045d470 f i idl.obj
 0002:00019540       ??A?$vector@UInfoItem@@V?$allocator@UInfoItem@@@std@@@std@@QAEAAUInfoItem@@I@Z 0045d540 f i idl.obj
 0002:00019680       ?insert@?$vector@UInfoItem@@V?$allocator@UInfoItem@@@std@@@std@@QAEXV?$_Vector_iterator@UInfoItem@@V?$allocator@UInfoItem@@@std@@@2@IABUInfoItem@@@Z 0045d680 f i idl.obj
 0002:00019750       ??H?$_Vector_iterator@UInfoInimigo@@V?$allocator@UInfoInimigo@@@std@@@std@@QBE?AV01@H@Z 0045d750 f i idl.obj
 0002:00019870       ??H?$_Vector_iterator@UInfoItem@@V?$allocator@UInfoItem@@@std@@@std@@QBE?AV01@H@Z 0045d870 f i idl.obj
 0002:00019990       ??0?$_Vector_iterator@UInfoInimigo@@V?$allocator@UInfoInimigo@@@std@@@std@@QAE@ABV01@@Z 0045d990 f i idl.obj
 0002:000199f0       ??0?$_Vector_iterator@UInfoItem@@V?$allocator@UInfoItem@@@std@@@std@@QAE@ABV01@@Z 0045d9f0 f i idl.obj
 0002:00019a50       ??0?$_Vector_const_iterator@UInfoInimigo@@V?$allocator@UInfoInimigo@@@std@@@std@@QAE@ABV01@@Z 0045da50 f i idl.obj
 0002:00019ac0       ??0?$_Vector_const_iterator@UInfoItem@@V?$allocator@UInfoItem@@@std@@@std@@QAE@ABV01@@Z 0045dac0 f i idl.obj
 0002:00019b30       ??0?$_Ranit@UInfoInimigo@@HPBU1@ABU1@@std@@QAE@ABU01@@Z 0045db30 f i idl.obj
 0002:00019b90       ??0_Iterator_base@std@@QAE@ABV01@@Z 0045db90 f i idl.obj
 0002:00019c10       ??4_Iterator_base@std@@QAEAAV01@ABV01@@Z 0045dc10 f i idl.obj
 0002:00019d20       ??0?$_Ranit@UInfoItem@@HPBU1@ABU1@@std@@QAE@ABU01@@Z 0045dd20 f i idl.obj
 0002:00019d80       ?_Insert_n@?$vector@UInfoInimigo@@V?$allocator@UInfoInimigo@@@std@@@std@@IAEXV?$_Vector_iterator@UInfoInimigo@@V?$allocator@UInfoInimigo@@@std@@@2@IABUInfoInimigo@@@Z 0045dd80 f i idl.obj
 0002:0001a2a0       ?_Insert_n@?$vector@UInfoItem@@V?$allocator@UInfoItem@@@std@@@std@@IAEXV?$_Vector_iterator@UInfoItem@@V?$allocator@UInfoItem@@@std@@@2@IABUInfoItem@@@Z 0045e2a0 f i idl.obj
 0002:0001a7e0       ??Y?$_Vector_iterator@UInfoInimigo@@V?$allocator@UInfoInimigo@@@std@@@std@@QAEAAV01@H@Z 0045e7e0 f i idl.obj
 0002:0001a840       ??Y?$_Vector_iterator@UInfoItem@@V?$allocator@UInfoItem@@@std@@@std@@QAEAAV01@H@Z 0045e840 f i idl.obj
 0002:0001a8a0       ?_Ufill@?$vector@UInfoInimigo@@V?$allocator@UInfoInimigo@@@std@@@std@@IAEPAUInfoInimigo@@PAU3@IABU3@@Z 0045e8a0 f i idl.obj
 0002:0001a920       ?_Ufill@?$vector@UInfoItem@@V?$allocator@UInfoItem@@@std@@@std@@IAEPAUInfoItem@@PAU3@IABU3@@Z 0045e920 f i idl.obj
 0002:0001a9a0       ??Y?$_Vector_const_iterator@UInfoInimigo@@V?$allocator@UInfoInimigo@@@std@@@std@@QAEAAV01@H@Z 0045e9a0 f i idl.obj
 0002:0001aaf0       ??Y?$_Vector_const_iterator@UInfoItem@@V?$allocator@UInfoItem@@@std@@@std@@QAEAAV01@H@Z 0045eaf0 f i idl.obj
 0002:0001ac40       ?release@?$ObjVar@VObject@CORBA@@@@SAXPAVObject@CORBA@@@Z 0045ec40 f i idl.obj
 0002:0001ac90       ??$_Char_traits_cat@U?$char_traits@D@std@@@std@@YA?AU_Secure_char_traits_tag@0@XZ 0045ec90 f i idl.obj
 0002:0001ad00       ??$copy_s@U?$char_traits@D@std@@@_Traits_helper@std@@YAPADPADIPBDIU_Secure_char_traits_tag@1@@Z 0045ed00 f i idl.obj
 0002:0001ad60       ?_Copy_s@?$char_traits@D@std@@SAPADPADIPBDI@Z 0045ed60 f i idl.obj
 0002:0001adc0       ??$_Checked_base@PAUInfoInimigo@@@std@@YAPAUInfoInimigo@@AAPAU1@@Z 0045edc0 f i idl.obj
 0002:0001ae50       ??$_Iter_random@PAUInfoInimigo@@PAU1@@std@@YA?AUrandom_access_iterator_tag@0@ABQAUInfoInimigo@@0@Z 0045ee50 f i idl.obj
 0002:0001aec0       ??$_Ptr_cat@PAUInfoInimigo@@PAU1@@std@@YA?AU_Nonscalar_ptr_iterator_tag@0@AAPAUInfoInimigo@@0@Z 0045eec0 f i idl.obj
 0002:0001af30       ??$_Copy_opt@PAUInfoInimigo@@PAU1@@std@@YAPAUInfoInimigo@@PAU1@00Urandom_access_iterator_tag@0@U_Nonscalar_ptr_iterator_tag@0@U_Range_checked_iterator_tag@0@@Z 0045ef30 f i idl.obj
 0002:0001afe0       ??$unchecked_uninitialized_copy@PAUInfoInimigo@@PAU1@V?$allocator@UInfoInimigo@@@std@@@stdext@@YAPAUInfoInimigo@@PAU1@00AAV?$allocator@UInfoInimigo@@@std@@@Z 0045efe0 f i idl.obj
 0002:0001b090       ??$_Checked_base@PAUInfoItem@@@std@@YAPAUInfoItem@@AAPAU1@@Z 0045f090 f i idl.obj
 0002:0001b120       ??$_Iter_random@PAUInfoItem@@PAU1@@std@@YA?AUrandom_access_iterator_tag@0@ABQAUInfoItem@@0@Z 0045f120 f i idl.obj
 0002:0001b190       ??$_Ptr_cat@PAUInfoItem@@PAU1@@std@@YA?AU_Nonscalar_ptr_iterator_tag@0@AAPAUInfoItem@@0@Z 0045f190 f i idl.obj
 0002:0001b200       ??$_Copy_opt@PAUInfoItem@@PAU1@@std@@YAPAUInfoItem@@PAU1@00Urandom_access_iterator_tag@0@U_Nonscalar_ptr_iterator_tag@0@U_Range_checked_iterator_tag@0@@Z 0045f200 f i idl.obj
 0002:0001b2c0       ??$unchecked_uninitialized_copy@PAUInfoItem@@PAU1@V?$allocator@UInfoItem@@@std@@@stdext@@YAPAUInfoItem@@PAU1@00AAV?$allocator@UInfoItem@@@std@@@Z 0045f2c0 f i idl.obj
 0002:0001b370       ??$move_s@U?$char_traits@D@std@@@_Traits_helper@std@@YAPADPADIPBDIU_Secure_char_traits_tag@1@@Z 0045f370 f i idl.obj
 0002:0001b3d0       ?_Move_s@?$char_traits@D@std@@SAPADPADIPBDI@Z 0045f3d0 f i idl.obj
 0002:0001b430       ??$_Destroy_range@UInfoInimigo@@V?$allocator@UInfoInimigo@@@std@@@std@@YAXPAUInfoInimigo@@0AAV?$allocator@UInfoInimigo@@@0@U_Nonscalar_ptr_iterator_tag@0@@Z 0045f430 f i idl.obj
 0002:0001b4a0       ??$_Destroy_range@UInfoItem@@V?$allocator@UInfoItem@@@std@@@std@@YAXPAUInfoItem@@0AAV?$allocator@UInfoItem@@@0@U_Nonscalar_ptr_iterator_tag@0@@Z 0045f4a0 f i idl.obj
 0002:0001b510       ??$_Umove@PAUInfoInimigo@@@?$vector@UInfoInimigo@@V?$allocator@UInfoInimigo@@@std@@@std@@IAEPAUInfoInimigo@@PAU2@00@Z 0045f510 f i idl.obj
 0002:0001b580       ??$fill@PAUInfoInimigo@@U1@@std@@YAXPAUInfoInimigo@@0ABU1@@Z 0045f580 f i idl.obj
 0002:0001b5f0       ??$_Unchecked_move_backward@PAUInfoInimigo@@PAU1@@stdext@@YAPAUInfoInimigo@@PAU1@00@Z 0045f5f0 f i idl.obj
 0002:0001b6b0       ??$_Umove@PAUInfoItem@@@?$vector@UInfoItem@@V?$allocator@UInfoItem@@@std@@@std@@IAEPAUInfoItem@@PAU2@00@Z 0045f6b0 f i idl.obj
 0002:0001b720       ??$fill@PAUInfoItem@@U1@@std@@YAXPAUInfoItem@@0ABU1@@Z 0045f720 f i idl.obj
 0002:0001b790       ??$_Unchecked_move_backward@PAUInfoItem@@PAU1@@stdext@@YAPAUInfoItem@@PAU1@00@Z 0045f790 f i idl.obj
 0002:0001b850       ??$unchecked_uninitialized_fill_n@PAUInfoInimigo@@IU1@V?$allocator@UInfoInimigo@@@std@@@stdext@@YAXPAUInfoInimigo@@IABU1@AAV?$allocator@UInfoInimigo@@@std@@@Z 0045f850 f i idl.obj
 0002:0001b8f0       ??$unchecked_uninitialized_fill_n@PAUInfoItem@@IU1@V?$allocator@UInfoItem@@@std@@@stdext@@YAXPAUInfoItem@@IABU1@AAV?$allocator@UInfoItem@@@std@@@Z 0045f8f0 f i idl.obj
 0002:0001b990       ?destroy@?$allocator@UInfoInimigo@@@std@@QAEXPAUInfoInimigo@@@Z 0045f990 f i idl.obj
 0002:0001b9f0       ?destroy@?$allocator@UInfoItem@@@std@@QAEXPAUInfoItem@@@Z 0045f9f0 f i idl.obj
 0002:0001ba50       ??$_Checked_base@PAUInfoInimigo@@@std@@YAPAUInfoInimigo@@AAPAU1@U_Unchanged_checked_iterator_base_type_tag@0@@Z 0045fa50 f i idl.obj
 0002:0001ba90       ??$_Copy_opt@PAUInfoInimigo@@PAU1@Uforward_iterator_tag@std@@@std@@YAPAUInfoInimigo@@PAU1@00Uforward_iterator_tag@0@U_Nonscalar_ptr_iterator_tag@0@U_Range_checked_iterator_tag@0@@Z 0045fa90 f i idl.obj
 0002:0001bb30       ??$_Uninit_copy@PAUInfoInimigo@@PAU1@V?$allocator@UInfoInimigo@@@std@@@std@@YAPAUInfoInimigo@@PAU1@00AAV?$allocator@UInfoInimigo@@@0@U_Nonscalar_ptr_iterator_tag@0@U_Range_checked_iterator_tag@0@@Z 0045fb30 f i idl.obj
 0002:0001bc80       ??$_Checked_base@PAUInfoItem@@@std@@YAPAUInfoItem@@AAPAU1@U_Unchanged_checked_iterator_base_type_tag@0@@Z 0045fc80 f i idl.obj
 0002:0001bcc0       ??$_Copy_opt@PAUInfoItem@@PAU1@Uforward_iterator_tag@std@@@std@@YAPAUInfoItem@@PAU1@00Uforward_iterator_tag@0@U_Nonscalar_ptr_iterator_tag@0@U_Range_checked_iterator_tag@0@@Z 0045fcc0 f i idl.obj
 0002:0001bd60       ??$_Uninit_copy@PAUInfoItem@@PAU1@V?$allocator@UInfoItem@@@std@@@std@@YAPAUInfoItem@@PAU1@00AAV?$allocator@UInfoItem@@@0@U_Nonscalar_ptr_iterator_tag@0@U_Range_checked_iterator_tag@0@@Z 0045fd60 f i idl.obj
 0002:0001beb0       ??$_Unchecked_uninitialized_move@PAUInfoInimigo@@PAU1@V?$allocator@UInfoInimigo@@@std@@@stdext@@YAPAUInfoInimigo@@PAU1@00AAV?$allocator@UInfoInimigo@@@std@@@Z 0045feb0 f i idl.obj
 0002:0001bf60       ??$_Fill@PAUInfoInimigo@@U1@@std@@YAXPAUInfoInimigo@@0ABU1@@Z 0045ff60 f i idl.obj
 0002:0001bff0       ??$_Move_cat@PAUInfoInimigo@@@std@@YA?AU_Undefined_move_tag@0@ABQAUInfoInimigo@@@Z 0045fff0 f i idl.obj
 0002:0001c060       ??$_Move_backward_opt@PAUInfoInimigo@@PAU1@Urandom_access_iterator_tag@std@@U_Undefined_move_tag@3@@std@@YAPAUInfoInimigo@@PAU1@00Urandom_access_iterator_tag@0@U_Undefined_move_tag@0@U_Range_checked_iterator_tag@0@@Z 00460060 f i idl.obj
 0002:0001c100       ??$_Unchecked_uninitialized_move@PAUInfoItem@@PAU1@V?$allocator@UInfoItem@@@std@@@stdext@@YAPAUInfoItem@@PAU1@00AAV?$allocator@UInfoItem@@@std@@@Z 00460100 f i idl.obj
 0002:0001c1b0       ??$_Fill@PAUInfoItem@@U1@@std@@YAXPAUInfoItem@@0ABU1@@Z 004601b0 f i idl.obj
 0002:0001c240       ??$_Move_cat@PAUInfoItem@@@std@@YA?AU_Undefined_move_tag@0@ABQAUInfoItem@@@Z 00460240 f i idl.obj
 0002:0001c2b0       ??$_Move_backward_opt@PAUInfoItem@@PAU1@Urandom_access_iterator_tag@std@@U_Undefined_move_tag@3@@std@@YAPAUInfoItem@@PAU1@00Urandom_access_iterator_tag@0@U_Undefined_move_tag@0@U_Range_checked_iterator_tag@0@@Z 004602b0 f i idl.obj
 0002:0001c350       ??$_Uninit_fill_n@PAUInfoInimigo@@IU1@V?$allocator@UInfoInimigo@@@std@@@std@@YAXPAUInfoInimigo@@IABU1@AAV?$allocator@UInfoInimigo@@@0@U_Nonscalar_ptr_iterator_tag@0@U_Range_checked_iterator_tag@0@@Z 00460350 f i idl.obj
 0002:0001c460       ??$_Uninit_fill_n@PAUInfoItem@@IU1@V?$allocator@UInfoItem@@@std@@@std@@YAXPAUInfoItem@@IABU1@AAV?$allocator@UInfoItem@@@0@U_Nonscalar_ptr_iterator_tag@0@U_Range_checked_iterator_tag@0@@Z 00460460 f i idl.obj
 0002:0001c570       ??$_Destroy@UInfoInimigo@@@std@@YAXPAUInfoInimigo@@@Z 00460570 f i idl.obj
 0002:0001c5a0       ??$_Destroy@UInfoItem@@@std@@YAXPAUInfoItem@@@Z 004605a0 f i idl.obj
 0002:0001c5d0       ?construct@?$allocator@UInfoInimigo@@@std@@QAEXPAUInfoInimigo@@ABU3@@Z 004605d0 f i idl.obj
 0002:0001c630       ?construct@?$allocator@UInfoItem@@@std@@QAEXPAUInfoItem@@ABU3@@Z 00460630 f i idl.obj
 0002:0001c690       ??$_Debug_range@PAUInfoInimigo@@@std@@YAXPAUInfoInimigo@@0PB_WI@Z 00460690 f i idl.obj
 0002:0001c710       ??$_Debug_pointer@UInfoInimigo@@@std@@YAXPAUInfoInimigo@@PB_WI@Z 00460710 f i idl.obj
 0002:0001c770       ??$_Debug_range@PAUInfoItem@@@std@@YAXPAUInfoItem@@0PB_WI@Z 00460770 f i idl.obj
 0002:0001c7f0       ??$_Debug_pointer@UInfoItem@@@std@@YAXPAUInfoItem@@PB_WI@Z 004607f0 f i idl.obj
 0002:0001c850       ??$_Uninit_move@PAUInfoInimigo@@PAU1@V?$allocator@UInfoInimigo@@@std@@U_Undefined_move_tag@3@@std@@YAPAUInfoInimigo@@PAU1@00AAV?$allocator@UInfoInimigo@@@0@U_Undefined_move_tag@0@U_Range_checked_iterator_tag@0@@Z 00460850 f i idl.obj
 0002:0001c8b0       ??$_Copy_backward_opt@PAUInfoInimigo@@PAU1@@std@@YAPAUInfoInimigo@@PAU1@00Urandom_access_iterator_tag@0@U_Nonscalar_ptr_iterator_tag@0@U_Range_checked_iterator_tag@0@@Z 004608b0 f i idl.obj
 0002:0001c960       ??$_Uninit_move@PAUInfoItem@@PAU1@V?$allocator@UInfoItem@@@std@@U_Undefined_move_tag@3@@std@@YAPAUInfoItem@@PAU1@00AAV?$allocator@UInfoItem@@@0@U_Undefined_move_tag@0@U_Range_checked_iterator_tag@0@@Z 00460960 f i idl.obj
 0002:0001c9c0       ??$_Copy_backward_opt@PAUInfoItem@@PAU1@@std@@YAPAUInfoItem@@PAU1@00Urandom_access_iterator_tag@0@U_Nonscalar_ptr_iterator_tag@0@U_Range_checked_iterator_tag@0@@Z 004609c0 f i idl.obj
 0002:0001ca80       ??$_Construct@UInfoInimigo@@U1@@std@@YAXPAUInfoInimigo@@ABU1@@Z 00460a80 f i idl.obj
 0002:0001cb20       ??2@YAPAXIPAX@Z            00460b20 f i idl.obj
 0002:0001cb60       ??$_Construct@UInfoItem@@U1@@std@@YAXPAUInfoItem@@ABU1@@Z 00460b60 f i idl.obj
 0002:0001cc10       ??$_Iter_cat@PAUInfoInimigo@@@std@@YA?AUrandom_access_iterator_tag@0@ABQAUInfoInimigo@@@Z 00460c10 f i idl.obj
 0002:0001cc80       ??$_Debug_range2@PAUInfoInimigo@@@std@@YAXPAUInfoInimigo@@0PB_WIUrandom_access_iterator_tag@0@@Z 00460c80 f i idl.obj
 0002:0001cd20       ??$_Iter_cat@PAUInfoItem@@@std@@YA?AUrandom_access_iterator_tag@0@ABQAUInfoItem@@@Z 00460d20 f i idl.obj
 0002:0001cd90       ??$_Debug_range2@PAUInfoItem@@@std@@YAXPAUInfoItem@@0PB_WIUrandom_access_iterator_tag@0@@Z 00460d90 f i idl.obj
 0002:0001ce30       ??$_Copy_backward_opt@PAUInfoInimigo@@PAU1@Uforward_iterator_tag@std@@@std@@YAPAUInfoInimigo@@PAU1@00Uforward_iterator_tag@0@U_Nonscalar_ptr_iterator_tag@0@U_Range_checked_iterator_tag@0@@Z 00460e30 f i idl.obj
 0002:0001ced0       ??$_Copy_backward_opt@PAUInfoItem@@PAU1@Uforward_iterator_tag@std@@@std@@YAPAUInfoItem@@PAU1@00Uforward_iterator_tag@0@U_Nonscalar_ptr_iterator_tag@0@U_Range_checked_iterator_tag@0@@Z 00460ed0 f i idl.obj
 0002:0001cf70       ?doinvoke@StaticImplementation@PortableServer@@$R477PPPPPPPM@M@AEXPAVServerRequestBase@CORBA@@@Z 00460f70 f i idl.obj
 0002:0001cf90       ?invoke@POA_InterfaceServidor@@$4PPPPPPPM@A@AEXPAVStaticServerRequest@CORBA@@@Z 00460f90 f i idl.obj
 0002:0001cfa0       ?_narrow_helper@POA_InterfaceServidor@@$4PPPPPPPM@A@AEPAXPBD@Z 00460fa0 f i idl.obj
 0002:0001cfb0       ?_is_a@POA_InterfaceServidor@@$4PPPPPPPM@A@AEEPBD@Z 00460fb0 f i idl.obj
 0002:0001cfc0       ?_get_interface@POA_InterfaceServidor@@$4PPPPPPPM@A@AEPAVInterfaceDef@CORBA@@XZ 00460fc0 f i idl.obj
 0002:0001cfd0       ?make_request@StaticImplementation@PortableServer@@$R477PPPPPPPM@M@AEPAVServerRequestBase@CORBA@@PAVORBRequest@4@PAVObject@4@PAVORBInvokeRec@4@PAVObjectAdapter@4@PAVPrincipal@4@@Z 00460fd0 f i idl.obj
 0002:0001cff0       ?getInfoFase@InterfaceServidor_stub@@$4PPPPPPPM@A@AEPAUInfoFase@@XZ 00460ff0 f i idl.obj
 0002:0001d000       ?_make_stub@POA_InterfaceServidor@@$4PPPPPPPM@A@AEPAVObject@CORBA@@PAVPOA@PortableServer@@PAV23@@Z 00461000 f i idl.obj
 0002:0001d010       ?reagirTecla@InterfaceServidor_stub@@$4PPPPPPPM@A@AEXE@Z 00461010 f i idl.obj
 0002:0001d020       ?getInfoFase@InterfaceServidor_stub_clp@@$4PPPPPPPM@A@AEPAUInfoFase@@XZ 00461020 f i idl.obj
 0002:0001d030       ?reagirTecla@InterfaceServidor_stub_clp@@$4PPPPPPPM@A@AEXE@Z 00461030 f i idl.obj
 0002:0001d040       ??_EInterfaceServidor_stub@@$4PPPPPPPM@A@AEPAXI@Z 00461040 f i idl.obj
 0002:0001d050       ??_GInterfaceServidor_stub@@UAEPAXI@Z 00461050 f i idl.obj
 0002:0001d050       ??_EInterfaceServidor_stub@@UAEPAXI@Z 00461050 f i idl.obj
 0002:0001d0d0       ??_DInterfaceServidor_stub@@QAEXXZ 004610d0 f i idl.obj
 0002:0001d140       ?getInfoInicial@InterfaceServidor_stub@@$4PPPPPPPM@A@AEPAUInfoInicial@@XZ 00461140 f i idl.obj
 0002:0001d150       ?_primary_interface@POA_InterfaceServidor@@$4PPPPPPPM@A@AEPADABV?$SequenceTmpl@E$02@@PAVPOA@PortableServer@@@Z 00461150 f i idl.obj
 0002:0001d160       ??_EInterfaceServidor@@$4PPPPPPPM@A@AEPAXI@Z 00461160 f i idl.obj
 0002:0001d170       ??_EInterfaceServidor@@UAEPAXI@Z 00461170 f i idl.obj
 0002:0001d170       ??_GInterfaceServidor@@UAEPAXI@Z 00461170 f i idl.obj
 0002:0001d1f0       ??_DInterfaceServidor@@QAEXXZ 004611f0 f i idl.obj
 0002:0001d250       ??_EPOA_InterfaceServidor@@$4PPPPPPPM@A@AEPAXI@Z 00461250 f i idl.obj
 0002:0001d260       ??_GPOA_InterfaceServidor@@UAEPAXI@Z 00461260 f i idl.obj
 0002:0001d260       ??_EPOA_InterfaceServidor@@UAEPAXI@Z 00461260 f i idl.obj
 0002:0001d2e0       ??_DPOA_InterfaceServidor@@QAEXXZ 004612e0 f i idl.obj
 0002:0001d350       ??_EInterfaceServidor_stub_clp@@$4PPPPPPPM@A@AEPAXI@Z 00461350 f i idl.obj
 0002:0001d360       ??_EInterfaceServidor_stub_clp@@UAEPAXI@Z 00461360 f i idl.obj
 0002:0001d360       ??_GInterfaceServidor_stub_clp@@UAEPAXI@Z 00461360 f i idl.obj
 0002:0001d3e0       ??_DInterfaceServidor_stub_clp@@QAEXXZ 004613e0 f i idl.obj
 0002:0001d480       ?getInfoInicial@InterfaceServidor_stub_clp@@$4PPPPPPPM@A@AEPAUInfoInicial@@XZ 00461480 f i idl.obj
 0002:0001d490       ?_narrow_helper@InterfaceServidor@@$R477PPPPPPPM@M@AEPAXPBD@Z 00461490 f i idl.obj
 0002:0001d4b0       ?_narrow_helper@InterfaceServidor@@$4PPPPPPPM@A@AEPAXPBD@Z 004614b0 f i idl.obj
 0002:0001d4c0       ??0__tc_init_IDL@@QAE@XZ   004614c0 f i idl.obj
 0002:0001d7a0       ??0_Marshaller_InfoHeroi@@QAE@XZ 004617a0 f i idl.obj
 0002:0001d800       ??0_Marshaller_InfoInimigo@@QAE@XZ 00461800 f i idl.obj
 0002:0001d860       ??0_Marshaller_InfoItem@@QAE@XZ 00461860 f i idl.obj
 0002:0001d8c0       ??0_Marshaller_InfoFase@@QAE@XZ 004618c0 f i idl.obj
 0002:0001d920       ??0_Marshaller_InfoInicial@@QAE@XZ 00461920 f i idl.obj
 0002:0001d980       ??0_Marshaller_InterfaceServidor@@QAE@XZ 00461980 f i idl.obj
 0002:0001d9e0       ??0_Marshaller__seq_InfoInimigo@@QAE@XZ 004619e0 f i idl.obj
 0002:0001da40       ??0_Marshaller__seq_InfoItem@@QAE@XZ 00461a40 f i idl.obj
 0002:0001daa0       ??0StaticTypeInfo@CORBA@@QAE@XZ 00461aa0 f i idl.obj
 0002:0001daf0       ??_EStaticTypeInfo@CORBA@@MAEPAXI@Z 00461af0 f i idl.obj
 0002:0001daf0       ??_GStaticTypeInfo@CORBA@@MAEPAXI@Z 00461af0 f i idl.obj
 0002:0001db60       ??1__tc_init_IDL@@QAE@XZ   00461b60 f i idl.obj
 0002:0001dec0       ??0Inimigo@@QAE@HHHHH@Z    00461ec0 f   inimigo.obj
 0002:0001df70       ??0Item@@QAE@HH@Z          00461f70 f   item.obj
 0002:0001dfd0       ??0Jin@@QAE@HHHH@Z         00461fd0 f   jin.obj
 0002:0001e5c0       ?acao@Jin@@UAEXH@Z         004625c0 f   jin.obj
 0002:0001e8b0       ?update@Jin@@UAEXPAVCenario@@@Z 004628b0 f   jin.obj
 0002:0001ec30       ??0King@@QAE@HHHH@Z        00462c30 f   king.obj
 0002:0001f120       ?acao@King@@UAEXH@Z        00463120 f   king.obj
 0002:0001f410       ?update@King@@UAEXPAVCenario@@@Z 00463410 f   king.obj
 0002:0001f7a0       ?sair@@YAXXZ               004637a0 f   main.obj
 0002:0001f7f0       ?help@@YAXXZ               004637f0 f   main.obj
 0002:0001f980       ?menuInicial@@YAXXZ        00463980 f   main.obj
 0002:0001fc60       ?draw_opaque@Sprite@@QAEXPAV1@HH@Z 00463c60 f i main.obj
 0002:0001fd20       ?clearFrame@Sprite@@QAEXXZ 00463d20 f i main.obj
 0002:0001fdf0       ??0Menu@@QAE@HPAD@Z        00463df0 f i main.obj
 0002:0001ff70       ?inserirBotao@Menu@@QAEHPAD0HHP6AXXZ@Z 00463f70 f i main.obj
 0002:000200d0       ??0Botao@@QAE@PAD0HHP6AXXZ@Z 004640d0 f i main.obj
 0002:00020210       ?setSelecionado@Botao@@QAEX_N@Z 00464210 f i main.obj
 0002:00020280       ?drawMenu@Menu@@QAEXPAVSprite@@HH@Z 00464280 f i main.obj
 0002:00020330       ?drawBotao@Botao@@QAEXPAVSprite@@@Z 00464330 f i main.obj
 0002:000203a0       ?reagirTecla@Menu@@QAEXH@Z 004643a0 f i main.obj
 0002:000204c0       ?agir@Botao@@QAEXXZ        004644c0 f i main.obj
 0002:00020530       ??_GMenu@@QAEPAXI@Z        00464530 f i main.obj
 0002:000205a0       ??1Menu@@QAE@XZ            004645a0 f i main.obj
 0002:000206e0       ??_GBotao@@QAEPAXI@Z       004646e0 f i main.obj
 0002:00020750       ??1Botao@@QAE@XZ           00464750 f i main.obj
 0002:000207f0       ?init@@YAHXZ               004647f0 f   main.obj
 0002:00020a50       ?responderTeclas@@YAHXZ    00464a50 f   main.obj
 0002:00020bc0       ?increment_speed_counter@@YAXXZ 00464bc0 f   main.obj
 0002:00020c00       ?rodarFase@@YAHPAD@Z       00464c00 f   main.obj
 0002:00020d50       ?mostrarGameOver@@YAXXZ    00464d50 f   main.obj
 0002:00020e30       ?run@@YAXXZ                00464e30 f   main.obj
 0002:000210b0       ??_GControlador@@QAEPAXI@Z 004650b0 f i main.obj
 0002:00021120       ?finish@@YAXXZ             00465120 f   main.obj
 0002:00021180       ?_mangled_main@@YAHHQAPAD@Z 00465180 f   main.obj
 0002:000211e0       _WinMain@16                004651e0 f   main.obj
 0002:00021260       ??0Morfador@@QAE@HH@Z      00465260 f   morfador.obj
 0002:000214b0       ?settipoItem@Item@@QAEXH@Z 004654b0 f i morfador.obj
 0002:00021500       ?setSprite@Item@@QAEXPAVSprite@@@Z 00465500 f i morfador.obj
 0002:00021550       ?update@Morfador@@UAEXXZ   00465550 f   morfador.obj
 0002:00021680       ?setPx@Item@@QAEXH@Z       00465680 f i morfador.obj
 0002:000216d0       ?setPy@Item@@QAEXH@Z       004656d0 f i morfador.obj
 0002:00021720       ??0Morrigan@@QAE@HHHH@Z    00465720 f   morrigan.obj
 0002:00021cf0       ?acao@Morrigan@@UAEXH@Z    00465cf0 f   morrigan.obj
 0002:00022050       ?update@Morrigan@@UAEXPAVCenario@@@Z 00466050 f   morrigan.obj
 0002:000223e0       ??0Sprite@@QAE@PAUBITMAP@@@Z 004663e0 f   sprite.obj
 0002:00022490       ??1Sprite@@QAE@XZ          00466490 f   sprite.obj
 0002:00022550       ?setIntervalo@Sprite@@QAEXHH@Z 00466550 f   sprite.obj
 0002:000225a0       ?nextFrame@Sprite@@QAE_NXZ 004665a0 f   sprite.obj
 0002:00022640       ??0Vida@@QAE@HH@Z          00466640 f   vida.obj
 0002:000227a0       ?update@Vida@@UAEXXZ       004667a0 f   vida.obj
 0002:0002286a       ??1StaticTypeInfo@CORBA@@MAE@XZ 0046686a f   mico2312:mico2312.dll
 0002:00022870       ?copy@StaticTypeInfo@CORBA@@UBEPAXQAX@Z 00466870 f   mico2312:mico2312.dll
 0002:00022876       ?release@StaticTypeInfo@CORBA@@UBEXPAX@Z 00466876 f   mico2312:mico2312.dll
 0002:0002287c       ?typecode@StaticTypeInfo@CORBA@@UAEPAVTypeCode@2@XZ 0046687c f   mico2312:mico2312.dll
 0002:00022882       ?_stc_boolean@CORBA@@3PAVStaticTypeInfo@1@A 00466882 f   mico2312:mico2312.dll
 0002:00022888       ?_stc_octet@CORBA@@3PAVStaticTypeInfo@1@A 00466888 f   mico2312:mico2312.dll
 0002:0002288e       ?_stc_short@CORBA@@3PAVStaticTypeInfo@1@A 0046688e f   mico2312:mico2312.dll
 0002:00022894       ??4Object@CORBA@@QAEAAV01@ABV01@@Z 00466894 f   mico2312:mico2312.dll
 0002:0002289a       ?_is_a_remote@Object@CORBA@@QAEEPBD@Z 0046689a f   mico2312:mico2312.dll
 0002:000228a0       ?objid@IOR@CORBA@@QBEPBDXZ 004668a0 f   mico2312:mico2312.dll
 0002:000228a6       ?_ref@ServerlessObject@CORBA@@QAEXXZ 004668a6 f   mico2312:mico2312.dll
 0002:000228ac       ??1Object@CORBA@@UAE@XZ    004668ac f   mico2312:mico2312.dll
 0002:000228b2       ??0Object@CORBA@@QAE@PAVIOR@1@@Z 004668b2 f   mico2312:mico2312.dll
 0002:000228b8       ?_deref@ServerlessObject@CORBA@@QAEEXZ 004668b8 f   mico2312:mico2312.dll
 0002:000228be       ?_stc_Object@CORBA@@3PAVStaticTypeInfo@1@A 004668be f   mico2312:mico2312.dll
 0002:000228c4       ??0StubBase@PortableServer@@IAE@XZ 004668c4 f   mico2312:mico2312.dll
 0002:000228ca       ??0StubBase@PortableServer@@QAE@PAVPOA@1@@Z 004668ca f   mico2312:mico2312.dll
 0002:000228d0       ??0Object@CORBA@@QAE@ABV01@@Z 004668d0 f   mico2312:mico2312.dll
 0002:000228d6       ??1StaticAny@CORBA@@QAE@XZ 004668d6 f   mico2312:mico2312.dll
 0002:000228dc       ??1StaticRequest@CORBA@@UAE@XZ 004668dc f   mico2312:mico2312.dll
 0002:000228e2       ?_retn@StaticAny@CORBA@@QAEPAXXZ 004668e2 f   mico2312:mico2312.dll
 0002:000228e8       ?invoke@StaticRequest@CORBA@@QAEXXZ 004668e8 f   mico2312:mico2312.dll
 0002:000228ee       ??0StaticRequest@CORBA@@QAE@PAVObject@1@PBD@Z 004668ee f   mico2312:mico2312.dll
 0002:000228f4       ??1UNKNOWN@CORBA@@UAE@XZ   004668f4 f   mico2312:mico2312.dll
 0002:000228fa       ??0UNKNOWN@CORBA@@QAE@XZ   004668fa f   mico2312:mico2312.dll
 0002:00022900       ?exception@UnknownUserException@CORBA@@QAEAAVStaticAny@2@PAVStaticTypeInfo@2@@Z 00466900 f   mico2312:mico2312.dll
 0002:00022906       ?mico_assert@@YAXPBDH@Z    00466906 f   mico2312:mico2312.dll
 0002:0002290c       ?_downcast@UnknownUserException@CORBA@@SAPAV12@PAVException@2@@Z 0046690c f   mico2312:mico2312.dll
 0002:00022912       ?exception@StaticRequest@CORBA@@QAEPAVException@2@XZ 00466912 f   mico2312:mico2312.dll
 0002:00022918       ?_postinvoke@StubBase@PortableServer@@QAEXXZ 00466918 f   mico2312:mico2312.dll
 0002:0002291e       ?_preinvoke@StubBase@PortableServer@@QAEPAVServantBase@2@XZ 0046691e f   mico2312:mico2312.dll
 0002:00022924       ?add_in_arg@StaticRequest@CORBA@@QAEXPAVStaticAny@2@@Z 00466924 f   mico2312:mico2312.dll
 0002:0002292a       ?_default_POA@ServantBase@PortableServer@@UAEPAVPOA@2@XZ 0046692a f   mico2312:mico2312.dll
 0002:00022930       ?_non_existent@ServantBase@PortableServer@@UAEEXZ 00466930 f   mico2312:mico2312.dll
 0002:00022936       ?_get_component@ServantBase@PortableServer@@UAEPAVObject@CORBA@@XZ 00466936 f   mico2312:mico2312.dll
 0002:0002293c       ?_add_ref@ServantBase@PortableServer@@UAEXXZ 0046693c f   mico2312:mico2312.dll
 0002:00022942       ?_remove_ref@ServantBase@PortableServer@@UAEXXZ 00466942 f   mico2312:mico2312.dll
 0002:00022948       ?_check@ServantBase@PortableServer@@UAEXXZ 00466948 f   mico2312:mico2312.dll
 0002:0002294e       ?_this@ServantBase@PortableServer@@QAEPAVObject@CORBA@@XZ 0046694e f   mico2312:mico2312.dll
 0002:00022954       ??1OBJ_ADAPTER@CORBA@@UAE@XZ 00466954 f   mico2312:mico2312.dll
 0002:0002295a       ??0OBJ_ADAPTER@CORBA@@QAE@KW4completion_status@1@@Z 0046695a f   mico2312:mico2312.dll
 0002:00022960       ?_get_interface@ServantBase@PortableServer@@QAEPAVInterfaceDef@CORBA@@PBD@Z 00466960 f   mico2312:mico2312.dll
 0002:00022966       ?string_dup@CORBA@@YAPADPBD@Z 00466966 f   mico2312:mico2312.dll
 0002:0002296c       ??0UNKNOWN@CORBA@@QAE@KW4completion_status@1@@Z 0046696c f   mico2312:mico2312.dll
 0002:00022972       ?add_in_arg@StaticServerRequest@CORBA@@QAEXPAVStaticAny@2@@Z 00466972 f   mico2312:mico2312.dll
 0002:00022978       ?write_results@StaticServerRequest@CORBA@@QAEXXZ 00466978 f   mico2312:mico2312.dll
 0002:0002297e       ?value@StaticAny@CORBA@@QAEXPAVStaticTypeInfo@2@PBXE@Z 0046697e f   mico2312:mico2312.dll
 0002:00022984       ?read_args@StaticServerRequest@CORBA@@QAEEXZ 00466984 f   mico2312:mico2312.dll
 0002:0002298a       ?exception@Environment@CORBA@@QAEXPAVException@2@@Z 0046698a f   mico2312:mico2312.dll
 0002:00022990       ??0BAD_OPERATION@CORBA@@QAE@KW4completion_status@1@@Z 00466990 f   mico2312:mico2312.dll
 0002:00022996       ?doinvoke@StaticImplementation@PortableServer@@UAEXPAVServerRequestBase@CORBA@@@Z 00466996 f   mico2312:mico2312.dll
 0002:0002299c       ?make_request@StaticImplementation@PortableServer@@UAEPAVServerRequestBase@CORBA@@PAVORBRequest@4@PAVObject@4@PAVORBInvokeRec@4@PAVObjectAdapter@4@PAVPrincipal@4@@Z 0046699c f   mico2312:mico2312.dll
 0002:000229a2       ??1ServantBase@PortableServer@@UAE@XZ 004669a2 f   mico2312:mico2312.dll
 0002:000229a8       ??1StaticImplementation@PortableServer@@UAE@XZ 004669a8 f   mico2312:mico2312.dll
 0002:000229ae       ??1StubBase@PortableServer@@UAE@XZ 004669ae f   mico2312:mico2312.dll
 0002:000229b4       _allegro_message           004669b4 f   alleg:alleg42.dll
 0002:000229ba       _load_bmp                  004669ba f   alleg:alleg42.dll
 0002:000229c0       _load_tga                  004669c0 f   alleg:alleg42.dll
 0002:000229c6       _masked_blit               004669c6 f   alleg:alleg42.dll
 0002:000229cc       _load_midi                 004669cc f   alleg:alleg42.dll
 0002:000229d2       _load_sample               004669d2 f   alleg:alleg42.dll
 0002:000229d8       _destroy_sample            004669d8 f   alleg:alleg42.dll
 0002:000229de       _play_midi                 004669de f   alleg:alleg42.dll
 0002:000229e4       _getpixel                  004669e4 f   alleg:alleg42.dll
 0002:000229ea       _stop_midi                 004669ea f   alleg:alleg42.dll
 0002:000229f0       _play_sample               004669f0 f   alleg:alleg42.dll
 0002:000229f6       _draw_sprite               004669f6 f   alleg:alleg42.dll
 0002:000229fc       _rectfill                  004669fc f   alleg:alleg42.dll
 0002:00022a02       _makecol                   00466a02 f   alleg:alleg42.dll
 0002:00022a08       _draw_sprite_h_flip        00466a08 f   alleg:alleg42.dll
 0002:00022a0e       _destroy_bitmap            00466a0e f   alleg:alleg42.dll
 0002:00022a14       _rest                      00466a14 f   alleg:alleg42.dll
 0002:00022a1a       _blit                      00466a1a f   alleg:alleg42.dll
 0002:00022a20       _load_bitmap               00466a20 f   alleg:alleg42.dll
 0002:00022a26       _clear_bitmap              00466a26 f   alleg:alleg42.dll
 0002:00022a2c       _create_bitmap             00466a2c f   alleg:alleg42.dll
 0002:00022a32       _install_sound             00466a32 f   alleg:alleg42.dll
 0002:00022a38       _install_timer             00466a38 f   alleg:alleg42.dll
 0002:00022a3e       _install_keyboard          00466a3e f   alleg:alleg42.dll
 0002:00022a44       _set_gfx_mode              00466a44 f   alleg:alleg42.dll
 0002:00022a4a       _set_color_depth           00466a4a f   alleg:alleg42.dll
 0002:00022a50       _install_allegro           00466a50 f   alleg:alleg42.dll
 0002:00022a56       _vsync                     00466a56 f   alleg:alleg42.dll
 0002:00022a5c       _install_int_ex            00466a5c f   alleg:alleg42.dll
 0002:00022a62       _allegro_exit              00466a62 f   alleg:alleg42.dll
 0002:00022a68       __WinMain                  00466a68 f   alleg:alleg42.dll
 0002:00022a6e       _calc_spline               00466a6e f   alleg:alleg42.dll
 0002:00022a80       ??3@YAXPAX@Z               00466a80 f   LIBCMTD:dbgdel.obj
 0002:00022ba0       ??2@YAPAXI@Z               00466ba0 f   LIBCMTD:new.obj
 0002:00022c40       ??0bad_alloc@std@@QAE@XZ   00466c40 f i LIBCMTD:new.obj
 0002:00022c70       ?_JumpToContinuation@@YGXPAXPAUEHRegistrationNode@@@Z 00466c70 f   LIBCMTD:trnsctrl.obj
 0002:00022cb0       ?_CallMemberFunction0@@YGXPAX0@Z 00466cb0 f   LIBCMTD:trnsctrl.obj
 0002:00022cc0       ?_CallMemberFunction1@@YGXPAX00@Z 00466cc0 f   LIBCMTD:trnsctrl.obj
 0002:00022cd0       ?_CallMemberFunction2@@YGXPAX00H@Z 00466cd0 f   LIBCMTD:trnsctrl.obj
 0002:00022ce0       ?_UnwindNestedFrames@@YGXPAUEHRegistrationNode@@PAUEHExceptionRecord@@@Z 00466ce0 f   LIBCMTD:trnsctrl.obj
 0002:00022d50       ___CxxFrameHandler         00466d50 f   LIBCMTD:trnsctrl.obj
 0002:00022da0       ___CxxFrameHandler3        00466da0 f   LIBCMTD:trnsctrl.obj
 0002:00022df0       ___CxxFrameHandler2        00466df0 f   LIBCMTD:trnsctrl.obj
 0002:00022e40       ___CxxLongjmpUnwind@4      00466e40 f   LIBCMTD:trnsctrl.obj
 0002:00022e70       ?_CallCatchBlock2@@YAPAXPAUEHRegistrationNode@@PBU_s_FuncInfo@@PAXHK@Z 00466e70 f   LIBCMTD:trnsctrl.obj
 0002:00022f60       ?_CallSETranslator@@YAHPAUEHExceptionRecord@@PAUEHRegistrationNode@@PAX2PBU_s_FuncInfo@@H1@Z 00466f60 f   LIBCMTD:trnsctrl.obj
 0002:00023170       ?_GetRangeOfTrysToCheck@@YAPBU_s_TryBlockMapEntry@@PBU_s_FuncInfo@@HHPAI1@Z 00467170 f   LIBCMTD:trnsctrl.obj
 0002:00023220       __CreateFrameInfo          00467220 f   LIBCMTD:trnsctrl.obj
 0002:00023260       __IsExceptionObjectToBeDestroyed 00467260 f   LIBCMTD:trnsctrl.obj
 0002:000232a0       __FindAndUnlinkFrame       004672a0 f   LIBCMTD:trnsctrl.obj
 0002:00023310       @__security_check_cookie@4 00467310 f   LIBCMTD:secchk.obj
 0002:00023330       __RTC_CheckEsp             00467330 f   LIBCMTD:stack.obj
 0002:00023360       @_RTC_CheckStackVars@8     00467360 f   LIBCMTD:stack.obj
 0002:000233e0       @_RTC_AllocaHelper@12      004673e0 f   LIBCMTD:stack.obj
 0002:00023420       @_RTC_CheckStackVars2@12   00467420 f   LIBCMTD:stack.obj
 0002:00023530       __RTC_InitBase             00467530 f   LIBCMTD:init.obj
 0002:00023570       __RTC_Shutdown             00467570 f   LIBCMTD:init.obj
 0002:00023590       ?name@type_info@@QBEPBDPAU__type_info_node@@@Z 00467590 f   LIBCMTD:typinfo.obj
 0002:000235c0       ??1type_info@@UAE@XZ       004675c0 f   LIBCMTD:typinfo.obj
 0002:000235f0       ??_Etype_info@@UAEPAXI@Z   004675f0 f i LIBCMTD:typinfo.obj
 0002:000235f0       ??_Gtype_info@@UAEPAXI@Z   004675f0 f i LIBCMTD:typinfo.obj
 0002:00023630       ?_name_internal_method@type_info@@QBEPBDPAU__type_info_node@@@Z 00467630 f   LIBCMTD:typinfo.obj
 0002:00023660       ?_type_info_dtor_internal_method@type_info@@QAEXXZ 00467660 f   LIBCMTD:typinfo.obj
 0002:00023680       ??8type_info@@QBE_NABV0@@Z 00467680 f   LIBCMTD:typinfo.obj
 0002:000236c0       ??9type_info@@QBE_NABV0@@Z 004676c0 f   LIBCMTD:typinfo.obj
 0002:00023700       ?before@type_info@@QBEHABV1@@Z 00467700 f   LIBCMTD:typinfo.obj
 0002:00023740       ?raw_name@type_info@@QBEPBDXZ 00467740 f   LIBCMTD:typinfo.obj
 0002:00023760       ??0type_info@@AAE@ABV0@@Z  00467760 f   LIBCMTD:typinfo.obj
 0002:00023780       ??4type_info@@AAEAAV0@ABV0@@Z 00467780 f   LIBCMTD:typinfo.obj
 0002:000237a0       __purecall                 004677a0 f   LIBCMTD:purevirt.obj
 0002:000237f0       __set_purecall_handler     004677f0 f   LIBCMTD:purevirt.obj
 0002:00023840       __get_purecall_handler     00467840 f   LIBCMTD:purevirt.obj
 0002:00023860       _fclose                    00467860 f   LIBCMTD:fclose.obj
 0002:000239b0       __fclose_nolock            004679b0 f   LIBCMTD:fclose.obj
 0002:00023af0       _vfscanf                   00467af0 f   LIBCMTD:fscanf.obj
 0002:00023e60       _fscanf                    00467e60 f   LIBCMTD:fscanf.obj
 0002:00023ea0       __fscanf_l                 00467ea0 f   LIBCMTD:fscanf.obj
 0002:00023ee0       _fscanf_s                  00467ee0 f   LIBCMTD:fscanf.obj
 0002:00023f20       __fscanf_s_l               00467f20 f   LIBCMTD:fscanf.obj
 0002:00023f60       __fsopen                   00467f60 f   LIBCMTD:fopen.obj
 0002:000241f0       _fopen                     004681f0 f   LIBCMTD:fopen.obj
 0002:00024210       _fopen_s                   00468210 f   LIBCMTD:fopen.obj
 0002:000242e0       _srand                     004682e0 f   LIBCMTD:rand.obj
 0002:00024300       _rand                      00468300 f   LIBCMTD:rand.obj
 0002:00024350       __fpmath                   00468350 f   LIBCMTD:fpinit.obj
 0002:00024380       __fpclear                  00468380 f   LIBCMTD:fpinit.obj
 0002:00024390       __cfltcvt_init             00468390 f   LIBCMTD:fpinit.obj
 0002:00024420       ___setfflag                00468420 f   LIBCMTD:fpinit.obj
 0002:00024450       __ftol2_sse                00468450 f   LIBCMTD:ftol2.obj
 0002:00024459       __ftol2_pentium4           00468459 f   LIBCMTD:ftol2.obj
 0002:0002446c       __ftol2_sse_excpt          0046846c f   LIBCMTD:ftol2.obj
 0002:00024486       __ftol2                    00468486 f   LIBCMTD:ftol2.obj
 0002:00024530       _strcmp                    00468530 f   LIBCMTD:strcmp.obj
 0002:000245e0       __CxxThrowException@8      004685e0 f   LIBCMTD:throw.obj
 0002:00024650       ??0exception@std@@QAE@XZ   00468650 f   LIBCMTD:stdexcpt.obj
 0002:00024690       ??_Eexception@std@@UAEPAXI@Z 00468690 f i LIBCMTD:stdexcpt.obj
 0002:00024690       ??_Gexception@std@@UAEPAXI@Z 00468690 f i LIBCMTD:stdexcpt.obj
 0002:000246d0       ??0exception@std@@QAE@ABQBD@Z 004686d0 f   LIBCMTD:stdexcpt.obj
 0002:00024780       ??0exception@std@@QAE@ABQBDH@Z 00468780 f   LIBCMTD:stdexcpt.obj
 0002:000247c0       ??0exception@std@@QAE@ABV01@@Z 004687c0 f   LIBCMTD:stdexcpt.obj
 0002:00024890       ??4exception@std@@QAEAAV01@ABV01@@Z 00468890 f   LIBCMTD:stdexcpt.obj
 0002:00024960       ??1exception@std@@UAE@XZ   00468960 f   LIBCMTD:stdexcpt.obj
 0002:000249a0       ?what@exception@std@@UBEPBDXZ 004689a0 f   LIBCMTD:stdexcpt.obj
 0002:000249d0       ??0bad_cast@std@@QAE@PBD@Z 004689d0 f   LIBCMTD:stdexcpt.obj
 0002:00024a00       ??_Gbad_cast@std@@UAEPAXI@Z 00468a00 f i LIBCMTD:stdexcpt.obj
 0002:00024a00       ??_Ebad_cast@std@@UAEPAXI@Z 00468a00 f i LIBCMTD:stdexcpt.obj
 0002:00024a40       ??0bad_cast@std@@QAE@ABV01@@Z 00468a40 f   LIBCMTD:stdexcpt.obj
 0002:00024a70       ??1bad_cast@std@@UAE@XZ    00468a70 f   LIBCMTD:stdexcpt.obj
 0002:00024aa0       ??0bad_typeid@std@@QAE@PBD@Z 00468aa0 f   LIBCMTD:stdexcpt.obj
 0002:00024ad0       ??_Ebad_typeid@std@@UAEPAXI@Z 00468ad0 f i LIBCMTD:stdexcpt.obj
 0002:00024ad0       ??_Gbad_typeid@std@@UAEPAXI@Z 00468ad0 f i LIBCMTD:stdexcpt.obj
 0002:00024b10       ??0bad_typeid@std@@QAE@ABV01@@Z 00468b10 f   LIBCMTD:stdexcpt.obj
 0002:00024b40       ??1bad_typeid@std@@UAE@XZ  00468b40 f   LIBCMTD:stdexcpt.obj
 0002:00024b70       ??0__non_rtti_object@std@@QAE@PBD@Z 00468b70 f   LIBCMTD:stdexcpt.obj
 0002:00024ba0       ??_G__non_rtti_object@std@@UAEPAXI@Z 00468ba0 f i LIBCMTD:stdexcpt.obj
 0002:00024ba0       ??_E__non_rtti_object@std@@UAEPAXI@Z 00468ba0 f i LIBCMTD:stdexcpt.obj
 0002:00024be0       ??0__non_rtti_object@std@@QAE@ABV01@@Z 00468be0 f   LIBCMTD:stdexcpt.obj
 0002:00024c10       ??1__non_rtti_object@std@@UAE@XZ 00468c10 f   LIBCMTD:stdexcpt.obj
 0002:00024c40       _strlen                    00468c40 f   LIBCMTD:strlen.obj
 0002:00024cf0       __initp_misc_invarg        00468cf0 f   LIBCMTD:invarg.obj
 0002:00024d00       __invalid_parameter        00468d00 f   LIBCMTD:invarg.obj
 0002:00024d80       __invoke_watson            00468d80 f   LIBCMTD:invarg.obj
 0002:00024f00       __set_invalid_parameter_handler 00468f00 f   LIBCMTD:invarg.obj
 0002:00024f50       __get_invalid_parameter_handler 00468f50 f   LIBCMTD:invarg.obj
 0002:00024f90       ?_invalid_parameter@@YAXPBG00II@Z 00468f90 f   LIBCMTD:invarg.obj
 0002:00024fc0       ?_invoke_watson@@YAXPBG00II@Z 00468fc0 f   LIBCMTD:invarg.obj
 0002:00024ff0       __CrtSetReportHookW2       00468ff0 f   LIBCMTD:dbgrptw.obj
 0002:000253e0       __CrtDbgReportW            004693e0 f   LIBCMTD:dbgrptw.obj
 0002:00025430       __CrtDbgReportWV           00469430 f i LIBCMTD:dbgrptw.obj
 0002:00025840       __invoke_watson_if_error   00469840 f i LIBCMTD:dbgrptw.obj
 0002:00025880       __invoke_watson_if_oneof   00469880 f i LIBCMTD:dbgrptw.obj
 0002:000258d0       ___crtMessageWindowW       004698d0 f   LIBCMTD:dbgrptw.obj
 0002:00025dd0       ?_CrtDbgReportW@@YAHHPBGH00ZZ 00469dd0 f   LIBCMTD:dbgrptw.obj
 0002:00025e20       _malloc                    00469e20 f   LIBCMTD:dbgheap.obj
 0002:00025e50       __malloc_dbg               00469e50 f   LIBCMTD:dbgheap.obj
 0002:00025e90       __nh_malloc                00469e90 f   LIBCMTD:dbgheap.obj
 0002:00025ec0       __nh_malloc_dbg            00469ec0 f   LIBCMTD:dbgheap.obj
 0002:00025f40       __heap_alloc               00469f40 f   LIBCMTD:dbgheap.obj
 0002:00025f60       __heap_alloc_dbg           00469f60 f   LIBCMTD:dbgheap.obj
 0002:000263e0       _calloc                    0046a3e0 f   LIBCMTD:dbgheap.obj
 0002:00026410       __calloc_dbg               0046a410 f   LIBCMTD:dbgheap.obj
 0002:00026500       _realloc                   0046a500 f   LIBCMTD:dbgheap.obj
 0002:00026530       __recalloc                 0046a530 f   LIBCMTD:dbgheap.obj
 0002:00026600       __realloc_dbg              0046a600 f   LIBCMTD:dbgheap.obj
 0002:00026d40       __recalloc_dbg             0046ad40 f   LIBCMTD:dbgheap.obj
 0002:00026e20       __expand                   0046ae20 f   LIBCMTD:dbgheap.obj
 0002:00026e50       __expand_dbg               0046ae50 f   LIBCMTD:dbgheap.obj
 0002:00026fa0       _free                      0046afa0 f   LIBCMTD:dbgheap.obj
 0002:00026fc0       __free_nolock              0046afc0 f   LIBCMTD:dbgheap.obj
 0002:00026fe0       __free_dbg                 0046afe0 f   LIBCMTD:dbgheap.obj
 0002:00027080       __free_dbg_nolock          0046b080 f   LIBCMTD:dbgheap.obj
 0002:000275b0       __msize                    0046b5b0 f   LIBCMTD:dbgheap.obj
 0002:000275d0       __msize_dbg                0046b5d0 f   LIBCMTD:dbgheap.obj
 0002:00027830       __CrtSetBreakAlloc         0046b830 f   LIBCMTD:dbgheap.obj
 0002:00027860       __CrtSetDbgBlockType       0046b860 f   LIBCMTD:dbgheap.obj
 0002:00027980       __CrtSetAllocHook          0046b980 f   LIBCMTD:dbgheap.obj
 0002:000279b0       __CrtGetAllocHook          0046b9b0 f   LIBCMTD:dbgheap.obj
 0002:00027a20       __CrtCheckMemory           0046ba20 f   LIBCMTD:dbgheap.obj
 0002:00027e80       __CrtSetDbgFlag            0046be80 f   LIBCMTD:dbgheap.obj
 0002:00028020       __CrtDoForAllClientObjects 0046c020 f   LIBCMTD:dbgheap.obj
 0002:00028180       __CrtIsValidPointer        0046c180 f   LIBCMTD:dbgheap.obj
 0002:000281a0       __CrtIsValidHeapPointer    0046c1a0 f   LIBCMTD:dbgheap.obj
 0002:000282c0       __CrtIsMemoryBlock         0046c2c0 f   LIBCMTD:dbgheap.obj
 0002:00028490       __CrtReportBlockType       0046c490 f   LIBCMTD:dbgheap.obj
 0002:000284d0       __CrtSetDumpClient         0046c4d0 f   LIBCMTD:dbgheap.obj
 0002:00028500       __CrtGetDumpClient         0046c500 f   LIBCMTD:dbgheap.obj
 0002:00028510       __CrtMemCheckpoint         0046c510 f   LIBCMTD:dbgheap.obj
 0002:00028770       __CrtMemDifference         0046c770 f   LIBCMTD:dbgheap.obj
 0002:00028a10       __CrtMemDumpAllObjectsSince 0046ca10 f   LIBCMTD:dbgheap.obj
 0002:00028a60       ??0_LocaleUpdate@@QAE@PAUlocaleinfo_struct@@@Z 0046ca60 f i LIBCMTD:dbgheap.obj
 0002:00028b70       ??1_LocaleUpdate@@QAE@XZ   0046cb70 f i LIBCMTD:dbgheap.obj
 0002:00028bb0       ?GetLocaleT@_LocaleUpdate@@QAEPAUlocaleinfo_struct@@XZ 0046cbb0 f i LIBCMTD:dbgheap.obj
 0002:000291b0       __CrtDumpMemoryLeaks       0046d1b0 f   LIBCMTD:dbgheap.obj
 0002:00029230       __CrtMemDumpStatistics     0046d230 f   LIBCMTD:dbgheap.obj
 0002:00029380       __aligned_malloc           0046d380 f   LIBCMTD:dbgheap.obj
 0002:000293b0       __aligned_malloc_dbg       0046d3b0 f   LIBCMTD:dbgheap.obj
 0002:000293e0       __aligned_realloc          0046d3e0 f   LIBCMTD:dbgheap.obj
 0002:00029410       __aligned_recalloc         0046d410 f   LIBCMTD:dbgheap.obj
 0002:00029440       __aligned_realloc_dbg      0046d440 f   LIBCMTD:dbgheap.obj
 0002:00029470       __aligned_recalloc_dbg     0046d470 f   LIBCMTD:dbgheap.obj
 0002:000294a0       __aligned_offset_malloc    0046d4a0 f   LIBCMTD:dbgheap.obj
 0002:000294d0       __aligned_offset_malloc_dbg 0046d4d0 f   LIBCMTD:dbgheap.obj
 0002:000296d0       __aligned_offset_realloc   0046d6d0 f   LIBCMTD:dbgheap.obj
 0002:00029700       __aligned_offset_recalloc  0046d700 f   LIBCMTD:dbgheap.obj
 0002:00029730       __aligned_offset_realloc_dbg 0046d730 f   LIBCMTD:dbgheap.obj
 0002:00029ab0       __aligned_offset_recalloc_dbg 0046dab0 f   LIBCMTD:dbgheap.obj
 0002:00029b90       __aligned_free             0046db90 f   LIBCMTD:dbgheap.obj
 0002:00029bb0       __aligned_free_dbg         0046dbb0 f   LIBCMTD:dbgheap.obj
 0002:00029c80       __CrtSetDebugFillThreshold 0046dc80 f   LIBCMTD:dbgheap.obj
 0002:00029cb0       __CrtSetCheckCount         0046dcb0 f   LIBCMTD:dbgheap.obj
 0002:00029cd0       __CrtGetCheckCount         0046dcd0 f   LIBCMTD:dbgheap.obj
 0002:00029ce0       _memcpy_s                  0046dce0 f   LIBCMTD:memcpy_s.obj
 0002:00029ed0       _memmove_s                 0046ded0 f   LIBCMTD:memmove_s.obj
 0002:0002a080       __onexit                   0046e080 f   LIBCMTD:onexit.obj
 0002:0002a2c0       _atexit                    0046e2c0 f   LIBCMTD:onexit.obj
 0002:0002a2e0       ___onexitinit              0046e2e0 f   LIBCMTD:onexit.obj
 0002:0002a350       __cinit                    0046e350 f   LIBCMTD:crt0dat.obj
 0002:0002a420       _exit                      0046e420 f   LIBCMTD:crt0dat.obj
 0002:0002a440       __exit                     0046e440 f   LIBCMTD:crt0dat.obj
 0002:0002a460       __cexit                    0046e460 f   LIBCMTD:crt0dat.obj
 0002:0002a480       __c_exit                   0046e480 f   LIBCMTD:crt0dat.obj
 0002:0002a4a0       __amsg_exit                0046e4a0 f   LIBCMTD:crt0dat.obj
 0002:0002a4f0       ___freeCrtMemory           0046e4f0 f   LIBCMTD:crt0dat.obj
 0002:0002a830       ___crtCorExitProcess       0046e830 f   LIBCMTD:crt0dat.obj
 0002:0002a880       ___crtExitProcess          0046e880 f   LIBCMTD:crt0dat.obj
 0002:0002a8b0       __lockexit                 0046e8b0 f   LIBCMTD:crt0dat.obj
 0002:0002a8d0       __unlockexit               0046e8d0 f   LIBCMTD:crt0dat.obj
 0002:0002a8f0       __init_pointers            0046e8f0 f   LIBCMTD:crt0dat.obj
 0002:0002a9d0       __initterm_e               0046e9d0 f   LIBCMTD:crt0dat.obj
 0002:0002aa20       __get_osplatform           0046ea20 f   LIBCMTD:crt0dat.obj
 0002:0002ab50       __get_osver                0046eb50 f   LIBCMTD:crt0dat.obj
 0002:0002ac80       __get_winver               0046ec80 f   LIBCMTD:crt0dat.obj
 0002:0002adb0       __get_winmajor             0046edb0 f   LIBCMTD:crt0dat.obj
 0002:0002aee0       __get_winminor             0046eee0 f   LIBCMTD:crt0dat.obj
 0002:0002b010       __get_wpgmptr              0046f010 f   LIBCMTD:crt0dat.obj
 0002:0002b140       __get_pgmptr               0046f140 f   LIBCMTD:crt0dat.obj
 0002:0002b270       __dosmaperr                0046f270 f   LIBCMTD:dosmap.obj
 0002:0002b2a0       __get_errno_from_oserr     0046f2a0 f   LIBCMTD:dosmap.obj
 0002:0002b330       __set_errno                0046f330 f   LIBCMTD:dosmap.obj
 0002:0002b370       __get_errno                0046f370 f   LIBCMTD:dosmap.obj
 0002:0002b410       __set_doserrno             0046f410 f   LIBCMTD:dosmap.obj
 0002:0002b450       __get_doserrno             0046f450 f   LIBCMTD:dosmap.obj
 0002:0002b4f0       __errno                    0046f4f0 f   LIBCMTD:dosmap.obj
 0002:0002b520       ___doserrno                0046f520 f   LIBCMTD:dosmap.obj
 0002:0002b550       _WinMainCRTStartup         0046f550 f   LIBCMTD:wincrt0.obj
 0002:0002b980       __set_osplatform           0046f980 f i LIBCMTD:wincrt0.obj
 0002:0002b990       __set_osver                0046f990 f i LIBCMTD:wincrt0.obj
 0002:0002b9a0       __set_winver               0046f9a0 f i LIBCMTD:wincrt0.obj
 0002:0002b9b0       __set_winmajor             0046f9b0 f i LIBCMTD:wincrt0.obj
 0002:0002b9c0       __set_winminor             0046f9c0 f i LIBCMTD:wincrt0.obj
 0002:0002baa0       __mtinitlocks              0046faa0 f   LIBCMTD:mlock.obj
 0002:0002bb50       __mtdeletelocks            0046fb50 f   LIBCMTD:mlock.obj
 0002:0002bc40       __mtinitlocknum            0046fc40 f   LIBCMTD:mlock.obj
 0002:0002bde0       __lock                     0046fde0 f   LIBCMTD:mlock.obj
 0002:0002be30       __unlock                   0046fe30 f   LIBCMTD:mlock.obj
 0002:0002be50       __lockerr_exit             0046fe50 f   LIBCMTD:mlock.obj
 0002:0002be80       __except_handler4          0046fe80 f   LIBCMTD:chandler4.obj
 0002:0002c120       __initp_heap_handler       00470120 f   LIBCMTD:handler.obj
 0002:0002c130       ?_set_new_handler@@YAP6AHI@ZP6AHI@Z@Z 00470130 f   LIBCMTD:handler.obj
 0002:0002c190       ?_set_new_handler@@YAP6AHI@ZH@Z 00470190 f   LIBCMTD:handler.obj
 0002:0002c1d0       ?_query_new_handler@@YAP6AHI@ZXZ 004701d0 f   LIBCMTD:handler.obj
 0002:0002c1f0       __callnewh                 004701f0 f   LIBCMTD:handler.obj
 0002:0002c240       ___InternalCxxFrameHandler 00470240 f   LIBCMTD:frame.obj
 0002:0002c9b0       ??0bad_exception@std@@QAE@PBD@Z 004709b0 f i LIBCMTD:frame.obj
 0002:0002c9e0       ??1bad_exception@std@@UAE@XZ 004709e0 f i LIBCMTD:frame.obj
 0002:0002ca10       ??_Gbad_exception@std@@UAEPAXI@Z 00470a10 f i LIBCMTD:frame.obj
 0002:0002ca10       ??_Ebad_exception@std@@UAEPAXI@Z 00470a10 f i LIBCMTD:frame.obj
 0002:0002ca50       ??0bad_exception@std@@QAE@ABV01@@Z 00470a50 f i LIBCMTD:frame.obj
 0002:0002cc60       ___TypeMatch               00470c60 f   LIBCMTD:frame.obj
 0002:0002cd40       ___FrameUnwindFilter       00470d40 f   LIBCMTD:frame.obj
 0002:0002cdd0       ___FrameUnwindToState      00470dd0 f   LIBCMTD:frame.obj
 0002:0002d460       ___BuildCatchObjectHelper  00471460 f   LIBCMTD:frame.obj
 0002:0002d770       ___BuildCatchObject        00471770 f   LIBCMTD:frame.obj
 0002:0002d8c0       ___DestructExceptionObject 004718c0 f   LIBCMTD:frame.obj
 0002:0002d9a0       ___AdjustPointer           004719a0 f   LIBCMTD:frame.obj
 0002:0002da00       ?__uncaught_exception@@YA_NXZ 00471a00 f   LIBCMTD:frame.obj
 0002:0002da20       ___CxxExceptionFilter      00471a20 f   LIBCMTD:frame.obj
 0002:0002dc80       ___CxxRegisterExceptionObject 00471c80 f   LIBCMTD:frame.obj
 0002:0002de00       ___CxxDetectRethrow        00471e00 f   LIBCMTD:frame.obj
 0002:0002dea0       ___CxxUnregisterExceptionObject 00471ea0 f   LIBCMTD:frame.obj
 0002:0002e080       ___CxxQueryExceptionSize   00472080 f   LIBCMTD:frame.obj
 0002:0002e090       ___CxxCallUnwindDtor       00472090 f   LIBCMTD:frame.obj
 0002:0002e120       ___CxxCallUnwindDelDtor    00472120 f   LIBCMTD:frame.obj
 0002:0002e1c0       ___CxxCallUnwindStdDelDtor 004721c0 f   LIBCMTD:frame.obj
 0002:0002e250       ___CxxCallUnwindVecDtor    00472250 f   LIBCMTD:frame.obj
 0002:0002e4e0       ?_is_exception_typeof@@YAHABVtype_info@@PAU_EXCEPTION_POINTERS@@@Z 004724e0 f   LIBCMTD:frame.obj
 0002:0002e5f0       __CallSettingFrame@12      004725f0 f   LIBCMTD:lowhelpr.obj
 0002:0002e617       __NLG_Return               00472617     LIBCMTD:lowhelpr.obj
 0002:0002e650       __encode_pointer           00472650 f   LIBCMTD:tidtable.obj
 0002:0002e710       __encoded_null             00472710 f   LIBCMTD:tidtable.obj
 0002:0002e730       __decode_pointer           00472730 f   LIBCMTD:tidtable.obj
 0002:0002e7f0       ___crtTlsAlloc@4           004727f0 f   LIBCMTD:tidtable.obj
 0002:0002e800       ___fls_getvalue@4          00472800 f   LIBCMTD:tidtable.obj
 0002:0002e820       ___get_flsindex            00472820 f   LIBCMTD:tidtable.obj
 0002:0002e830       ___set_flsgetvalue         00472830 f   LIBCMTD:tidtable.obj
 0002:0002e870       ___fls_setvalue@8          00472870 f   LIBCMTD:tidtable.obj
 0002:0002e8a0       __mtinit                   004728a0 f   LIBCMTD:tidtable.obj
 0002:0002eb30       __mtterm                   00472b30 f   LIBCMTD:tidtable.obj
 0002:0002eba0       __initptd                  00472ba0 f   LIBCMTD:tidtable.obj
 0002:0002ed10       __getptd_noexit            00472d10 f   LIBCMTD:tidtable.obj
 0002:0002ee00       __getptd                   00472e00 f   LIBCMTD:tidtable.obj
 0002:0002ee30       __freefls@4                00472e30 f   LIBCMTD:tidtable.obj
 0002:0002f090       __freeptd                  00473090 f   LIBCMTD:tidtable.obj
 0002:0002f130       ___threadid                00473130 f   LIBCMTD:tidtable.obj
 0002:0002f140       ___threadhandle            00473140 f   LIBCMTD:tidtable.obj
 0002:0002f150       __initp_eh_hooks           00473150 f   LIBCMTD:hooks.obj
 0002:0002f170       ?terminate@@YAXXZ          00473170 f   LIBCMTD:hooks.obj
 0002:0002f210       ?unexpected@@YAXXZ         00473210 f   LIBCMTD:hooks.obj
 0002:0002f240       ?_inconsistency@@YAXXZ     00473240 f   LIBCMTD:hooks.obj
 0002:0002f2f0       ___report_gsfailure        004732f0 f   LIBCMTD:gs_report.obj
 0002:0002f440       _DebuggerKnownHandle       00473440 f   LIBCMTD:error.obj
 0002:0002f510       ?_RTC_Failure@@YAXPAXH@Z   00473510 f   LIBCMTD:error.obj
 0002:0002f910       ?_RTC_StackFailure@@YAXPAXPBD@Z 00473910 f   LIBCMTD:error.obj
 0002:0002fa80       ?_RTC_AllocaFailure@@YAXPAXPAU_RTC_ALLOCA_NODE@@H@Z 00473a80 f   LIBCMTD:error.obj
 0002:0002fc90       __RTC_UninitUse            00473c90 f   LIBCMTD:error.obj
 0002:0002fde0       __RTC_NumErrors            00473de0 f   LIBCMTD:userapi.obj
 0002:0002fdf0       __RTC_GetErrDesc           00473df0 f   LIBCMTD:userapi.obj
 0002:0002fe10       __RTC_SetErrorType         00473e10 f   LIBCMTD:userapi.obj
 0002:0002fe40       __RTC_SetErrorFunc         00473e40 f   LIBCMTD:userapi.obj
 0002:0002fe70       __RTC_SetErrorFuncW        00473e70 f   LIBCMTD:userapi.obj
 0002:0002fea0       ?_RTC_GetErrorFunc@@YAP6AHHPBDH00ZZPBX@Z 00473ea0 f   LIBCMTD:userapi.obj
 0002:0002feb0       ?_RTC_GetErrorFuncW@@YAP6AHHPB_WH00ZZPBX@Z 00473eb0 f   LIBCMTD:userapi.obj
 0002:0002fec0       __chkesp                   00473ec0 f   LIBCMTD:chkesp.obj
 0002:0002ff10       __CRT_RTC_INIT             00473f10 f   LIBCMTD:chkesp.obj
 0002:0002ff20       __CRT_RTC_INITW            00473f20 f   LIBCMTD:chkesp.obj
 0002:0002ff30       ?_Type_info_dtor@type_info@@CAXPAV1@@Z 00473f30 f   LIBCMTD:typname.obj
 0002:00030080       ?_Name_base@type_info@@CAPBDPBV1@PAU__type_info_node@@@Z 00474080 f   LIBCMTD:typname.obj
 0002:00030290       ?_Type_info_dtor_internal@type_info@@CAXPAV1@@Z 00474290 f   LIBCMTD:typname.obj
 0002:000303e0       ___unDNameHelper           004743e0 f   LIBCMTD:typname.obj
 0002:00030430       ?_Name_base_internal@type_info@@CAPBDPBV1@PAU__type_info_node@@@Z 00474430 f   LIBCMTD:typname.obj
 0002:00030630       ___clean_type_info_names_internal 00474630 f   LIBCMTD:typname.obj
 0002:00030710       _abort                     00474710 f   LIBCMTD:abort.obj
 0002:00030890       __set_abort_behavior       00474890 f   LIBCMTD:abort.obj
 0002:000308d0       __FF_MSGBANNER             004748d0 f   LIBCMTD:crt0msg.obj
 0002:00030930       __NMSG_WRITE               00474930 f   LIBCMTD:crt0msg.obj
 0002:00030c70       __GET_RTERRMSG             00474c70 f   LIBCMTD:crt0msg.obj
 0002:00030cc0       ___getlocaleinfo           00474cc0 f   LIBCMTD:inithelp.obj
 0002:00031010       __initp_misc_purevirt      00475010 f   LIBCMTD:inithelp.obj
 0002:00031020       ___iob_func                00475020 f   LIBCMTD:_file.obj
 0002:00031030       ___initstdio               00475030 f   LIBCMTD:_file.obj
 0002:000311d0       ___endstdio                004751d0 f   LIBCMTD:_file.obj
 0002:00031210       __lock_file                00475210 f   LIBCMTD:_file.obj
 0002:00031260       __lock_file2               00475260 f   LIBCMTD:_file.obj
 0002:000312a0       __unlock_file              004752a0 f   LIBCMTD:_file.obj
 0002:000312f0       __unlock_file2             004752f0 f   LIBCMTD:_file.obj
 0002:00031330       __close                    00475330 f   LIBCMTD:close.obj
 0002:000315c0       __close_nolock             004755c0 f   LIBCMTD:close.obj
 0002:000316c0       __fileno                   004756c0 f   LIBCMTD:fileno.obj
 0002:00031750       __freebuf                  00475750 f   LIBCMTD:_freebuf.obj
 0002:00031800       _fflush                    00475800 f   LIBCMTD:fflush.obj
 0002:000318c0       __fflush_nolock            004758c0 f   LIBCMTD:fflush.obj
 0002:00031930       __flush                    00475930 f   LIBCMTD:fflush.obj
 0002:00031a20       __flushall                 00475a20 f   LIBCMTD:fflush.obj
 0002:00031c50       __ioinit                   00475c50 f   LIBCMTD:ioinit.obj
 0002:000321f0       __ioterm                   004761f0 f   LIBCMTD:ioinit.obj
 0002:000322c0       __input_l                  004762c0 f   LIBCMTD:input.obj
 0002:00034120       __INTRN_LOCALE_CONV        00478120 f i LIBCMTD:input.obj
 0002:00034270       __input_s_l                00478270 f   LIBCMTD:inputs.obj
 0002:000366a0       __openfile                 0047a6a0 f   LIBCMTD:_open.obj
 0002:00036f60       __getstream                0047af60 f   LIBCMTD:stream.obj
 0002:0003721c       __local_unwind4            0047b21c f   LIBCMTD:exsup4.obj
 0002:000372f2       __seh_longjmp_unwind4@4    0047b2f2 f   LIBCMTD:exsup4.obj
 0002:0003730e       @_EH4_CallFilterFunc@8     0047b30e f   LIBCMTD:exsup4.obj
 0002:00037325       @_EH4_TransferToHandler@8  0047b325 f   LIBCMTD:exsup4.obj
 0002:0003733e       @_EH4_GlobalUnwind@4       0047b33e f   LIBCMTD:exsup4.obj
 0002:00037358       @_EH4_LocalUnwind@16       0047b358 f   LIBCMTD:exsup4.obj
 0002:000373d0       __setdefaultprecision      0047b3d0 f   LIBCMTD:fp8.obj
 0002:00037420       __ms_p5_test_fdiv          0047b420 f   LIBCMTD:testfdiv.obj
 0002:00037480       __ms_p5_mp_test_fdiv       0047b480 f   LIBCMTD:testfdiv.obj
 0002:000374e0       __forcdecpt                0047b4e0 f   LIBCMTD:cvt.obj
 0002:00037500       __forcdecpt_l              0047b500 f   LIBCMTD:cvt.obj
 0002:000375f0       __cropzeros                0047b5f0 f   LIBCMTD:cvt.obj
 0002:00037610       __cropzeros_l              0047b610 f   LIBCMTD:cvt.obj
 0002:00037760       __positive                 0047b760 f   LIBCMTD:cvt.obj
 0002:000377a0       __fassign_l                0047b7a0 f   LIBCMTD:cvt.obj
 0002:00037810       __fassign                  0047b810 f   LIBCMTD:cvt.obj
 0002:00037840       __cftoe_l                  0047b840 f   LIBCMTD:cvt.obj
 0002:00037ee0       __cftoe                    0047bee0 f   LIBCMTD:cvt.obj
 0002:00037f10       __cftoa_l                  0047bf10 f   LIBCMTD:cvt.obj
 0002:000388d0       ?strrchr@@YAPADPADH@Z      0047c8d0 f i LIBCMTD:cvt.obj
 0002:000388f0       __cftoa                    0047c8f0 f   LIBCMTD:cvt.obj
 0002:00038920       __cftof_l                  0047c920 f   LIBCMTD:cvt.obj
 0002:00038e20       __cftof                    0047ce20 f   LIBCMTD:cvt.obj
 0002:00038e50       __cftog_l                  0047ce50 f   LIBCMTD:cvt.obj
 0002:00039100       __cftog                    0047d100 f   LIBCMTD:cvt.obj
 0002:00039130       __cfltcvt_l                0047d130 f   LIBCMTD:cvt.obj
 0002:00039220       __cfltcvt                  0047d220 f   LIBCMTD:cvt.obj
 0002:00039290       __initp_misc_cfltcvt_tab   0047d290 f   LIBCMTD:cmiscdat.obj
 0002:000392e0       __sse2_mathfcns_init       0047d2e0 f   LIBCMTD:mathfcns.obj
 0002:00039310       __set_SSE2_enable          0047d310 f   LIBCMTD:mathfcns.obj
 0002:00039340       ?__CxxUnhandledExceptionFilter@@YGJPAU_EXCEPTION_POINTERS@@@Z 0047d340 f   LIBCMTD:unhandld.obj
 0002:00039410       ?__CxxSetUnhandledExceptionFilter@@YAHXZ 0047d410 f   LIBCMTD:unhandld.obj
 0002:00039450       ?__CxxRestoreUnhandledExceptionFilter@@YAXXZ 0047d450 f   LIBCMTD:unhandld.obj
 0002:000394a0       _strcpy_s                  0047d4a0 f   LIBCMTD:strcpy_s.obj
 0002:00039830       __CrtDefaultAllocHook      0047d830 f   LIBCMTD:dbghook.obj
 0002:00039840       __crt_debugger_hook        0047d840 f   LIBCMTD:dbghook.obj
 0002:00039860       _memset                    0047d860 f   LIBCMTD:memset.obj
 0002:00039900       __CrtDbgBreak              0047d900 f   LIBCMTD:dbgrptt.obj
 0002:00039910       __CrtSetReportMode         0047d910 f   LIBCMTD:dbgrptt.obj
 0002:00039aa0       __CrtSetReportFile         0047daa0 f   LIBCMTD:dbgrptt.obj
 0002:00039bd0       __CrtSetReportHook         0047dbd0 f   LIBCMTD:dbgrptt.obj
 0002:00039c00       __CrtGetReportHook         0047dc00 f   LIBCMTD:dbgrptt.obj
 0002:00039c10       __VCrtDbgReportA           0047dc10 f   LIBCMTD:dbgrptt.obj
 0002:0003a620       __VCrtDbgReportW           0047e620 f   LIBCMTD:dbgrptt.obj
 0002:0003b170       _strcat_s                  0047f170 f   LIBCMTD:strcat_s.obj
 0002:0003b640       __wcstombs_l_helper        0047f640 f   LIBCMTD:wcstombs.obj
 0002:0003bce0       __wcstombs_l               0047fce0 f   LIBCMTD:wcstombs.obj
 0002:0003bd10       _wcstombs                  0047fd10 f   LIBCMTD:wcstombs.obj
 0002:0003bd40       __wcstombs_s_l             0047fd40 f   LIBCMTD:wcstombs.obj
 0002:0003c0a0       _wcstombs_s                004800a0 f   LIBCMTD:wcstombs.obj
 0002:0003c0d0       __alloca_probe             004800d0     LIBCMTD:chkstk.obj
 0002:0003c0d0       __chkstk                   004800d0 f   LIBCMTD:chkstk.obj
 0002:0003c110       __initp_misc_winsig        00480110 f   LIBCMTD:winsig.obj
 0002:0003c140       _signal                    00480140 f   LIBCMTD:winsig.obj
 0002:0003c710       _raise                     00480710 f   LIBCMTD:winsig.obj
 0002:0003cb50       ___get_sigabrt             00480b50 f   LIBCMTD:winsig.obj
 0002:0003cb70       ___fpecode                 00480b70 f   LIBCMTD:winsig.obj
 0002:0003cb80       ___pxcptinfoptrs           00480b80 f   LIBCMTD:winsig.obj
 0002:0003cb90       ___crtMessageBoxW          00480b90 f   LIBCMTD:crtmboxw.obj
 0002:0003ce90       __swprintf                 00480e90 f   LIBCMTD:swprintf.obj
 0002:0003d0c0       ___swprintf_l              004810c0 f   LIBCMTD:swprintf.obj
 0002:0003d0f0       _swprintf_s                004810f0 f   LIBCMTD:swprintf.obj
 0002:0003d130       __snwprintf_s              00481130 f   LIBCMTD:swprintf.obj
 0002:0003d170       __swprintf_p               00481170 f   LIBCMTD:swprintf.obj
 0002:0003d1b0       __swprintf_s_l             004811b0 f   LIBCMTD:swprintf.obj
 0002:0003d1f0       __snwprintf_s_l            004811f0 f   LIBCMTD:swprintf.obj
 0002:0003d230       __swprintf_p_l             00481230 f   LIBCMTD:swprintf.obj
 0002:0003d270       __scwprintf                00481270 f   LIBCMTD:swprintf.obj
 0002:0003d2a0       __scwprintf_p              004812a0 f   LIBCMTD:swprintf.obj
 0002:0003d2d0       __scwprintf_l              004812d0 f   LIBCMTD:swprintf.obj
 0002:0003d300       __scwprintf_p_l            00481300 f   LIBCMTD:swprintf.obj
 0002:0003d330       _wcsncpy_s                 00481330 f   LIBCMTD:wcsncpy_s.obj
 0002:0003d830       _wcslen                    00481830 f   LIBCMTD:wcslen.obj
 0002:0003d870       _wcscpy_s                  00481870 f   LIBCMTD:wcscpy_s.obj
 0002:0003dc10       _V6_HeapAlloc              00481c10 f   LIBCMTD:malloc.obj
 0002:0003dcd0       __malloc_base              00481cd0 f   LIBCMTD:malloc.obj
 0002:0003dd80       __heap_alloc_base          00481d80 f i LIBCMTD:malloc.obj
 0002:0003de60       __CrtSetReportHook2        00481e60 f   LIBCMTD:dbgrpt.obj
 0002:0003e250       __CrtDbgReport             00482250 f   LIBCMTD:dbgrpt.obj
 0002:0003e2a0       __CrtDbgReportV            004822a0 f i LIBCMTD:dbgrpt.obj
 0002:0003e2d0       ___crtMessageWindowA       004822d0 f   LIBCMTD:dbgrpt.obj
 0002:0003e7d0       __expand_base              004827d0 f   LIBCMTD:expand.obj
 0002:0003ea10       __realloc_base             00482a10 f   LIBCMTD:realloc.obj
 0002:0003ee90       __recalloc_base            00482e90 f   LIBCMTD:realloc.obj
 0002:0003ef60       __free_base                00482f60 f   LIBCMTD:free.obj
 0002:0003f0d0       __heapchk                  004830d0 f   LIBCMTD:heapchk.obj
 0002:0003f1d0       __heapset                  004831d0 f   LIBCMTD:heapchk.obj
 0002:0003f1e0       ___heap_select             004831e0 f   LIBCMTD:heapinit.obj
 0002:0003f290       __heap_init                00483290 f   LIBCMTD:heapinit.obj
 0002:0003f320       __heap_term                00483320 f   LIBCMTD:heapinit.obj
 0002:0003f3e0       __get_heap_handle          004833e0 f   LIBCMTD:heapinit.obj
 0002:0003f430       __get_sbh_threshold        00483430 f   LIBCMTD:sbheap.obj
 0002:0003f490       __set_sbh_threshold        00483490 f   LIBCMTD:sbheap.obj
 0002:0003f680       __set_amblksiz             00483680 f   LIBCMTD:sbheap.obj
 0002:0003f7c0       __get_amblksiz             004837c0 f   LIBCMTD:sbheap.obj
 0002:0003f8f0       ___sbh_heap_init           004838f0 f   LIBCMTD:sbheap.obj
 0002:0003f970       ___sbh_find_block          00483970 f   LIBCMTD:sbheap.obj
 0002:0003f9e0       ___sbh_verify_block        004839e0 f   LIBCMTD:sbheap.obj
 0002:0003fa50       ___sbh_free_block          00483a50 f   LIBCMTD:sbheap.obj
 0002:00040180       ___sbh_alloc_block         00484180 f   LIBCMTD:sbheap.obj
 0002:000407e0       ___sbh_alloc_new_region    004847e0 f   LIBCMTD:sbheap.obj
 0002:00040930       ___sbh_alloc_new_group     00484930 f   LIBCMTD:sbheap.obj
 0002:00040ba0       ___sbh_resize_block        00484ba0 f   LIBCMTD:sbheap.obj
 0002:000412e0       ___sbh_heapmin             004852e0 f   LIBCMTD:sbheap.obj
 0002:00041460       ___sbh_heap_check          00485460 f   LIBCMTD:sbheap.obj
 0002:00041a80       ___updatetmbcinfo          00485a80 f   LIBCMTD:mbctype.obj
 0002:00041bd0       __setmbcp                  00485bd0 f   LIBCMTD:mbctype.obj
 0002:00042060       __setmbcp_nolock           00486060 f   LIBCMTD:mbctype.obj
 0002:00042a00       __getmbcp                  00486a00 f   LIBCMTD:mbctype.obj
 0002:00042a90       ___initmbctable            00486a90 f   LIBCMTD:mbctype.obj
 0002:00042ac0       ____setlc_active_func      00486ac0 f   LIBCMTD:setlocal.obj
 0002:00042ad0       ____unguarded_readlc_active_add_func 00486ad0 f   LIBCMTD:setlocal.obj
 0002:00042ae0       ___freetlocinfo            00486ae0 f   LIBCMTD:setlocal.obj
 0002:00042e80       ___addlocaleref            00486e80 f   LIBCMTD:setlocal.obj
 0002:00042ff0       ___removelocaleref         00486ff0 f   LIBCMTD:setlocal.obj
 0002:00043170       ___updatetlocinfo          00487170 f   LIBCMTD:setlocal.obj
 0002:00043310       __configthreadlocale       00487310 f   LIBCMTD:setlocal.obj
 0002:00043460       __locterm                  00487460 f   LIBCMTD:setlocal.obj
 0002:00043520       __free_locale              00487520 f   LIBCMTD:setlocal.obj
 0002:00043680       ___free_locale             00487680 f   LIBCMTD:setlocal.obj
 0002:000436a0       __create_locale            004876a0 f   LIBCMTD:setlocal.obj
 0002:00043940       ___create_locale           00487940 f   LIBCMTD:setlocal.obj
 0002:00043960       __get_current_locale       00487960 f   LIBCMTD:setlocal.obj
 0002:00043a90       ___get_current_locale      00487a90 f   LIBCMTD:setlocal.obj
 0002:00043aa0       _setlocale                 00487aa0 f   LIBCMTD:setlocal.obj
 0002:00044d50       __expandlocale             00488d50 f   LIBCMTD:setlocal.obj
 0002:000450a0       ___init_dummy              004890a0 f   LIBCMTD:setlocal.obj
 0002:000450b0       __strcats                  004890b0 f   LIBCMTD:setlocal.obj
 0002:00045140       ___lc_strtolc              00489140 f   LIBCMTD:setlocal.obj
 0002:000453c0       ___lc_lctostr              004893c0 f   LIBCMTD:setlocal.obj
 0002:00045480       _sprintf                   00489480 f   LIBCMTD:sprintf.obj
 0002:00045660       __sprintf_l                00489660 f   LIBCMTD:sprintf.obj
 0002:00045690       _sprintf_s                 00489690 f   LIBCMTD:sprintf.obj
 0002:000456d0       __sprintf_s_l              004896d0 f   LIBCMTD:sprintf.obj
 0002:00045710       __snprintf_s               00489710 f   LIBCMTD:sprintf.obj
 0002:00045750       __snprintf_s_l             00489750 f   LIBCMTD:sprintf.obj
 0002:00045790       __sprintf_p                00489790 f   LIBCMTD:sprintf.obj
 0002:000457d0       __sprintf_p_l              004897d0 f   LIBCMTD:sprintf.obj
 0002:00045810       __scprintf                 00489810 f   LIBCMTD:sprintf.obj
 0002:00045840       __scprintf_p               00489840 f   LIBCMTD:sprintf.obj
 0002:00045870       __scprintf_l               00489870 f   LIBCMTD:sprintf.obj
 0002:000458a0       __scprintf_p_l             004898a0 f   LIBCMTD:sprintf.obj
 0002:000458d0       __chvalidator              004898d0 f   LIBCMTD:isctype.obj
 0002:00045930       __chvalidator_l            00489930 f   LIBCMTD:isctype.obj
 0002:00045a10       __isctype_l                00489a10 f   LIBCMTD:isctype.obj
 0002:00045b70       __isctype                  00489b70 f   LIBCMTD:isctype.obj
 0002:00045bc0       _memcpy                    00489bc0 f   LIBCMTD:memcpy.obj
 0002:00046000       _memmove                   0048a000 f   LIBCMTD:memmove.obj
 0002:00046440       __RTC_Initialize           0048a440 f   LIBCMTD:initsect.obj
 0002:00046470       __RTC_Terminate            0048a470 f   LIBCMTD:initsect.obj
 0002:000464a0       __ValidateImageBase        0048a4a0 f   LIBCMTD:pesect.obj
 0002:00046520       __FindPESection            0048a520 f   LIBCMTD:pesect.obj
 0002:000465b0       __IsNonwritableInCurrentImage 0048a5b0 f   LIBCMTD:pesect.obj
 0002:00046710       __initp_misc_winxfltr      0048a710 f   LIBCMTD:winxfltr.obj
 0002:00046720       ___CppXcptFilter           0048a720 f   LIBCMTD:winxfltr.obj
 0002:00046750       __XcptFilter               0048a750 f   LIBCMTD:winxfltr.obj
 0002:00046a10       __initp_misc_rand_s        0048aa10 f   LIBCMTD:rand_s.obj
 0002:00046a20       _rand_s                    0048aa20 f   LIBCMTD:rand_s.obj
 0002:00046cc0       __initp_misc_initcrit      0048acc0 f   LIBCMTD:initcrit.obj
 0002:00046cd0       ___crtInitCritSecAndSpinCount 0048acd0 f   LIBCMTD:initcrit.obj
 0002:00046e90       ___security_init_cookie    0048ae90 f   LIBCMTD:gs_support.obj
 0002:00046ff0       __wincmdln                 0048aff0 f   LIBCMTD:wincmdln.obj
 0002:000470f0       __setenvp                  0048b0f0 f   LIBCMTD:stdenvp.obj
 0002:000472f0       __setargv                  0048b2f0 f   LIBCMTD:stdargv.obj
 0002:00047450       __set_pgmptr               0048b450 f i LIBCMTD:stdargv.obj
 0002:000478a0       ___crtGetEnvironmentStringsA 0048b8a0 f   LIBCMTD:a_env.obj
 0002:00047b40       ?_ValidateRead@@YAHPBXI@Z  0048bb40 f   LIBCMTD:validate.obj
 0002:00047b70       ?_ValidateWrite@@YAHPAXI@Z 0048bb70 f   LIBCMTD:validate.obj
 0002:00047ba0       ?_ValidateExecute@@YAHP6GHXZ@Z 0048bba0 f   LIBCMTD:validate.obj
 0002:00047bc8       __global_unwind2           0048bbc8 f   LIBCMTD:exsup.obj
 0002:00047c2d       __local_unwind2            0048bc2d f   LIBCMTD:exsup.obj
 0002:00047cb1       __abnormal_termination     0048bcb1 f   LIBCMTD:exsup.obj
 0002:00047cd4       __NLG_Notify1              0048bcd4 f   LIBCMTD:exsup.obj
 0002:00047cdd       __NLG_Notify               0048bcdd f   LIBCMTD:exsup.obj
 0002:00047cf4       __NLG_Dispatch2            0048bcf4     LIBCMTD:exsup.obj
 0002:00047cf4       __NLG_Dispatch             0048bcf4     LIBCMTD:exsup.obj
 0002:00047cfc       __NLG_Call                 0048bcfc f   LIBCMTD:exsup.obj
 0002:00047cfe       __NLG_Return2              0048bcfe     LIBCMTD:exsup.obj
 0002:00047d50       ?_RTC_GetSrcLine@@YAHPAEPA_WKPAH1K@Z 0048bd50 f   LIBCMTD:pdblkup.obj
 0002:00048300       ___unDName                 0048c300 f   LIBCMTD:undname.obj
 0002:00048410       ?Constructor@HeapManager@@QAEXP6APAXI@ZP6AXPAX@Z@Z 0048c410 f i LIBCMTD:undname.obj
 0002:00048460       ?Destructor@HeapManager@@QAEXXZ 0048c460 f i LIBCMTD:undname.obj
 0002:000484c0       ___unDNameEx               0048c4c0 f   LIBCMTD:undname.obj
 0002:000485d0       ??0UnDecorator@@QAE@PADPBDHP6APADJ@ZK@Z 0048c5d0 f i LIBCMTD:undname.obj
 0002:00048690       ??BUnDecorator@@QAEPADXZ   0048c690 f i LIBCMTD:undname.obj
 0002:00048950       ?dbGetString@DName@@QBEPADXZ 0048c950 f   LIBCMTD:undname.obj
 0002:00048980       ?getDecoratedName@UnDecorator@@CA?AVDName@@XZ 0048c980 f   LIBCMTD:undname.obj
 0002:00048d50       ?getSymbolName@UnDecorator@@CA?AVDName@@XZ 0048cd50 f i LIBCMTD:undname.obj
 0002:00048de0       ?getZName@UnDecorator@@CA?AVDName@@_N@Z 0048cde0 f   LIBCMTD:undname.obj
 0002:000490e0       ?getOperatorName@UnDecorator@@CA?AVDName@@_NPA_N@Z 0048d0e0 f i LIBCMTD:undname.obj
 0002:00049c40       ?getStringEncoding@UnDecorator@@CA?AVDName@@PADH@Z 0048dc40 f   LIBCMTD:undname.obj
 0002:00049d80       ?getScope@UnDecorator@@CA?AVDName@@XZ 0048dd80 f   LIBCMTD:undname.obj
 0002:0004a250       ?getSignedDimension@UnDecorator@@CA?AVDName@@XZ 0048e250 f   LIBCMTD:undname.obj
 0002:0004a2f0       ?getDimension@UnDecorator@@CA?AVDName@@_N@Z 0048e2f0 f   LIBCMTD:undname.obj
 0002:0004a650       ?getNumberOfDimensions@UnDecorator@@CAHXZ 0048e650 f   LIBCMTD:undname.obj
 0002:0004a790       ?getTemplateName@UnDecorator@@CA?AVDName@@_N@Z 0048e790 f   LIBCMTD:undname.obj
 0002:0004a9f0       ?getTemplateArgumentList@UnDecorator@@CA?AVDName@@XZ 0048e9f0 f   LIBCMTD:undname.obj
 0002:0004ad10       ?getTemplateConstant@UnDecorator@@CA?AVDName@@XZ 0048ed10 f   LIBCMTD:undname.obj
 0002:0004b2c0       ?composeDeclaration@UnDecorator@@CA?AVDName@@ABV2@@Z 0048f2c0 f i LIBCMTD:undname.obj
 0002:0004ce30       ?getTypeEncoding@UnDecorator@@CAHXZ 00490e30 f i LIBCMTD:undname.obj
 0002:0004da20       ?getBasedType@UnDecorator@@CA?AVDName@@XZ 00491a20 f   LIBCMTD:undname.obj
 0002:0004db10       ?getScopedName@UnDecorator@@CA?AVDName@@XZ 00491b10 f   LIBCMTD:undname.obj
 0002:0004dc70       ?getCallingConvention@UnDecorator@@CA?AVDName@@XZ 00491c70 f   LIBCMTD:undname.obj
 0002:0004de20       ?getReturnType@UnDecorator@@CA?AVDName@@PAV2@@Z 00491e20 f   LIBCMTD:undname.obj
 0002:0004de80       ?getDataType@UnDecorator@@CA?AVDName@@PAV2@@Z 00491e80 f   LIBCMTD:undname.obj
 0002:0004dfd0       ?getPrimaryDataType@UnDecorator@@CA?AVDName@@ABV2@@Z 00491fd0 f   LIBCMTD:undname.obj
 0002:0004e320       ?getArgumentTypes@UnDecorator@@CA?AVDName@@XZ 00492320 f   LIBCMTD:undname.obj
 0002:0004e4d0       ?getArgumentList@UnDecorator@@CA?AVDName@@XZ 004924d0 f   LIBCMTD:undname.obj
 0002:0004e650       ?getThrowTypes@UnDecorator@@CA?AVDName@@XZ 00492650 f   LIBCMTD:undname.obj
 0002:0004e720       ?getBasicDataType@UnDecorator@@CA?AVDName@@ABV2@@Z 00492720 f   LIBCMTD:undname.obj
 0002:0004edc0       ?getECSUDataType@UnDecorator@@CA?AVDName@@XZ 00492dc0 f   LIBCMTD:undname.obj
 0002:0004f000       ?getECSUName@UnDecorator@@CA?AVDName@@XZ 00493000 f i LIBCMTD:undname.obj
 0002:0004f020       ?getEnumType@UnDecorator@@CA?AVDName@@XZ 00493020 f i LIBCMTD:undname.obj
 0002:0004f1c0       ?getFunctionIndirectType@UnDecorator@@CA?AVDName@@ABV2@@Z 004931c0 f   LIBCMTD:undname.obj
 0002:0004f710       ?getPtrRefType@UnDecorator@@CA?AVDName@@ABV2@0D@Z 00493710 f   LIBCMTD:undname.obj
 0002:0004f8c0       ?getExtendedDataIndirectType@UnDecorator@@CA?AVDName@@AADAA_NH@Z 004938c0 f   LIBCMTD:undname.obj
 0002:0004fac0       ?getDataIndirectType@UnDecorator@@CA?AVDName@@ABV2@D0H@Z 00493ac0 f   LIBCMTD:undname.obj
 0002:00050370       ?getPtrRefDataType@UnDecorator@@CA?AVDName@@ABV2@H@Z 00494370 f i LIBCMTD:undname.obj
 0002:00050500       ?getArrayType@UnDecorator@@CA?AVDName@@ABV2@@Z 00494500 f i LIBCMTD:undname.obj
 0002:000507a0       ?getLexicalFrame@UnDecorator@@CA?AVDName@@XZ 004947a0 f i LIBCMTD:undname.obj
 0002:000507f0       ?getThisType@UnDecorator@@CA?AVDName@@XZ 004947f0 f i LIBCMTD:undname.obj
 0002:00050830       ?getPointerType@UnDecorator@@CA?AVDName@@ABV2@0@Z 00494830 f i LIBCMTD:undname.obj
 0002:00050860       ?getPointerTypeArray@UnDecorator@@CA?AVDName@@ABV2@0@Z 00494860 f i LIBCMTD:undname.obj
 0002:00050890       ?getReferenceType@UnDecorator@@CA?AVDName@@ABV2@0@Z 00494890 f i LIBCMTD:undname.obj
 0002:000508c0       ?getDisplacement@UnDecorator@@CA?AVDName@@XZ 004948c0 f i LIBCMTD:undname.obj
 0002:000508e0       ?getCallIndex@UnDecorator@@CA?AVDName@@XZ 004948e0 f i LIBCMTD:undname.obj
 0002:00050900       ?getGuardNumber@UnDecorator@@CA?AVDName@@XZ 00494900 f i LIBCMTD:undname.obj
 0002:00050920       ?getVbTableType@UnDecorator@@CA?AVDName@@ABV2@@Z 00494920 f i LIBCMTD:undname.obj
 0002:00050940       ?getVCallThunkType@UnDecorator@@CA?AVDName@@XZ 00494940 f i LIBCMTD:undname.obj
 0002:000509c0       ?getVfTableType@UnDecorator@@CA?AVDName@@ABV2@@Z 004949c0 f i LIBCMTD:undname.obj
 0002:00050bf0       ?getStorageConvention@UnDecorator@@CA?AVDName@@XZ 00494bf0 f i LIBCMTD:undname.obj
 0002:00050c10       ?getDataIndirectType@UnDecorator@@CA?AVDName@@XZ 00494c10 f i LIBCMTD:undname.obj
 0002:00050c50       ?getVdispMapType@UnDecorator@@CA?AVDName@@ABV2@@Z 00494c50 f i LIBCMTD:undname.obj
 0002:00050ce0       ?getExternalDataType@UnDecorator@@CA?AVDName@@ABV2@@Z 00494ce0 f i LIBCMTD:undname.obj
 0002:00050da0       ?doMSKeywords@UnDecorator@@SAHXZ 00494da0 f i LIBCMTD:undname.obj
 0002:00050dc0       ?doPtr64@UnDecorator@@SAHXZ 00494dc0 f i LIBCMTD:undname.obj
 0002:00050de0       ?doFunctionReturns@UnDecorator@@SAHXZ 00494de0 f i LIBCMTD:undname.obj
 0002:00050e00       ?doAllocationModel@UnDecorator@@SAHXZ 00494e00 f i LIBCMTD:undname.obj
 0002:00050e20       ?doAllocationLanguage@UnDecorator@@SAHXZ 00494e20 f i LIBCMTD:undname.obj
 0002:00050e40       ?doThisTypes@UnDecorator@@SAHXZ 00494e40 f i LIBCMTD:undname.obj
 0002:00050e60       ?doAccessSpecifiers@UnDecorator@@SAHXZ 00494e60 f i LIBCMTD:undname.obj
 0002:00050e80       ?doThrowTypes@UnDecorator@@SAHXZ 00494e80 f i LIBCMTD:undname.obj
 0002:00050ea0       ?doMemberTypes@UnDecorator@@SAHXZ 00494ea0 f i LIBCMTD:undname.obj
 0002:00050ec0       ?doNameOnly@UnDecorator@@SAHXZ 00494ec0 f i LIBCMTD:undname.obj
 0002:00050ee0       ?doTypeOnly@UnDecorator@@SAHXZ 00494ee0 f i LIBCMTD:undname.obj
 0002:00050f00       ?haveTemplateParameters@UnDecorator@@SAHXZ 00494f00 f i LIBCMTD:undname.obj
 0002:00050f20       ?doEcsu@UnDecorator@@SAHXZ 00494f20 f i LIBCMTD:undname.obj
 0002:00050f40       ?doEllipsis@UnDecorator@@SAHXZ 00494f40 f i LIBCMTD:undname.obj
 0002:00050f60       ?UScore@UnDecorator@@SAPBDW4Tokens@@@Z 00494f60 f   LIBCMTD:undname.obj
 0002:00050fa0       ?doUnderScore@UnDecorator@@SAHXZ 00494fa0 f i LIBCMTD:undname.obj
 0002:00050fc0       ??2@YAPAXIAAVHeapManager@@H@Z 00494fc0 f i LIBCMTD:undname.obj
 0002:00050fe0       ?getMemory@HeapManager@@QAEPAXIH@Z 00494fe0 f   LIBCMTD:undname.obj
 0002:00051130       ??0Block@HeapManager@@QAE@XZ 00495130 f i LIBCMTD:undname.obj
 0002:00051150       ??H@YA?AVDName@@DABV0@@Z   00495150 f i LIBCMTD:undname.obj
 0002:00051190       ??H@YA?AVDName@@W4DNameStatus@@ABV0@@Z 00495190 f i LIBCMTD:undname.obj
 0002:000511d0       ??H@YA?AVDName@@PBDABV0@@Z 004951d0 f i LIBCMTD:undname.obj
 0002:00051210       ??0DName@@QAE@XZ           00495210 f i LIBCMTD:undname.obj
 0002:000512f0       ??0DName@@QAE@D@Z          004952f0 f   LIBCMTD:undname.obj
 0002:000513f0       ??0DName@@QAE@ABV0@@Z      004953f0 f i LIBCMTD:undname.obj
 0002:000515b0       ??0DName@@QAE@PAV0@@Z      004955b0 f   LIBCMTD:undname.obj
 0002:00051710       ??0DName@@QAE@PBD@Z        00495710 f   LIBCMTD:undname.obj
 0002:00051820       ??0DName@@QAE@AAPBDD@Z     00495820 f   LIBCMTD:undname.obj
 0002:00051b80       ?doNoIdentCharCheck@UnDecorator@@SAHXZ 00495b80 f i LIBCMTD:undname.obj
 0002:00051ba0       ??0DName@@QAE@_K@Z         00495ba0 f   LIBCMTD:undname.obj
 0002:00051d20       ??0DName@@QAE@_J@Z         00495d20 f   LIBCMTD:undname.obj
 0002:00051ef0       ??0DName@@QAE@W4DNameStatus@@@Z 00495ef0 f   LIBCMTD:undname.obj
 0002:00052050       ?isValid@DName@@QBEHXZ     00496050 f   LIBCMTD:undname.obj
 0002:000520a0       ?isEmpty@DName@@QBEHXZ     004960a0 f   LIBCMTD:undname.obj
 0002:000520f0       ?status@DName@@QBE?AW4DNameStatus@@XZ 004960f0 f i LIBCMTD:undname.obj
 0002:00052110       ?clearStatus@DName@@QAEXXZ 00496110 f i LIBCMTD:undname.obj
 0002:00052130       ?setPtrRef@DName@@QAEAAV1@XZ 00496130 f i LIBCMTD:undname.obj
 0002:00052160       ?isPtrRef@DName@@QBEHXZ    00496160 f i LIBCMTD:undname.obj
 0002:00052180       ?isUDC@DName@@QBEHXZ       00496180 f i LIBCMTD:undname.obj
 0002:000521d0       ?setIsUDC@DName@@QAEXXZ    004961d0 f i LIBCMTD:undname.obj
 0002:00052200       ?isUDTThunk@DName@@QBEHXZ  00496200 f i LIBCMTD:undname.obj
 0002:00052250       ?setIsArray@DName@@QAEXXZ  00496250 f i LIBCMTD:undname.obj
 0002:00052280       ?isArray@DName@@QBEHXZ     00496280 f i LIBCMTD:undname.obj
 0002:000522a0       ?isNoTE@DName@@QBEHXZ      004962a0 f i LIBCMTD:undname.obj
 0002:000522c0       ?setIsNoTE@DName@@QAEXXZ   004962c0 f i LIBCMTD:undname.obj
 0002:000522f0       ?isPinPtr@DName@@QBEHXZ    004962f0 f i LIBCMTD:undname.obj
 0002:00052310       ?setIsPinPtr@DName@@QAEXXZ 00496310 f i LIBCMTD:undname.obj
 0002:00052340       ?isComArray@DName@@QBEHXZ  00496340 f i LIBCMTD:undname.obj
 0002:00052360       ?setIsComArray@DName@@QAEXXZ 00496360 f i LIBCMTD:undname.obj
 0002:00052390       ?isVCallThunk@DName@@QBEHXZ 00496390 f i LIBCMTD:undname.obj
 0002:000523b0       ?setIsVCallThunk@DName@@QAEXXZ 004963b0 f i LIBCMTD:undname.obj
 0002:000523e0       ?length@DName@@QBEHXZ      004963e0 f   LIBCMTD:undname.obj
 0002:00052450       ?getLastChar@DName@@QBEDXZ 00496450 f   LIBCMTD:undname.obj
 0002:000524e0       ?getString@DName@@QBEPADPADH@Z 004964e0 f   LIBCMTD:undname.obj
 0002:00052620       ??HDName@@QBE?AV0@D@Z      00496620 f   LIBCMTD:undname.obj
 0002:00052690       ??HDName@@QBE?AV0@PBD@Z    00496690 f   LIBCMTD:undname.obj
 0002:00052700       ??HDName@@QBE?AV0@ABV0@@Z  00496700 f   LIBCMTD:undname.obj
 0002:00052790       ??HDName@@QBE?AV0@PAV0@@Z  00496790 f   LIBCMTD:undname.obj
 0002:00052800       ??HDName@@QBE?AV0@W4DNameStatus@@@Z 00496800 f   LIBCMTD:undname.obj
 0002:00052870       ??YDName@@QAEAAV0@D@Z      00496870 f   LIBCMTD:undname.obj
 0002:00052940       ??YDName@@QAEAAV0@PBD@Z    00496940 f   LIBCMTD:undname.obj
 0002:00052a20       ??YDName@@QAEAAV0@ABV0@@Z  00496a20 f   LIBCMTD:undname.obj
 0002:00052ad0       ??YDName@@QAEAAV0@PAV0@@Z  00496ad0 f   LIBCMTD:undname.obj
 0002:00052c00       ??YDName@@QAEAAV0@W4DNameStatus@@@Z 00496c00 f   LIBCMTD:undname.obj
 0002:00052d00       ??_5DName@@QAEAAV0@ABV0@@Z 00496d00 f   LIBCMTD:undname.obj
 0002:00052d60       ??4DName@@QAEAAV0@D@Z      00496d60 f   LIBCMTD:undname.obj
 0002:00052df0       ??4DName@@QAEAAV0@PBD@Z    00496df0 f   LIBCMTD:undname.obj
 0002:00052e90       ??4DName@@QAEAAV0@ABV0@@Z  00496e90 f   LIBCMTD:undname.obj
 0002:00052fe0       ??4DName@@QAEAAV0@PAV0@@Z  00496fe0 f   LIBCMTD:undname.obj
 0002:00053110       ??4DName@@QAEAAV0@W4DNameStatus@@@Z 00497110 f   LIBCMTD:undname.obj
 0002:00053270       ?doPchar@DName@@AAEXPBDH@Z 00497270 f   LIBCMTD:undname.obj
 0002:00053410       ?isFull@Replicator@@QBEHXZ 00497410 f i LIBCMTD:undname.obj
 0002:00053430       ??0Replicator@@QAE@XZ      00497430 f i LIBCMTD:undname.obj
 0002:00053470       ??YReplicator@@QAEAAV0@ABVDName@@@Z 00497470 f   LIBCMTD:undname.obj
 0002:00053520       ??AReplicator@@QBEABVDName@@H@Z 00497520 f   LIBCMTD:undname.obj
 0002:00053580       ??0DNameNode@@IAE@XZ       00497580 f   LIBCMTD:undname.obj
 0002:000535b0       ?nextNode@DNameNode@@QBEPAV1@XZ 004975b0 f i LIBCMTD:undname.obj
 0002:000535d0       ?clone@DNameNode@@QAEPAV1@XZ 004975d0 f   LIBCMTD:undname.obj
 0002:00053670       ??0DName@@QAE@PAVDNameNode@@@Z 00497670 f i LIBCMTD:undname.obj
 0002:00053750       ??YDNameNode@@QAEAAV0@PAV0@@Z 00497750 f   LIBCMTD:undname.obj
 0002:000537c0       ??0charNode@@QAE@D@Z       004977c0 f   LIBCMTD:undname.obj
 0002:00053800       ?length@charNode@@UBEHXZ   00497800 f i LIBCMTD:undname.obj
 0002:00053820       ?getLastChar@charNode@@UBEDXZ 00497820 f i LIBCMTD:undname.obj
 0002:00053840       ?getString@charNode@@UBEPADPADH@Z 00497840 f   LIBCMTD:undname.obj
 0002:00053880       ??0pcharNode@@QAE@PBDH@Z   00497880 f   LIBCMTD:undname.obj
 0002:00053960       ?length@pcharNode@@UBEHXZ  00497960 f i LIBCMTD:undname.obj
 0002:00053980       ?getLastChar@pcharNode@@UBEDXZ 00497980 f i LIBCMTD:undname.obj
 0002:000539c0       ?getString@pcharNode@@UBEPADPADH@Z 004979c0 f   LIBCMTD:undname.obj
 0002:00053a40       ??0pDNameNode@@QAE@PAVDName@@@Z 00497a40 f   LIBCMTD:undname.obj
 0002:00053ac0       ?length@pDNameNode@@UBEHXZ 00497ac0 f i LIBCMTD:undname.obj
 0002:00053b00       ?getLastChar@pDNameNode@@UBEDXZ 00497b00 f i LIBCMTD:undname.obj
 0002:00053b40       ?getString@pDNameNode@@UBEPADPADH@Z 00497b40 f   LIBCMTD:undname.obj
 0002:00053ba0       ??0DNameStatusNode@@QAE@W4DNameStatus@@@Z 00497ba0 f   LIBCMTD:undname.obj
 0002:00053c00       ?length@DNameStatusNode@@UBEHXZ 00497c00 f i LIBCMTD:undname.obj
 0002:00053c20       ?getLastChar@DNameStatusNode@@UBEDXZ 00497c20 f i LIBCMTD:undname.obj
 0002:00053c50       ?getString@DNameStatusNode@@UBEPADPADH@Z 00497c50 f   LIBCMTD:undname.obj
 0002:00053de0       __set_error_mode           00497de0 f   LIBCMTD:errmode.obj
 0002:00053ed0       ___set_app_type            00497ed0 f   LIBCMTD:errmode.obj
 0002:00053ee0       ___get_app_type            00497ee0 f   LIBCMTD:errmode.obj
 0002:00053ef0       ___crtMessageBoxA          00497ef0 f   LIBCMTD:crtmbox.obj
 0002:000541f0       _strncpy_s                 004981f0 f   LIBCMTD:strncpy_s.obj
 0002:000546e0       __isalpha_l                004986e0 f i LIBCMTD:_ctype.obj
 0002:00054790       _isalpha                   00498790 f i LIBCMTD:_ctype.obj
 0002:000547d0       __isupper_l                004987d0 f i LIBCMTD:_ctype.obj
 0002:00054870       _isupper                   00498870 f i LIBCMTD:_ctype.obj
 0002:000548b0       __islower_l                004988b0 f i LIBCMTD:_ctype.obj
 0002:00054950       _islower                   00498950 f i LIBCMTD:_ctype.obj
 0002:00054990       __isdigit_l                00498990 f i LIBCMTD:_ctype.obj
 0002:00054a30       _isdigit                   00498a30 f i LIBCMTD:_ctype.obj
 0002:00054a70       __isxdigit_l               00498a70 f i LIBCMTD:_ctype.obj
 0002:00054b20       _isxdigit                  00498b20 f i LIBCMTD:_ctype.obj
 0002:00054b60       __isspace_l                00498b60 f i LIBCMTD:_ctype.obj
 0002:00054c00       _isspace                   00498c00 f i LIBCMTD:_ctype.obj
 0002:00054c40       __ispunct_l                00498c40 f i LIBCMTD:_ctype.obj
 0002:00054ce0       _ispunct                   00498ce0 f i LIBCMTD:_ctype.obj
 0002:00054d20       __isalnum_l                00498d20 f i LIBCMTD:_ctype.obj
 0002:00054dd0       _isalnum                   00498dd0 f i LIBCMTD:_ctype.obj
 0002:00054e10       __isprint_l                00498e10 f i LIBCMTD:_ctype.obj
 0002:00054ec0       _isprint                   00498ec0 f i LIBCMTD:_ctype.obj
 0002:00054f00       __isgraph_l                00498f00 f i LIBCMTD:_ctype.obj
 0002:00054fb0       _isgraph                   00498fb0 f i LIBCMTD:_ctype.obj
 0002:00054ff0       __iscntrl_l                00498ff0 f i LIBCMTD:_ctype.obj
 0002:00055090       _iscntrl                   00499090 f i LIBCMTD:_ctype.obj
 0002:000550d0       ___isascii                 004990d0 f i LIBCMTD:_ctype.obj
 0002:000550f0       ___toascii                 004990f0 f i LIBCMTD:_ctype.obj
 0002:00055100       __iscsymf_l                00499100 f i LIBCMTD:_ctype.obj
 0002:00055150       ___iscsymf                 00499150 f i LIBCMTD:_ctype.obj
 0002:00055190       __iscsym_l                 00499190 f i LIBCMTD:_ctype.obj
 0002:000551e0       ___iscsym                  004991e0 f i LIBCMTD:_ctype.obj
 0002:00055230       ___crtGetLocaleInfoW       00499230 f   LIBCMTD:w_loc.obj
 0002:00055470       __MarkAllocaS              00499470 f i LIBCMTD:w_loc.obj
 0002:000554a0       __freea                    004994a0 f i LIBCMTD:w_loc.obj
 0002:00055520       ___crtGetLocaleInfoA       00499520 f   LIBCMTD:a_loc.obj
 0002:00055770       __fcloseall                00499770 f   LIBCMTD:closeall.obj
 0002:000558e0       __alloc_osfhnd             004998e0 f   LIBCMTD:osfinfo.obj
 0002:00055c40       __set_osfhnd               00499c40 f   LIBCMTD:osfinfo.obj
 0002:00055d40       __free_osfhnd              00499d40 f   LIBCMTD:osfinfo.obj
 0002:00055e60       __get_osfhandle            00499e60 f   LIBCMTD:osfinfo.obj
 0002:00056020       __open_osfhandle           0049a020 f   LIBCMTD:osfinfo.obj
 0002:000562d0       ___lock_fhandle            0049a2d0 f   LIBCMTD:osfinfo.obj
 0002:00056410       __unlock_fhandle           0049a410 f   LIBCMTD:osfinfo.obj
 0002:00056440       __commit                   0049a440 f   LIBCMTD:commit.obj
 0002:000566e0       __write                    0049a6e0 f   LIBCMTD:write.obj
 0002:00056990       __write_nolock             0049a990 f   LIBCMTD:write.obj
 0002:00057630       __mbtowc_l                 0049b630 f   LIBCMTD:mbtowc.obj
 0002:000578d0       _mbtowc                    0049b8d0 f   LIBCMTD:mbtowc.obj
 0002:00057900       __isleadbyte_l             0049b900 f i LIBCMTD:_wctype.obj
 0002:00057960       _isleadbyte                0049b960 f i LIBCMTD:_wctype.obj
 0002:00057980       __iswalpha_l               0049b980 f i LIBCMTD:_wctype.obj
 0002:000579b0       _iswalpha                  0049b9b0 f i LIBCMTD:_wctype.obj
 0002:000579d0       __iswupper_l               0049b9d0 f i LIBCMTD:_wctype.obj
 0002:000579f0       _iswupper                  0049b9f0 f i LIBCMTD:_wctype.obj
 0002:00057a10       __iswlower_l               0049ba10 f i LIBCMTD:_wctype.obj
 0002:00057a30       _iswlower                  0049ba30 f i LIBCMTD:_wctype.obj
 0002:00057a50       __iswdigit_l               0049ba50 f i LIBCMTD:_wctype.obj
 0002:00057a70       _iswdigit                  0049ba70 f i LIBCMTD:_wctype.obj
 0002:00057a90       __iswxdigit_l              0049ba90 f i LIBCMTD:_wctype.obj
 0002:00057ac0       _iswxdigit                 0049bac0 f i LIBCMTD:_wctype.obj
 0002:00057ae0       __iswspace_l               0049bae0 f i LIBCMTD:_wctype.obj
 0002:00057b00       _iswspace                  0049bb00 f i LIBCMTD:_wctype.obj
 0002:00057b20       __iswpunct_l               0049bb20 f i LIBCMTD:_wctype.obj
 0002:00057b40       _iswpunct                  0049bb40 f i LIBCMTD:_wctype.obj
 0002:00057b60       __iswalnum_l               0049bb60 f i LIBCMTD:_wctype.obj
 0002:00057b90       _iswalnum                  0049bb90 f i LIBCMTD:_wctype.obj
 0002:00057bb0       __iswprint_l               0049bbb0 f i LIBCMTD:_wctype.obj
 0002:00057be0       _iswprint                  0049bbe0 f i LIBCMTD:_wctype.obj
 0002:00057c00       __iswgraph_l               0049bc00 f i LIBCMTD:_wctype.obj
 0002:00057c30       _iswgraph                  0049bc30 f i LIBCMTD:_wctype.obj
 0002:00057c50       __iswcntrl_l               0049bc50 f i LIBCMTD:_wctype.obj
 0002:00057c70       _iswcntrl                  0049bc70 f i LIBCMTD:_wctype.obj
 0002:00057c90       _iswascii                  0049bc90 f i LIBCMTD:_wctype.obj
 0002:00057cb0       __iswcsym_l                0049bcb0 f i LIBCMTD:_wctype.obj
 0002:00057d00       ___iswcsym                 0049bd00 f i LIBCMTD:_wctype.obj
 0002:00057d50       __iswcsymf_l               0049bd50 f i LIBCMTD:_wctype.obj
 0002:00057da0       ___iswcsymf                0049bda0 f i LIBCMTD:_wctype.obj
 0002:00057df0       __allshl                   0049bdf0 f   LIBCMTD:llshl.obj
 0002:00057e20       __filbuf                   0049be20 f   LIBCMTD:_filbuf.obj
 0002:00058100       _ungetc                    0049c100 f   LIBCMTD:ungetc.obj
 0002:00058220       __ungetc_nolock            0049c220 f   LIBCMTD:ungetc.obj
 0002:00058520       __open                     0049c520 f   LIBCMTD:open.obj
 0002:00058700       __sopen_helper             0049c700 f   LIBCMTD:open.obj
 0002:00059be0       __sopen                    0049dbe0 f   LIBCMTD:open.obj
 0002:00059c70       __sopen_s                  0049dc70 f   LIBCMTD:open.obj
 0002:00059ca0       __mbsicmp_l                0049dca0 f   LIBCMTD:mbsicmp.obj
 0002:0005a180       __mbsicmp                  0049e180 f   LIBCMTD:mbsicmp.obj
 0002:0005a1a0       __mbsnbcmp_l               0049e1a0 f   LIBCMTD:mbsnbcmp.obj
 0002:0005a530       __mbsnbcmp                 0049e530 f   LIBCMTD:mbsnbcmp.obj
 0002:0005a560       __controlfp_s              0049e560 f   LIBCMTD:contrlfp.obj
 0002:0005a680       __tolower                  0049e680 f   LIBCMTD:tolower.obj
 0002:0005a690       __tolower_l                0049e690 f   LIBCMTD:tolower.obj
 0002:0005a8e0       _tolower                   0049e8e0 f   LIBCMTD:tolower.obj
 0002:0005a940       __atodbl_l                 0049e940 f   LIBCMTD:atodbl.obj
 0002:0005aa80       __atodbl                   0049ea80 f   LIBCMTD:atodbl.obj
 0002:0005aaa0       __atoldbl_l                0049eaa0 f   LIBCMTD:atodbl.obj
 0002:0005abe0       __atoldbl                  0049ebe0 f   LIBCMTD:atodbl.obj
 0002:0005ac00       __atoflt_l                 0049ec00 f   LIBCMTD:atodbl.obj
 0002:0005ad40       __atoflt                   0049ed40 f   LIBCMTD:atodbl.obj
 0002:0005ad60       __fptostr                  0049ed60 f   LIBCMTD:_fptostr.obj
 0002:0005b0b0       __fltout2                  0049f0b0 f   LIBCMTD:cfout.obj
 0002:0005b190       ___dtold                   0049f190 f   LIBCMTD:cfout.obj
 0002:0005b340       __set_output_format        0049f340 f   LIBCMTD:outputformat.obj
 0002:0005b3e0       __get_output_format        0049f3e0 f   LIBCMTD:outputformat.obj
 0002:0005b3f0       __allrem                   0049f3f0 f   LIBCMTD:llrem.obj
 0002:0005b4d0       __alldiv                   0049f4d0 f   LIBCMTD:lldiv.obj
 0002:0005b5b0       __aullshr                  0049f5b0 f   LIBCMTD:ullshr.obj
 0002:0005b5e0       _strrchr                   0049f5e0 f   LIBCMTD:strrchr.obj
 0002:0005b620       __fptrap                   0049f620 f   LIBCMTD:crt0fp.obj
 0002:0005b640       __get_sse2_info            0049f640 f   LIBCMTD:cpu_disp.obj
 0002:0005b7b0       ___sse2_available_init     0049f7b0 f   LIBCMTD:cpu_disp.obj
 0002:0005b7d0       __VEC_memzero              0049f7d0 f   LIBCMTD:p4_memset.obj
 0002:0005b900       __mbstowcs_l_helper        0049f900 f   LIBCMTD:mbstowcs.obj
 0002:0005bda0       __mbstowcs_l               0049fda0 f   LIBCMTD:mbstowcs.obj
 0002:0005bdd0       _mbstowcs                  0049fdd0 f   LIBCMTD:mbstowcs.obj
 0002:0005be30       __mbstowcs_s_l             0049fe30 f   LIBCMTD:mbstowcs.obj
 0002:0005c1f0       _mbstowcs_s                004a01f0 f   LIBCMTD:mbstowcs.obj
 0002:0005c220       __vsnprintf_helper         004a0220 f   LIBCMTD:vsnprnc.obj
 0002:0005c460       __vsnprintf_c              004a0460 f   LIBCMTD:vsnprnc.obj
 0002:0005c4c0       __vsnprintf_c_l            004a04c0 f   LIBCMTD:vsnprnc.obj
 0002:0005c520       __vsprintf_s_l             004a0520 f   LIBCMTD:vsnprnc.obj
 0002:0005c820       _vsprintf_s                004a0820 f   LIBCMTD:vsnprnc.obj
 0002:0005c850       __vsnprintf_s_l            004a0850 f   LIBCMTD:vsnprnc.obj
 0002:0005ccd0       __vsnprintf_s              004a0cd0 f   LIBCMTD:vsnprnc.obj
 0002:0005cd00       __vsprintf_p               004a0d00 f   LIBCMTD:vsnprnc.obj
 0002:0005cd60       __vsprintf_p_l             004a0d60 f   LIBCMTD:vsnprnc.obj
 0002:0005cdc0       __itoa_s                   004a0dc0 f   LIBCMTD:xtoas.obj
 0002:0005d270       __ltoa_s                   004a1270 f   LIBCMTD:xtoas.obj
 0002:0005d2c0       __ultoa_s                  004a12c0 f   LIBCMTD:xtoas.obj
 0002:0005d2f0       __i64toa_s                 004a12f0 f   LIBCMTD:xtoas.obj
 0002:0005d7f0       __ui64toa_s                004a17f0 f   LIBCMTD:xtoas.obj
 0002:0005d820       _wcscat_s                  004a1820 f   LIBCMTD:wcscat_s.obj
 0002:0005dd00       __vswprintf_helper         004a1d00 f   LIBCMTD:vswprnc.obj
 0002:0005dfc0       __vswprintf_c              004a1fc0 f   LIBCMTD:vswprnc.obj
 0002:0005e020       __vswprintf_c_l            004a2020 f   LIBCMTD:vswprnc.obj
 0002:0005e080       __vswprintf_s_l            004a2080 f   LIBCMTD:vswprnc.obj
 0002:0005e380       _vswprintf_s               004a2380 f   LIBCMTD:vswprnc.obj
 0002:0005e3b0       __vsnwprintf_s_l           004a23b0 f   LIBCMTD:vswprnc.obj
 0002:0005e850       __vsnwprintf_s             004a2850 f   LIBCMTD:vswprnc.obj
 0002:0005e880       __vswprintf_p              004a2880 f   LIBCMTD:vswprnc.obj
 0002:0005e8e0       __vswprintf_p_l            004a28e0 f   LIBCMTD:vswprnc.obj
 0002:0005e940       __itow_s                   004a2940 f   LIBCMTD:xtows.obj
 0002:0005ee00       __ltow_s                   004a2e00 f   LIBCMTD:xtows.obj
 0002:0005ee50       __ultow_s                  004a2e50 f   LIBCMTD:xtows.obj
 0002:0005ee80       __i64tow_s                 004a2e80 f   LIBCMTD:xtows.obj
 0002:0005f390       __ui64tow_s                004a3390 f   LIBCMTD:xtows.obj
 0002:0005f3c0       __flsbuf                   004a33c0 f   LIBCMTD:_flsbuf.obj
 0002:0005f730       __woutput_l                004a3730 f   LIBCMTD:woutput.obj
 0002:00060d70       _get_int_arg               004a4d70 f i LIBCMTD:woutput.obj
 0002:00060d90       _get_int64_arg             004a4d90 f i LIBCMTD:woutput.obj
 0002:00060dc0       __vswprintf_l              004a4dc0 f   LIBCMTD:vswprint.obj
 0002:00061000       __vswprintf                004a5000 f   LIBCMTD:vswprint.obj
 0002:00061030       ___vswprintf_l             004a5030 f   LIBCMTD:vswprint.obj
 0002:00061060       __vscwprintf_helper        004a5060 f   LIBCMTD:vswprint.obj
 0002:00061150       __vscwprintf               004a5150 f   LIBCMTD:vswprint.obj
 0002:00061180       __vscwprintf_l             004a5180 f   LIBCMTD:vswprint.obj
 0002:000611b0       __vscwprintf_p             004a51b0 f   LIBCMTD:vswprint.obj
 0002:000611e0       __vscwprintf_p_l           004a51e0 f   LIBCMTD:vswprint.obj
 0002:00061210       __mbsnbcpy_s               004a5210 f   LIBCMTD:mbsnbcpy_s.obj
 0002:00061240       ___crtLCMapStringA         004a5240 f   LIBCMTD:a_map.obj
 0002:00061950       ___crtGetStringTypeA       004a5950 f   LIBCMTD:a_str.obj
 0002:00061c80       ___pwctype_func            004a5c80 f   LIBCMTD:ctype.obj
 0002:00061c90       ___pctype_func             004a5c90 f   LIBCMTD:ctype.obj
 0002:00061cf0       ___init_time               004a5cf0 f   LIBCMTD:inittime.obj
 0002:000625d0       ___free_lc_time            004a65d0 f   LIBCMTD:inittime.obj
 0002:000629a0       ___init_numeric            004a69a0 f   LIBCMTD:initnum.obj
 0002:00062dd0       ___free_lconv_num          004a6dd0 f   LIBCMTD:initnum.obj
 0002:00062e60       ___init_monetary           004a6e60 f   LIBCMTD:initmon.obj
 0002:000634a0       ___free_lconv_mon          004a74a0 f   LIBCMTD:initmon.obj
 0002:000635d0       ___init_ctype              004a75d0 f   LIBCMTD:initctyp.obj
 0002:00063ce0       ____mb_cur_max_func        004a7ce0 f   LIBCMTD:initctyp.obj
 0002:00063d40       ____mb_cur_max_l_func      004a7d40 f   LIBCMTD:initctyp.obj
 0002:00063d80       ____lc_codepage_func       004a7d80 f   LIBCMTD:initctyp.obj
 0002:00063de0       ____lc_collate_cp_func     004a7de0 f   LIBCMTD:initctyp.obj
 0002:00063e40       ____lc_handle_func         004a7e40 f   LIBCMTD:initctyp.obj
 0002:00063ea0       ___init_collate            004a7ea0 f   LIBCMTD:initcoll.obj
 0002:00063eb0       __Getdays_l                004a7eb0 f   LIBCMTD:strftime.obj
 0002:000640e0       __Getdays                  004a80e0 f   LIBCMTD:strftime.obj
 0002:00064100       __Getmonths_l              004a8100 f   LIBCMTD:strftime.obj
 0002:00064330       __Getmonths                004a8330 f   LIBCMTD:strftime.obj
 0002:00064350       __Gettnames_l              004a8350 f   LIBCMTD:strftime.obj
 0002:00064a10       __Gettnames                004a8a10 f   LIBCMTD:strftime.obj
 0002:00064a30       __strftime_l               004a8a30 f   LIBCMTD:strftime.obj
 0002:00064a60       _strftime                  004a8a60 f   LIBCMTD:strftime.obj
 0002:00064a90       __Strftime                 004a8a90 f   LIBCMTD:strftime.obj
 0002:00064ac0       __Strftime_l               004a8ac0 f   LIBCMTD:strftime.obj
 0002:00067420       _localeconv                004ab420 f   LIBCMTD:lconv.obj
 0002:00067480       _strcspn                   004ab480 f   LIBCMTD:strcspn.obj
 0002:000674e0       _strncmp                   004ab4e0 f   LIBCMTD:strncmp.obj
 0002:000676b0       _strpbrk                   004ab6b0 f   LIBCMTD:strpbrk.obj
 0002:00067700       _memcmp                    004ab700 f   LIBCMTD:memcmp.obj
 0002:00068400       ___get_qualified_locale    004ac400 f   LIBCMTD:getqloc.obj
 0002:000695f0       __output_l                 004ad5f0 f   LIBCMTD:output.obj
 0002:0006af80       _get_short_arg             004aef80 f i LIBCMTD:output.obj
 0002:0006afb0       __vsprintf_l               004aefb0 f   LIBCMTD:vsprintf.obj
 0002:0006b180       _vsprintf                  004af180 f   LIBCMTD:vsprintf.obj
 0002:0006b1b0       __vscprintf_helper         004af1b0 f   LIBCMTD:vsprintf.obj
 0002:0006b2a0       __vscprintf                004af2a0 f   LIBCMTD:vsprintf.obj
 0002:0006b2d0       __vscprintf_l              004af2d0 f   LIBCMTD:vsprintf.obj
 0002:0006b300       __vscprintf_p              004af300 f   LIBCMTD:vsprintf.obj
 0002:0006b330       __vscprintf_p_l            004af330 f   LIBCMTD:vsprintf.obj
 0002:0006b360       __VEC_memcpy               004af360 f   LIBCMTD:p4_memcpy.obj
 0002:0006b530       __ismbbkalnum_l            004af530 f   LIBCMTD:ismbbyte.obj
 0002:0006b550       __ismbbkalnum              004af550 f   LIBCMTD:ismbbyte.obj
 0002:0006b570       __ismbbkprint_l            004af570 f   LIBCMTD:ismbbyte.obj
 0002:0006b590       __ismbbkprint              004af590 f   LIBCMTD:ismbbyte.obj
 0002:0006b5b0       __ismbbkpunct_l            004af5b0 f   LIBCMTD:ismbbyte.obj
 0002:0006b5d0       __ismbbkpunct              004af5d0 f   LIBCMTD:ismbbyte.obj
 0002:0006b5f0       __ismbbalnum_l             004af5f0 f   LIBCMTD:ismbbyte.obj
 0002:0006b620       __ismbbalnum               004af620 f   LIBCMTD:ismbbyte.obj
 0002:0006b640       __ismbbalpha_l             004af640 f   LIBCMTD:ismbbyte.obj
 0002:0006b670       __ismbbalpha               004af670 f   LIBCMTD:ismbbyte.obj
 0002:0006b690       __ismbbgraph_l             004af690 f   LIBCMTD:ismbbyte.obj
 0002:0006b6c0       __ismbbgraph               004af6c0 f   LIBCMTD:ismbbyte.obj
 0002:0006b6e0       __ismbbprint_l             004af6e0 f   LIBCMTD:ismbbyte.obj
 0002:0006b710       __ismbbprint               004af710 f   LIBCMTD:ismbbyte.obj
 0002:0006b730       __ismbbpunct_l             004af730 f   LIBCMTD:ismbbyte.obj
 0002:0006b750       __ismbbpunct               004af750 f   LIBCMTD:ismbbyte.obj
 0002:0006b770       __ismbblead_l              004af770 f   LIBCMTD:ismbbyte.obj
 0002:0006b790       __ismbblead                004af790 f   LIBCMTD:ismbbyte.obj
 0002:0006b7b0       __ismbbtrail_l             004af7b0 f   LIBCMTD:ismbbyte.obj
 0002:0006b7d0       __ismbbtrail               004af7d0 f   LIBCMTD:ismbbyte.obj
 0002:0006b7f0       __ismbbkana_l              004af7f0 f   LIBCMTD:ismbbyte.obj
 0002:0006b880       __ismbbkana                004af880 f   LIBCMTD:ismbbyte.obj
 0002:0006b990       _atol                      004af990 f   LIBCMTD:atox.obj
 0002:0006b9b0       __atol_l                   004af9b0 f   LIBCMTD:atox.obj
 0002:0006b9d0       _atoi                      004af9d0 f   LIBCMTD:atox.obj
 0002:0006b9f0       __atoi_l                   004af9f0 f   LIBCMTD:atox.obj
 0002:0006ba10       __atoi64                   004afa10 f   LIBCMTD:atox.obj
 0002:0006ba30       __atoi64_l                 004afa30 f   LIBCMTD:atox.obj
 0002:0006ba50       __aulldiv                  004afa50 f   LIBCMTD:ulldiv.obj
 0002:0006bae0       __aullrem                  004afae0 f   LIBCMTD:ullrem.obj
 0002:0006bb80       __putwch                   004afb80 f   LIBCMTD:putwch.obj
 0002:0006bc30       __putwch_nolock            004afc30 f   LIBCMTD:putwch.obj
 0002:0006bd70       __cputws                   004afd70 f   LIBCMTD:putwch.obj
 0002:0006bf00       __isatty                   004aff00 f   LIBCMTD:isatty.obj
 0002:0006c020       __lseeki64                 004b0020 f   LIBCMTD:lseeki64.obj
 0002:0006c300       __lseeki64_nolock          004b0300 f   LIBCMTD:lseeki64.obj
 0002:0006c420       __iswctype_l               004b0420 f   LIBCMTD:iswctype.obj
 0002:0006c4f0       _iswctype                  004b04f0 f   LIBCMTD:iswctype.obj
 0002:0006c5a0       _is_wctype                 004b05a0 f   LIBCMTD:iswctype.obj
 0002:0006c5c0       __read                     004b05c0 f   LIBCMTD:read.obj
 0002:0006c870       __read_nolock              004b0870 f   LIBCMTD:read.obj
 0002:0006da70       __getbuf                   004b1a70 f   LIBCMTD:_getbuf.obj
 0002:0006db60       __chsize_s                 004b1b60 f   LIBCMTD:chsize.obj
 0002:0006dea0       __chsize_nolock            004b1ea0 f   LIBCMTD:chsize.obj
 0002:0006e1d0       __chsize                   004b21d0 f   LIBCMTD:chsize.obj
 0002:0006e200       __lseek                    004b2200 f   LIBCMTD:lseek.obj
 0002:0006e4b0       __lseek_nolock             004b24b0 f   LIBCMTD:lseek.obj
 0002:0006e5c0       __setmode                  004b25c0 f   LIBCMTD:setmode.obj
 0002:0006e8f0       __setmode_nolock           004b28f0 f   LIBCMTD:setmode.obj
 0002:0006ebf0       __set_fmode                004b2bf0 f   LIBCMTD:setmode.obj
 0002:0006ecd0       __get_fmode                004b2cd0 f   LIBCMTD:setmode.obj
 0002:0006ed70       __stricmp_l                004b2d70 f   LIBCMTD:stricmp.obj
 0002:0006ef80       ___ascii_stricmp           004b2f80 f   LIBCMTD:stricmp.obj
 0002:0006f010       __stricmp                  004b3010 f   LIBCMTD:stricmp.obj
 0002:0006f160       __statusfp2                004b3160 f   LIBCMTD:ieee87.obj
 0002:0006f1b0       __statusfp                 004b31b0 f   LIBCMTD:ieee87.obj
 0002:0006f200       __clearfp                  004b3200 f   LIBCMTD:ieee87.obj
 0002:0006f250       ___control87_2             004b3250 f   LIBCMTD:ieee87.obj
 0002:0006f320       __controlfp                004b3320 f   LIBCMTD:ieee87.obj
 0002:0006f340       __control87                004b3340 f i LIBCMTD:ieee87.obj
 0002:0006f420       __set_controlfp            004b3420 f   LIBCMTD:ieee87.obj
 0002:0006f4d0       __fpreset                  004b34d0 f   LIBCMTD:ieee87.obj
 0002:0006fe50       __ld12tod                  004b3e50 f   LIBCMTD:intrncvt.obj
 0002:0006fe70       __ld12cvt                  004b3e70 f i LIBCMTD:intrncvt.obj
 0002:00070150       __RoundMan                 004b4150 f i LIBCMTD:intrncvt.obj
 0002:00070260       __ZeroTail                 004b4260 f i LIBCMTD:intrncvt.obj
 0002:00070310       __IncMan                   004b4310 f i LIBCMTD:intrncvt.obj
 0002:000703f0       ___addl                    004b43f0 f i LIBCMTD:intrncvt.obj
 0002:00070440       __CopyMan                  004b4440 f i LIBCMTD:intrncvt.obj
 0002:000704a0       __FillZeroMan              004b44a0 f i LIBCMTD:intrncvt.obj
 0002:000704e0       __IsZeroMan                004b44e0 f i LIBCMTD:intrncvt.obj
 0002:00070530       __ShrMan                   004b4530 f i LIBCMTD:intrncvt.obj
 0002:00070660       __ld12tof                  004b4660 f   LIBCMTD:intrncvt.obj
 0002:00070680       __ld12told                 004b4680 f   LIBCMTD:intrncvt.obj
 0002:00070760       ___strgtold12_l            004b4760 f   LIBCMTD:strgtold.obj
 0002:000714b0       ___multtenpow12            004b54b0 f i LIBCMTD:strgtold.obj
 0002:000715c0       ___ld12mul                 004b55c0 f i LIBCMTD:strgtold.obj
 0002:00071ab0       ___shl_12                  004b5ab0 f i LIBCMTD:strgtold.obj
 0002:00071b30       ___shr_12                  004b5b30 f i LIBCMTD:strgtold.obj
 0002:00071bb0       ___STRINGTOLD_L            004b5bb0 f   LIBCMTD:strgtold.obj
 0002:00071c40       _$I10_OUTPUT               004b5c40 f   LIBCMTD:x10fout.obj
 0002:00072340       ___add_12                  004b6340 f i LIBCMTD:x10fout.obj
 0002:00072420       __output_s_l               004b6420 f   LIBCMTD:outputs.obj
 0002:00073f40       __validate_param_reuseA    004b7f40 f   LIBCMTD:outputp.obj
 0002:00074250       __output_p_l               004b8250 f   LIBCMTD:outputp.obj
 0002:00078d30       _get_crtdouble_arg         004bcd30 f i LIBCMTD:outputp.obj
 0002:00078d60       __woutput_s_l              004bcd60 f   LIBCMTD:woutputs.obj
 0002:0007a520       __validate_param_reuseW    004be520 f   LIBCMTD:woutputp.obj
 0002:0007a820       __woutput_p_l              004be820 f   LIBCMTD:woutputp.obj
 0002:0007ed20       _printf                    004c2d20 f   LIBCMTD:printf.obj
 0002:0007eea0       __printf_l                 004c2ea0 f   LIBCMTD:printf.obj
 0002:0007eed0       __printf_s_l               004c2ed0 f   LIBCMTD:printf.obj
 0002:0007ef00       _printf_s                  004c2f00 f   LIBCMTD:printf.obj
 0002:0007ef30       __printf_p_l               004c2f30 f   LIBCMTD:printf.obj
 0002:0007ef60       __printf_p                 004c2f60 f   LIBCMTD:printf.obj
 0002:0007ef90       __set_printf_count_output  004c2f90 f   LIBCMTD:printf.obj
 0002:0007eff0       __get_printf_count_output  004c2ff0 f   LIBCMTD:printf.obj
 0002:0007f010       _fputwc                    004c3010 f   LIBCMTD:fputwc.obj
 0002:0007f140       __fputwc_nolock            004c3140 f   LIBCMTD:fputwc.obj
 0002:0007f610       _putwc                     004c3610 f   LIBCMTD:fputwc.obj
 0002:0007f630       __mbsnbcpy_s_l             004c3630 f   LIBCMTD:mbsnbcpy_s_l.obj
 0002:0007fe40       ___ansicp                  004c3e40 f   LIBCMTD:convrtcp.obj
 0002:0007feb0       ___convertcp               004c3eb0 f   LIBCMTD:convrtcp.obj
 0002:00080180       __get_daylight             004c4180 f   LIBCMTD:timeset.obj
 0002:00080220       __get_dstbias              004c4220 f   LIBCMTD:timeset.obj
 0002:000802c0       __get_timezone             004c42c0 f   LIBCMTD:timeset.obj
 0002:00080360       __get_tzname               004c4360 f   LIBCMTD:timeset.obj
 0002:000805b0       ___daylight                004c45b0 f   LIBCMTD:timeset.obj
 0002:000805c0       ___dstbias                 004c45c0 f   LIBCMTD:timeset.obj
 0002:000805d0       ___timezone                004c45d0 f   LIBCMTD:timeset.obj
 0002:000805e0       ___tzname                  004c45e0 f   LIBCMTD:timeset.obj
 0002:000805f0       ___tzset                   004c45f0 f   LIBCMTD:tzset.obj
 0002:000806b0       __tzset                    004c46b0 f   LIBCMTD:tzset.obj
 0002:00080db0       __set_daylight             004c4db0 f i LIBCMTD:tzset.obj
 0002:00080dd0       __set_dstbias              004c4dd0 f i LIBCMTD:tzset.obj
 0002:00080df0       __set_timezone             004c4df0 f i LIBCMTD:tzset.obj
 0002:00080e10       __isindst                  004c4e10 f   LIBCMTD:tzset.obj
 0002:00081600       __strnicmp_l               004c5600 f   LIBCMTD:strnicmp.obj
 0002:000818d0       __strnicmp                 004c58d0 f   LIBCMTD:strnicmp.obj
 0002:00081ac0       __wctomb_s_l               004c5ac0 f   LIBCMTD:wctomb.obj
 0002:00081e80       _wctomb_s                  004c5e80 f   LIBCMTD:wctomb.obj
 0002:00081eb0       __wctomb_l                 004c5eb0 f   LIBCMTD:wctomb.obj
 0002:00081f50       _wctomb                    004c5f50 f   LIBCMTD:wctomb.obj
 0002:00081fb0       _strtol                    004c5fb0 f   LIBCMTD:strtol.obj
 0002:00082620       __strtol_l                 004c6620 f   LIBCMTD:strtol.obj
 0002:00082650       _strtoul                   004c6650 f   LIBCMTD:strtol.obj
 0002:000826b0       __strtoul_l                004c66b0 f   LIBCMTD:strtol.obj
 0002:000826e0       __strtoi64                 004c66e0 f   LIBCMTD:strtoq.obj
 0002:00082da0       __strtoi64_l               004c6da0 f   LIBCMTD:strtoq.obj
 0002:00082dd0       __strtoui64                004c6dd0 f   LIBCMTD:strtoq.obj
 0002:00082e30       __strtoui64_l              004c6e30 f   LIBCMTD:strtoq.obj
 0002:00082e60       ___initconin               004c6e60 f   LIBCMTD:initcon.obj
 0002:00082e90       ___initconout              004c6e90 f   LIBCMTD:initcon.obj
 0002:00082ec0       ___termcon                 004c6ec0 f   LIBCMTD:initcon.obj
 0002:00082f20       ___crtGetStringTypeW       004c6f20 f   LIBCMTD:w_str.obj
 0002:000832e0       __statfp                   004c72e0 f   LIBCMTD:fpctrl.obj
 0002:00083300       __clrfp                    004c7300 f   LIBCMTD:fpctrl.obj
 0002:00083320       __ctrlfp                   004c7320 f   LIBCMTD:fpctrl.obj
 0002:00083360       __set_statfp               004c7360 f   LIBCMTD:fpctrl.obj
 0002:000833e0       ___get_fpsr_sse2           004c73e0 f   LIBCMTD:fpctrl.obj
 0002:00083410       ___set_fpsr_sse2           004c7410 f   LIBCMTD:fpctrl.obj
 0002:00083520       ___fclrf_sse2              004c7520 f   LIBCMTD:fpctrl.obj
 0002:00083550       ___statfp_sse2             004c7550 f   LIBCMTD:fpctrl.obj
 0002:00083590       ___clrfp_sse2              004c7590 f   LIBCMTD:fpctrl.obj
 0002:000835d0       ___ctrlfp_sse2             004c75d0 f   LIBCMTD:fpctrl.obj
 0002:00083640       ___set_statfp_sse2         004c7640 f   LIBCMTD:fpctrl.obj
 0002:00083680       ___mtold12                 004c7680 f   LIBCMTD:mantold.obj
 0002:00083820       _wcstol                    004c7820 f   LIBCMTD:wcstol.obj
 0002:00083dc0       __wcstol_l                 004c7dc0 f   LIBCMTD:wcstol.obj
 0002:00083df0       _wcstoul                   004c7df0 f   LIBCMTD:wcstol.obj
 0002:00083e50       __wcstoul_l                004c7e50 f   LIBCMTD:wcstol.obj
 0002:00083e80       __stbuf                    004c7e80 f   LIBCMTD:_sftbuf.obj
 0002:00084030       __ftbuf                    004c8030 f   LIBCMTD:_sftbuf.obj
 0002:000840e0       _vprintf_helper            004c80e0 f   LIBCMTD:vprintf.obj
 0002:00084240       __vprintf_l                004c8240 f   LIBCMTD:vprintf.obj
 0002:00084270       __vprintf_s_l              004c8270 f   LIBCMTD:vprintf.obj
 0002:000842a0       __vprintf_p_l              004c82a0 f   LIBCMTD:vprintf.obj
 0002:000842d0       _vprintf                   004c82d0 f   LIBCMTD:vprintf.obj
 0002:00084300       _vprintf_s                 004c8300 f   LIBCMTD:vprintf.obj
 0002:00084330       __vprintf_p                004c8330 f   LIBCMTD:vprintf.obj
 0002:00084360       __flswbuf                  004c8360 f   LIBCMTD:_flswbuf.obj
 0002:000846f0       _getenv                    004c86f0 f   LIBCMTD:getenv.obj
 0002:000848a0       __getenv_helper_nolock     004c88a0 f   LIBCMTD:getenv.obj
 0002:00084a00       _getenv_s                  004c8a00 f   LIBCMTD:getenv.obj
 0002:00084cb0       __dupenv_s                 004c8cb0 f   LIBCMTD:getenv.obj
 0002:00084ce0       __dupenv_s_dbg             004c8ce0 f   LIBCMTD:getenv.obj
 0002:00084fc0       ___ascii_strnicmp          004c8fc0 f   LIBCMTD:_strnicm.obj
 0002:00085040       __allmul                   004c9040 f   LIBCMTD:llmul.obj
 0002:00085090       __wchartodigit             004c9090 f   LIBCMTD:wchtodig.obj
 0002:00085480       _strnlen                   004c9480 f   LIBCMTD:strlen_s.obj
 0002:000854d0       __mbsnbicoll_l             004c94d0 f   LIBCMTD:mbsnbico.obj
 0002:000857a0       __mbsnbicoll               004c97a0 f   LIBCMTD:mbsnbico.obj
 0002:000857d0       ___wtomb_environ           004c97d0 f   LIBCMTD:wtombenv.obj
 0002:000858f0       ___crtCompareStringA       004c98f0 f   LIBCMTD:a_cmp.obj
 0002:00086010       __strnicoll_l              004ca010 f   LIBCMTD:strnicol.obj
 0002:000862f0       __strnicoll                004ca2f0 f   LIBCMTD:strnicol.obj
 0002:00086340       ___crtsetenv               004ca340 f   LIBCMTD:setenv.obj
 0002:00086b50       __mbschr_l                 004cab50 f   LIBCMTD:mbschr.obj
 0002:00086d40       __mbschr                   004cad40 f   LIBCMTD:mbschr.obj
 0002:00086d70       _strchr                    004cad70 f   LIBCMTD:strchr.obj
 0002:00086d76       ___from_strstr_to_strchr   004cad76     LIBCMTD:strchr.obj
 0002:00086e70       ??2@YAPAXIABU_DebugHeapTag_t@std@@PADH@Z 004cae70 f   libcpmtd:xdebug.obj
 0002:00086f10       ??_U@YAPAXIABU_DebugHeapTag_t@std@@PADH@Z 004caf10 f   libcpmtd:xdebug.obj
 0002:00086f40       ??3@YAXPAXABU_DebugHeapTag_t@std@@PADH@Z 004caf40 f   libcpmtd:xdebug.obj
 0002:00086f60       ??_V@YAXPAXABU_DebugHeapTag_t@std@@PADH@Z 004caf60 f   libcpmtd:xdebug.obj
 0002:00086f90       ?_DebugHeapTag_func@std@@YAABU_DebugHeapTag_t@1@XZ 004caf90 f   libcpmtd:xdebug.obj
 0002:00086fa0       ??0_Init_locks@std@@QAE@XZ 004cafa0 f   libcpmtd:xlock.obj
 0002:00087010       ??1_Init_locks@std@@QAE@XZ 004cb010 f   libcpmtd:xlock.obj
 0002:00087070       ?_Init_locks_ctor@_Init_locks@std@@CAXPAV12@@Z 004cb070 f   libcpmtd:xlock.obj
 0002:000870d0       ?_Init_locks_dtor@_Init_locks@std@@CAXPAV12@@Z 004cb0d0 f   libcpmtd:xlock.obj
 0002:00087130       ??0_Lockit@std@@QAE@XZ     004cb130 f   libcpmtd:xlock.obj
 0002:00087160       ??0_Lockit@std@@QAE@H@Z    004cb160 f   libcpmtd:xlock.obj
 0002:000871a0       ??1_Lockit@std@@QAE@XZ     004cb1a0 f   libcpmtd:xlock.obj
 0002:000871d0       ?_Lockit_ctor@_Lockit@std@@CAXPAV12@@Z 004cb1d0 f   libcpmtd:xlock.obj
 0002:000871f0       ?_Lockit_ctor@_Lockit@std@@CAXPAV12@H@Z 004cb1f0 f   libcpmtd:xlock.obj
 0002:00087220       ?_Lockit_dtor@_Lockit@std@@CAXPAV12@@Z 004cb220 f   libcpmtd:xlock.obj
 0002:00087250       ?_Lockit_ctor@_Lockit@std@@SAXH@Z 004cb250 f   libcpmtd:xlock.obj
 0002:00087280       ?_Lockit_dtor@_Lockit@std@@SAXH@Z 004cb280 f   libcpmtd:xlock.obj
 0002:000872b0       ?_Debug_message@std@@YAXPBD0@Z 004cb2b0 f   libcpmtd:stdthrow.obj
 0002:00087340       ?_Debug_message@std@@YAXPB_W0I@Z 004cb340 f   libcpmtd:stdthrow.obj
 0002:00087370       ?_Debug_message@std@@YAXPBG0I@Z 004cb370 f   libcpmtd:stdthrow.obj
 0002:00087390       ?_Throw@std@@YAXABVexception@1@@Z 004cb390 f   libcpmtd:stdthrow.obj
 0002:000873c0       ?_Xlen@_String_base@std@@SAXXZ 004cb3c0 f   libcpmtd:string.obj
 0002:00087450       ?_Xran@_String_base@std@@SAXXZ 004cb450 f   libcpmtd:string.obj
 0002:000874e0       ??0out_of_range@std@@QAE@ABV?$basic_string@DU?$char_traits@D@std@@V?$allocator@D@2@@1@@Z 004cb4e0 f i libcpmtd:string.obj
 0002:00087510       ??1out_of_range@std@@UAE@XZ 004cb510 f i libcpmtd:string.obj
 0002:00087540       ??_Gout_of_range@std@@UAEPAXI@Z 004cb540 f i libcpmtd:string.obj
 0002:00087540       ??_Eout_of_range@std@@UAEPAXI@Z 004cb540 f i libcpmtd:string.obj
 0002:00087580       ??0out_of_range@std@@QAE@ABV01@@Z 004cb580 f i libcpmtd:string.obj
 0002:000875b0       ?_Xinvarg@_String_base@std@@SAXXZ 004cb5b0 f   libcpmtd:string.obj
 0002:00087640       ??0invalid_argument@std@@QAE@ABV?$basic_string@DU?$char_traits@D@std@@V?$allocator@D@2@@1@@Z 004cb640 f i libcpmtd:string.obj
 0002:00087670       ??1invalid_argument@std@@UAE@XZ 004cb670 f i libcpmtd:string.obj
 0002:000876a0       ??_Ginvalid_argument@std@@UAEPAXI@Z 004cb6a0 f i libcpmtd:string.obj
 0002:000876a0       ??_Einvalid_argument@std@@UAEPAXI@Z 004cb6a0 f i libcpmtd:string.obj
 0002:000876e0       ??0invalid_argument@std@@QAE@ABV01@@Z 004cb6e0 f i libcpmtd:string.obj
 0002:00087710       __Once                     004cb710 f   libcpmtd:xmtx.obj
 0002:00087780       __Mtxinit                  004cb780 f   libcpmtd:xmtx.obj
 0002:000877a0       __Mtxdst                   004cb7a0 f   libcpmtd:xmtx.obj
 0002:000877c0       __Mtxlock                  004cb7c0 f   libcpmtd:xmtx.obj
 0002:000877e0       __Mtxunlock                004cb7e0 f   libcpmtd:xmtx.obj
 0002:000877f2       _RtlUnwind@16              004cb7f2 f   kernel32:KERNEL32.dll
 0002:000877f8       _RaiseException@16         004cb7f8 f   kernel32:KERNEL32.dll
 0002:000877fe       _TerminateProcess@8        004cb7fe f   kernel32:KERNEL32.dll
 0002:00087804       _GetCurrentProcess@0       004cb804 f   kernel32:KERNEL32.dll
 0002:0008780a       _UnhandledExceptionFilter@4 004cb80a f   kernel32:KERNEL32.dll
 0002:00087810       _SetUnhandledExceptionFilter@4 004cb810 f   kernel32:KERNEL32.dll
 0002:00087816       _IsDebuggerPresent@0       004cb816 f   kernel32:KERNEL32.dll
 0002:0008781c       _GetModuleFileNameW@12     004cb81c f   kernel32:KERNEL32.dll
 0002:00087822       _HeapValidate@12           004cb822 f   kernel32:KERNEL32.dll
 0002:00087828       _IsBadReadPtr@8            004cb828 f   kernel32:KERNEL32.dll
 0002:0008782e       _InterlockedIncrement@4    004cb82e f   kernel32:KERNEL32.dll
 0002:00087834       _InterlockedDecrement@4    004cb834 f   kernel32:KERNEL32.dll
 0002:0008783a       _GetProcAddress@8          004cb83a f   kernel32:KERNEL32.dll
 0002:00087840       _GetModuleHandleA@4        004cb840 f   kernel32:KERNEL32.dll
 0002:00087846       _ExitProcess@4             004cb846 f   kernel32:KERNEL32.dll
 0002:0008784c       _GetCommandLineA@0         004cb84c f   kernel32:KERNEL32.dll
 0002:00087852       _HeapFree@12               004cb852 f   kernel32:KERNEL32.dll
 0002:00087858       _GetVersionExA@4           004cb858 f   kernel32:KERNEL32.dll
 0002:0008785e       _HeapAlloc@12              004cb85e f   kernel32:KERNEL32.dll
 0002:00087864       _GetProcessHeap@0          004cb864 f   kernel32:KERNEL32.dll
 0002:0008786a       _GetStartupInfoA@4         004cb86a f   kernel32:KERNEL32.dll
 0002:00087870       _DeleteCriticalSection@4   004cb870 f   kernel32:KERNEL32.dll
 0002:00087876       _EnterCriticalSection@4    004cb876 f   kernel32:KERNEL32.dll
 0002:0008787c       _LeaveCriticalSection@4    004cb87c f   kernel32:KERNEL32.dll
 0002:00087882       _FatalAppExitA@8           004cb882 f   kernel32:KERNEL32.dll
 0002:00087888       _TlsGetValue@4             004cb888 f   kernel32:KERNEL32.dll
 0002:0008788e       _TlsAlloc@0                004cb88e f   kernel32:KERNEL32.dll
 0002:00087894       _TlsSetValue@8             004cb894 f   kernel32:KERNEL32.dll
 0002:0008789a       _GetCurrentThreadId@0      004cb89a f   kernel32:KERNEL32.dll
 0002:000878a0       _TlsFree@4                 004cb8a0 f   kernel32:KERNEL32.dll
 0002:000878a6       _SetLastError@4            004cb8a6 f   kernel32:KERNEL32.dll
 0002:000878ac       _GetLastError@0            004cb8ac f   kernel32:KERNEL32.dll
 0002:000878b2       _GetCurrentThread@0        004cb8b2 f   kernel32:KERNEL32.dll
 0002:000878b8       _DebugBreak@0              004cb8b8 f   kernel32:KERNEL32.dll
 0002:000878be       _WideCharToMultiByte@32    004cb8be f   kernel32:KERNEL32.dll
 0002:000878c4       _MultiByteToWideChar@24    004cb8c4 f   kernel32:KERNEL32.dll
 0002:000878ca       _lstrlenA@4                004cb8ca f   kernel32:KERNEL32.dll
 0002:000878d0       _LoadLibraryA@4            004cb8d0 f   kernel32:KERNEL32.dll
 0002:000878d6       _GetModuleFileNameA@12     004cb8d6 f   kernel32:KERNEL32.dll
 0002:000878dc       _WriteFile@20              004cb8dc f   kernel32:KERNEL32.dll
 0002:000878e2       _GetStdHandle@4            004cb8e2 f   kernel32:KERNEL32.dll
 0002:000878e8       _CloseHandle@4             004cb8e8 f   kernel32:KERNEL32.dll
 0002:000878ee       _SetHandleCount@4          004cb8ee f   kernel32:KERNEL32.dll
 0002:000878f4       _GetFileType@4             004cb8f4 f   kernel32:KERNEL32.dll
 0002:000878fa       _OutputDebugStringA@4      004cb8fa f   kernel32:KERNEL32.dll
 0002:00087900       _WriteConsoleW@20          004cb900 f   kernel32:KERNEL32.dll
 0002:00087906       _OutputDebugStringW@4      004cb906 f   kernel32:KERNEL32.dll
 0002:0008790c       _SetConsoleCtrlHandler@8   004cb90c f   kernel32:KERNEL32.dll
 0002:00087912       _LoadLibraryW@4            004cb912 f   kernel32:KERNEL32.dll
 0002:00087918       _HeapReAlloc@16            004cb918 f   kernel32:KERNEL32.dll
 0002:0008791e       _HeapDestroy@4             004cb91e f   kernel32:KERNEL32.dll
 0002:00087924       _HeapCreate@12             004cb924 f   kernel32:KERNEL32.dll
 0002:0008792a       _VirtualFree@12            004cb92a f   kernel32:KERNEL32.dll
 0002:00087930       _VirtualAlloc@16           004cb930 f   kernel32:KERNEL32.dll
 0002:00087936       _GetACP@0                  004cb936 f   kernel32:KERNEL32.dll
 0002:0008793c       _GetOEMCP@0                004cb93c f   kernel32:KERNEL32.dll
 0002:00087942       _GetCPInfo@8               004cb942 f   kernel32:KERNEL32.dll
 0002:00087948       _FreeLibrary@4             004cb948 f   kernel32:KERNEL32.dll
 0002:0008794e       _InterlockedExchange@8     004cb94e f   kernel32:KERNEL32.dll
 0002:00087954       _InitializeCriticalSection@4 004cb954 f   kernel32:KERNEL32.dll
 0002:0008795a       _QueryPerformanceCounter@4 004cb95a f   kernel32:KERNEL32.dll
 0002:00087960       _GetTickCount@0            004cb960 f   kernel32:KERNEL32.dll
 0002:00087966       _GetCurrentProcessId@0     004cb966 f   kernel32:KERNEL32.dll
 0002:0008796c       _GetSystemTimeAsFileTime@4 004cb96c f   kernel32:KERNEL32.dll
 0002:00087972       _FreeEnvironmentStringsA@4 004cb972 f   kernel32:KERNEL32.dll
 0002:00087978       _GetEnvironmentStrings@0   004cb978 f   kernel32:KERNEL32.dll
 0002:0008797e       _FreeEnvironmentStringsW@4 004cb97e f   kernel32:KERNEL32.dll
 0002:00087984       _GetEnvironmentStringsW@0  004cb984 f   kernel32:KERNEL32.dll
 0002:0008798a       _VirtualQuery@12           004cb98a f   kernel32:KERNEL32.dll
 0002:00087990       _GetLocaleInfoA@16         004cb990 f   kernel32:KERNEL32.dll
 0002:00087996       _GetLocaleInfoW@16         004cb996 f   kernel32:KERNEL32.dll
 0002:0008799c       _SetStdHandle@8            004cb99c f   kernel32:KERNEL32.dll
 0002:000879a2       _FlushFileBuffers@4        004cb9a2 f   kernel32:KERNEL32.dll
 0002:000879a8       _GetConsoleCP@0            004cb9a8 f   kernel32:KERNEL32.dll
 0002:000879ae       _GetConsoleMode@8          004cb9ae f   kernel32:KERNEL32.dll
 0002:000879b4       _CreateFileA@28            004cb9b4 f   kernel32:KERNEL32.dll
 0002:000879ba       _LCMapStringA@24           004cb9ba f   kernel32:KERNEL32.dll
 0002:000879c0       _LCMapStringW@24           004cb9c0 f   kernel32:KERNEL32.dll
 0002:000879c6       _GetStringTypeA@20         004cb9c6 f   kernel32:KERNEL32.dll
 0002:000879cc       _GetStringTypeW@16         004cb9cc f   kernel32:KERNEL32.dll
 0002:000879d2       _GetTimeFormatA@24         004cb9d2 f   kernel32:KERNEL32.dll
 0002:000879d8       _GetDateFormatA@24         004cb9d8 f   kernel32:KERNEL32.dll
 0002:000879de       _IsValidLocale@8           004cb9de f   kernel32:KERNEL32.dll
 0002:000879e4       _IsValidCodePage@4         004cb9e4 f   kernel32:KERNEL32.dll
 0002:000879ea       _EnumSystemLocalesA@8      004cb9ea f   kernel32:KERNEL32.dll
 0002:000879f0       _GetUserDefaultLCID@0      004cb9f0 f   kernel32:KERNEL32.dll
 0002:000879f6       _WriteConsoleA@20          004cb9f6 f   kernel32:KERNEL32.dll
 0002:000879fc       _GetConsoleOutputCP@0      004cb9fc f   kernel32:KERNEL32.dll
 0002:00087a02       _SetFilePointer@16         004cba02 f   kernel32:KERNEL32.dll
 0002:00087a08       _ReadFile@20               004cba08 f   kernel32:KERNEL32.dll
 0002:00087a0e       _SetEndOfFile@4            004cba0e f   kernel32:KERNEL32.dll
 0002:00087a14       _GetTimeZoneInformation@4  004cba14 f   kernel32:KERNEL32.dll
 0002:00087a1a       _CompareStringA@24         004cba1a f   kernel32:KERNEL32.dll
 0002:00087a20       _CompareStringW@24         004cba20 f   kernel32:KERNEL32.dll
 0002:00087a26       _SetEnvironmentVariableA@8 004cba26 f   kernel32:KERNEL32.dll
 0002:00087a2c       _Sleep@4                   004cba2c f   kernel32:KERNEL32.dll
 0002:00087a40       _fputs                     004cba40 f   LIBCMTD:fputs.obj
 0002:00087de0       _fwrite                    004cbde0 f   LIBCMTD:fwrite.obj
 0002:00087fa0       __fwrite_nolock            004cbfa0 f   LIBCMTD:fwrite.obj
 0003:00000000       ___xc_a                    004d2000     LIBCMTD:crt0init.obj
 0003:0000030c       ___xc_z                    004d230c     LIBCMTD:crt0init.obj
 0003:00000410       ___xi_a                    004d2410     LIBCMTD:crt0init.obj
 0003:00000730       ___xi_z                    004d2730     LIBCMTD:crt0init.obj
 0003:00000834       ___xp_a                    004d2834     LIBCMTD:crt0init.obj
 0003:00000b48       ___xp_z                    004d2b48     LIBCMTD:crt0init.obj
 0003:00000c4c       ___xt_a                    004d2c4c     LIBCMTD:crt0init.obj
 0003:00000e54       ___xt_z                    004d2e54     LIBCMTD:crt0init.obj
 0003:00000f7c       ??_C@_0BK@IBDIEOKL@figuras?1armorkingaura?4bmp?$AA@ 004d2f7c     armorking.obj
 0003:00000f9c       ??_C@_0BM@MEPCGCEF@figuras?1armorkingmorte4?4bmp?$AA@ 004d2f9c     armorking.obj
 0003:00000fc0       ??_C@_0BM@NJPHFCPN@figuras?1armorkingmorte3?4bmp?$AA@ 004d2fc0     armorking.obj
 0003:00000fe4       ??_C@_0BM@BCKLIBFI@figuras?1armorkingmorte2?4bmp?$AA@ 004d2fe4     armorking.obj
 0003:00001008       ??_C@_0BM@JEDPPDPG@figuras?1armorkingmorte1?4bmp?$AA@ 004d3008     armorking.obj
 0003:0000102c       ??_C@_0BM@FPGDCAFD@figuras?1armorkingmorte0?4bmp?$AA@ 004d302c     armorking.obj
 0003:00001050       ??_C@_0BM@NDMAPEL@figuras?1armorkingchute3?4bmp?$AA@ 004d3050     armorking.obj
 0003:00001074       ??_C@_0BM@MGGANMOO@figuras?1armorkingchute2?4bmp?$AA@ 004d3074     armorking.obj
 0003:00001098       ??_C@_0BM@EAPEKOEA@figuras?1armorkingchute1?4bmp?$AA@ 004d3098     armorking.obj
 0003:000010bc       ??_C@_0BM@ILKIHNOF@figuras?1armorkingchute0?4bmp?$AA@ 004d30bc     armorking.obj
 0003:000010e0       ??_C@_0BN@KNBFHOOM@figuras?1armorkingvoadora?4bmp?$AA@ 004d30e0     armorking.obj
 0003:00001104       ??_C@_0BP@LGKICCFF@figuras?1armorkingandando2c?4bmp?$AA@ 004d3104     armorking.obj
 0003:0000112c       ??_C@_0BP@IHEADIMI@figuras?1armorkingandando1c?4bmp?$AA@ 004d312c     armorking.obj
 0003:00001154       ??_C@_0BO@FGFDOIFE@figuras?1armorkingandando0?4bmp?$AA@ 004d3154     armorking.obj
 0003:00001178       ??_C@_0BM@BAEMEOMF@figuras?1armorkinggolpe2?4bmp?$AA@ 004d3178     armorking.obj
 0003:0000119c       ??_C@_0BM@JGNIDMGL@figuras?1armorkinggolpe1?4bmp?$AA@ 004d319c     armorking.obj
 0003:000011c0       ??_C@_0BM@FNIEOPMO@figuras?1armorkinggolpe0?4bmp?$AA@ 004d31c0     armorking.obj
 0003:000011e4       ??_C@_0BN@EDLGEBKG@figuras?1armorkingpulando?4bmp?$AA@ 004d31e4     armorking.obj
 0003:00001208       ??_C@_0BN@MBLNGGAB@figuras?1armorkingparado1?4bmp?$AA@ 004d3208     armorking.obj
 0003:0000122c       ??_C@_0BN@EHCJBEKP@figuras?1armorkingparado2?4bmp?$AA@ 004d322c     armorking.obj
 0003:00001250       ??_C@_0BN@KOBLFKE@figuras?1armorkingparado0?4bmp?$AA@ 004d3250     armorking.obj
 0003:00001278       ??_7ArmorKing@@6B@         004d3278     armorking.obj
 0003:00001284       ??_C@_0CD@PPGPAFID@NAO?5FOI?5POSSIVEL?5ABRIR?5A?5IMAGEM?5@ 004d3284     armorking.obj
 0003:000012b4       ??_7Heroi@@6B@             004d32b4     armorking.obj
 0003:000012c0       ??_C@_0BB@DHLNHNOP@video?1vid499?4bmp?$AA@ 004d32c0     controlador.obj
 0003:000012d4       ??_C@_0BB@PMOBKOEK@video?1vid498?4bmp?$AA@ 004d32d4     controlador.obj
 0003:000012e8       ??_C@_0BB@NLHBMJP@video?1vid497?4bmp?$AA@ 004d32e8     controlador.obj
 0003:000012fc       ??_C@_0BB@MGOLMPDK@video?1vid496?4bmp?$AA@ 004d32fc     controlador.obj
 0003:00001310       ??_C@_0BB@EAHPLNJE@video?1vid495?4bmp?$AA@ 004d3310     controlador.obj
 0003:00001324       ??_C@_0BB@ILCDGODB@video?1vid494?4bmp?$AA@ 004d3324     controlador.obj
 0003:00001338       ??_C@_0BB@JGCGFOIJ@video?1vid493?4bmp?$AA@ 004d3338     controlador.obj
 0003:0000134c       ??_C@_0BB@FNHKINCM@video?1vid492?4bmp?$AA@ 004d334c     controlador.obj
 0003:00001360       ??_C@_0BB@NLOOPPIC@video?1vid491?4bmp?$AA@ 004d3360     controlador.obj
 0003:00001374       ??_C@_0BB@BALCCMCH@video?1vid490?4bmp?$AA@ 004d3374     controlador.obj
 0003:00001388       ??_C@_0BB@JBMKHGFL@video?1vid489?4bmp?$AA@ 004d3388     controlador.obj
 0003:0000139c       ??_C@_0BB@FKJGKFPO@video?1vid488?4bmp?$AA@ 004d339c     controlador.obj
 0003:000013b0       ??_C@_0BB@KLMABHCL@video?1vid487?4bmp?$AA@ 004d33b0     controlador.obj
 0003:000013c4       ??_C@_0BB@GAJMMEIO@video?1vid486?4bmp?$AA@ 004d33c4     controlador.obj
 0003:000013d8       ??_C@_0BB@OGAILGCA@video?1vid485?4bmp?$AA@ 004d33d8     controlador.obj
 0003:000013ec       ??_C@_0BB@CNFEGFIF@video?1vid484?4bmp?$AA@ 004d33ec     controlador.obj
 0003:00001400       ??_C@_0BG@OLHNABBB@sons?1alteredbeast?4mid?$AA@ 004d3400     controlador.obj
 0003:0000141c       ??_C@_0BC@DJGOJNDD@sons?1gameover?4wav?$AA@ 004d341c     controlador.obj
 0003:00001434       ??_C@_0BF@HHJGLPAO@sons?1metamorfose?4wav?$AA@ 004d3434     controlador.obj
 0003:00001450       ??_C@_0BC@ECHFMLBJ@sons?1atingido?4wav?$AA@ 004d3450     controlador.obj
 0003:00001468       ??_C@_0P@GMHMFFIE@sons?1golpe?4wav?$AA@ 004d3468     controlador.obj
 0003:0000147c       ??_C@_0BB@MGLCHEB@sons?1yesbabe?4wav?$AA@ 004d347c     controlador.obj
 0003:00001490       ??_C@_0BD@BIDOAIAE@outros?1moldura?4bmp?$AA@ 004d3490     controlador.obj
 0003:000014a8       ??_C@_0N@CGMJKFJB@outros?1x?4bmp?$AA@ 004d34a8     controlador.obj
 0003:000014b8       ??_C@_0N@OCMNHMFI@outros?19?4bmp?$AA@ 004d34b8     controlador.obj
 0003:000014c8       ??_C@_0N@CJJBKPPN@outros?18?4bmp?$AA@ 004d34c8     controlador.obj
 0003:000014d8       ??_C@_0N@NIMHBNCI@outros?17?4bmp?$AA@ 004d34d8     controlador.obj
 0003:000014e8       ??_C@_0N@BDJLMOIN@outros?16?4bmp?$AA@ 004d34e8     controlador.obj
 0003:000014f8       ??_C@_0N@JFAPLMCD@outros?15?4bmp?$AA@ 004d34f8     controlador.obj
 0003:00001508       ??_C@_0N@FOFDGPIG@outros?14?4bmp?$AA@ 004d3508     controlador.obj
 0003:00001518       ??_C@_0N@EDFGFPDO@outros?13?4bmp?$AA@ 004d3518     controlador.obj
 0003:00001528       ??_C@_0N@IIAKIMJL@outros?12?4bmp?$AA@ 004d3528     controlador.obj
 0003:00001538       ??_C@_0N@OJOPODF@outros?11?4bmp?$AA@ 004d3538     controlador.obj
 0003:00001548       ??_C@_0N@MFMCCNJA@outros?10?4bmp?$AA@ 004d3548     controlador.obj
 0003:00001558       ??_C@_04LLKPOCGK@?$CFd?$CFd?$AA@ 004d3558     controlador.obj
 0003:00001560       ??_C@_02DPKJAMEF@?$CFd?$AA@ 004d3560     controlador.obj
 0003:00001564       ??_C@_02DKCKIIND@?$CFs?$AA@ 004d3564     controlador.obj
 0003:00001568       ??_C@_01KDCPPGHE@r?$AA@    004d3568     controlador.obj
 0003:0000156c       ??_C@_0BK@OOFNLOIK@inimigos?1olhoandando5?4bmp?$AA@ 004d356c     controlador.obj
 0003:0000158c       ??_C@_0BK@CFABGNCP@inimigos?1olhoandando4?4bmp?$AA@ 004d358c     controlador.obj
 0003:000015ac       ??_C@_0BK@DIAEFNJH@inimigos?1olhoandando3?4bmp?$AA@ 004d35ac     controlador.obj
 0003:000015cc       ??_C@_0BK@PDFIIODC@inimigos?1olhoandando2?4bmp?$AA@ 004d35cc     controlador.obj
 0003:000015f0       ??_7Charade@@6B@           004d35f0     controlador.obj
 0003:000015f8       ??_C@_0BM@JLCNHGCI@inimigos?1RaptorGirando3?4bmp?$AA@ 004d35f8     controlador.obj
 0003:0000161c       ??_C@_0BM@FAHBKFIN@inimigos?1RaptorGirando2?4bmp?$AA@ 004d361c     controlador.obj
 0003:00001640       ??_C@_0BM@NGOFNHCD@inimigos?1RaptorGirando1?4bmp?$AA@ 004d3640     controlador.obj
 0003:00001664       ??_C@_0BM@BNLJAEIG@inimigos?1RaptorGirando0?4bmp?$AA@ 004d3664     controlador.obj
 0003:00001688       ??_C@_0BL@EFKHMAEG@inimigos?1RaptorParado2?4bmp?$AA@ 004d3688     controlador.obj
 0003:000016a8       ??_C@_0BL@MDDDLCOI@inimigos?1RaptorParado1?4bmp?$AA@ 004d36a8     controlador.obj
 0003:000016c8       ??_C@_0BL@IGPGBEN@inimigos?1RaptorParado0?4bmp?$AA@ 004d36c8     controlador.obj
 0003:000016ec       ??_7Raptor@@6B@            004d36ec     controlador.obj
 0003:000016f4       ??_C@_0BK@CDLKPCFM@inimigos?1hiryuugolpe3?4bmp?$AA@ 004d36f4     controlador.obj
 0003:00001714       ??_C@_0BK@OIOGCBPJ@inimigos?1hiryuugolpe2?4bmp?$AA@ 004d3714     controlador.obj
 0003:00001734       ??_C@_0BK@KFCOIAPC@inimigos?1hiryuugolpe0?4bmp?$AA@ 004d3734     controlador.obj
 0003:00001754       ??_C@_0BM@DDPBMGGN@inimigos?1hiryuuandando1?4bmp?$AA@ 004d3754     controlador.obj
 0003:00001778       ??_C@_0BM@LFGFLEMD@inimigos?1hiryuuandando2?4bmp?$AA@ 004d3778     controlador.obj
 0003:0000179c       ??_C@_0BM@PIKNBFMI@inimigos?1hiryuuandando0?4bmp?$AA@ 004d379c     controlador.obj
 0003:000017c0       ??_C@_0BL@KDOCBBOC@inimigos?1hiryuuparado3?4bmp?$AA@ 004d37c0     controlador.obj
 0003:000017e0       ??_C@_0BL@GILOMCEH@inimigos?1hiryuuparado2?4bmp?$AA@ 004d37e0     controlador.obj
 0003:00001800       ??_C@_0BL@OOCKLAOJ@inimigos?1hiryuuparado1?4bmp?$AA@ 004d3800     controlador.obj
 0003:00001820       ??_C@_0BL@CFHGGDEM@inimigos?1hiryuuparado0?4bmp?$AA@ 004d3820     controlador.obj
 0003:00001844       ??_7Hiryuu@@6B@            004d3844     controlador.obj
 0003:0000184c       ??_C@_0BJ@NPGDEMCJ@inimigos?1ninjacorte3?4bmp?$AA@ 004d384c     controlador.obj
 0003:0000186c       ??_C@_0BJ@BEDPJPIM@inimigos?1ninjacorte2?4bmp?$AA@ 004d386c     controlador.obj
 0003:0000188c       ??_C@_0BJ@JCKLONCC@inimigos?1ninjacorte1?4bmp?$AA@ 004d388c     controlador.obj
 0003:000018ac       ??_C@_0BJ@FJPHDOIH@inimigos?1ninjacorte0?4bmp?$AA@ 004d38ac     controlador.obj
 0003:000018cc       ??_C@_0BN@ILKEMMOP@inimigos?1ninjateleporte2?4bmp?$AA@ 004d38cc     controlador.obj
 0003:000018f0       ??_C@_0BK@OEPMJGMH@inimigos?1ninjaparado3?4bmp?$AA@ 004d38f0     controlador.obj
 0003:00001910       ??_C@_0BK@CPKAEFGC@inimigos?1ninjaparado2?4bmp?$AA@ 004d3910     controlador.obj
 0003:00001930       ??_C@_0BK@KJDEDHMM@inimigos?1ninjaparado1?4bmp?$AA@ 004d3930     controlador.obj
 0003:00001950       ??_C@_0BK@GCGIOEGJ@inimigos?1ninjaparado0?4bmp?$AA@ 004d3950     controlador.obj
 0003:00001974       ??_7Ginzu@@6B@             004d3974     controlador.obj
 0003:0000197c       ??_C@_0BM@LHDCGJFL@inimigos?1morteMovimento?4bmp?$AA@ 004d397c     controlador.obj
 0003:000019a0       ??_C@_0BK@LKCOCHG@inimigos?1morteParada2?4bmp?$AA@ 004d39a0     controlador.obj
 0003:000019c0       ??_C@_0BJ@KJNKJANE@inimigos?1morteParada?4bmp?$AA@ 004d39c0     controlador.obj
 0003:000019e4       ??_7Morte@@6B@             004d39e4     controlador.obj
 0003:000019ec       ??_C@_0BC@INAMJPCA@inimigos?1lob4?4bmp?$AA@ 004d39ec     controlador.obj
 0003:00001a04       ??_C@_0BC@JAAJKPJI@inimigos?1lob3?4bmp?$AA@ 004d3a04     controlador.obj
 0003:00001a1c       ??_C@_0BC@FLFFHMDN@inimigos?1lob2?4bmp?$AA@ 004d3a1c     controlador.obj
 0003:00001a34       ??_C@_0BC@NNMBAOJD@inimigos?1lob1?4bmp?$AA@ 004d3a34     controlador.obj
 0003:00001a50       ??_7Lobo@@6B@              004d3a50     controlador.obj
 0003:00001a58       ??_C@_0BI@JJGOLEHP@inimigos?1ogregolpe2?4bmp?$AA@ 004d3a58     controlador.obj
 0003:00001a74       ??_C@_0BI@BPPKMGNB@inimigos?1ogregolpe1?4bmp?$AA@ 004d3a74     controlador.obj
 0003:00001a90       ??_C@_0BI@NEKGBFHE@inimigos?1ogregolpe0?4bmp?$AA@ 004d3a90     controlador.obj
 0003:00001aac       ??_C@_0BK@JDIFEOOI@inimigos?1ogreandando3?4bmp?$AA@ 004d3aac     controlador.obj
 0003:00001acc       ??_C@_0BK@FINJJNEN@inimigos?1ogreandando2?4bmp?$AA@ 004d3acc     controlador.obj
 0003:00001aec       ??_C@_0BK@NOENOPOD@inimigos?1ogreandando1?4bmp?$AA@ 004d3aec     controlador.obj
 0003:00001b0c       ??_C@_0BK@BFBBDMEG@inimigos?1ogreandando0?4bmp?$AA@ 004d3b0c     controlador.obj
 0003:00001b30       ??_7Ogre@@6B@              004d3b30     controlador.obj
 0003:00001b38       ??_C@_0BI@NNLEJIFK@inimigos?1samMortal9?4bmp?$AA@ 004d3b38     controlador.obj
 0003:00001b54       ??_C@_0BI@BGOIELPP@inimigos?1samMortal8?4bmp?$AA@ 004d3b54     controlador.obj
 0003:00001b70       ??_C@_0BI@OHLOPJCK@inimigos?1samMortal7?4bmp?$AA@ 004d3b70     controlador.obj
 0003:00001b8c       ??_C@_0BI@CMOCCKIP@inimigos?1samMortal6?4bmp?$AA@ 004d3b8c     controlador.obj
 0003:00001ba8       ??_C@_0BI@KKHGFICB@inimigos?1samMortal5?4bmp?$AA@ 004d3ba8     controlador.obj
 0003:00001bc4       ??_C@_0BI@GBCKILIE@inimigos?1samMortal4?4bmp?$AA@ 004d3bc4     controlador.obj
 0003:00001be0       ??_C@_0BI@HMCPLLDM@inimigos?1samMortal3?4bmp?$AA@ 004d3be0     controlador.obj
 0003:00001bfc       ??_C@_0BI@LHHDGIJJ@inimigos?1samMortal2?4bmp?$AA@ 004d3bfc     controlador.obj
 0003:00001c18       ??_C@_0BI@DBOHBKDH@inimigos?1samMortal1?4bmp?$AA@ 004d3c18     controlador.obj
 0003:00001c34       ??_C@_0BJ@BNANHIBN@inimigos?1samAndando4?4bmp?$AA@ 004d3c34     controlador.obj
 0003:00001c54       ??_C@_0BJ@IEIKF@inimigos?1samAndando3?4bmp?$AA@ 004d3c54     controlador.obj
 0003:00001c74       ??_C@_0BJ@MLFEJLAA@inimigos?1samAndando2?4bmp?$AA@ 004d3c74     controlador.obj
 0003:00001c94       ??_C@_0BJ@ENMAOJKO@inimigos?1samAndando1?4bmp?$AA@ 004d3c94     controlador.obj
 0003:00001cb4       ??_C@_0BI@CDLBGPOP@inimigos?1samParado3?4bmp?$AA@ 004d3cb4     controlador.obj
 0003:00001cd0       ??_C@_0BI@OIONLMEK@inimigos?1samParado2?4bmp?$AA@ 004d3cd0     controlador.obj
 0003:00001cec       ??_C@_0BI@GOHJMOOE@inimigos?1samParado1?4bmp?$AA@ 004d3cec     controlador.obj
 0003:00001d0c       ??_7Sam@@6B@               004d3d0c     controlador.obj
 0003:00001d14       ??_C@_0BF@FENBKLIK@inimigos?1tekken5?4bmp?$AA@ 004d3d14     controlador.obj
 0003:00001d30       ??_C@_0BF@JPINHICP@inimigos?1tekken4?4bmp?$AA@ 004d3d30     controlador.obj
 0003:00001d4c       ??_C@_0BF@ICIIEIJH@inimigos?1tekken3?4bmp?$AA@ 004d3d4c     controlador.obj
 0003:00001d68       ??_C@_0BF@EJNEJLDC@inimigos?1tekken2?4bmp?$AA@ 004d3d68     controlador.obj
 0003:00001d84       ??_C@_0BF@MPEAOJJM@inimigos?1tekken1?4bmp?$AA@ 004d3d84     controlador.obj
 0003:00001da0       ??_C@_0BF@BJBJAKIB@inimigos?1tekken7?4bmp?$AA@ 004d3da0     controlador.obj
 0003:00001dbc       ??_C@_0BF@NCEFNJCE@inimigos?1tekken6?4bmp?$AA@ 004d3dbc     controlador.obj
 0003:00001ddc       ??_7Heihachi@@6B@          004d3ddc     controlador.obj
 0003:00001de4       ??_C@_0BI@FLIIOKMJ@inimigos?1valkirie11?4bmp?$AA@ 004d3de4     controlador.obj
 0003:00001e00       ??_C@_0BI@JANEDJGM@inimigos?1valkirie10?4bmp?$AA@ 004d3e00     controlador.obj
 0003:00001e1c       ??_C@_0BH@CNFAOLBJ@inimigos?1valkirie9?4bmp?$AA@ 004d3e1c     controlador.obj
 0003:00001e38       ??_C@_0BH@OGAMDILM@inimigos?1valkirie8?4bmp?$AA@ 004d3e38     controlador.obj
 0003:00001e54       ??_C@_0BH@BHFKIKGJ@inimigos?1valkirie7?4bmp?$AA@ 004d3e54     controlador.obj
 0003:00001e70       ??_C@_0BH@NMAGFJMM@inimigos?1valkirie6?4bmp?$AA@ 004d3e70     controlador.obj
 0003:00001e8c       ??_C@_0BH@FKJCCLGC@inimigos?1valkirie5?4bmp?$AA@ 004d3e8c     controlador.obj
 0003:00001ea8       ??_C@_0BH@JBMOPIMH@inimigos?1valkirie4?4bmp?$AA@ 004d3ea8     controlador.obj
 0003:00001ec4       ??_C@_0BH@IMMLMIHP@inimigos?1valkirie3?4bmp?$AA@ 004d3ec4     controlador.obj
 0003:00001ee0       ??_C@_0BH@EHJHBLNK@inimigos?1valkirie2?4bmp?$AA@ 004d3ee0     controlador.obj
 0003:00001efc       ??_C@_0BH@MBADGJHE@inimigos?1valkirie1?4bmp?$AA@ 004d3efc     controlador.obj
 0003:00001f1c       ??_7Valkirie@@6B@          004d3f1c     controlador.obj
 0003:00001f24       ??_C@_0BG@HLOCCOIM@inimigos?1voando_1?4bmp?$AA@ 004d3f24     controlador.obj
 0003:00001f40       ??_C@_0BI@DGGCPBOJ@inimigos?1parado_v_2?4bmp?$AA@ 004d3f40     controlador.obj
 0003:00001f5c       ??_C@_0BI@HLKKFAOC@inimigos?1parado_v_0?4bmp?$AA@ 004d3f5c     controlador.obj
 0003:00001f78       ??_C@_0BI@LAPGIDEH@inimigos?1parado_v_1?4bmp?$AA@ 004d3f78     controlador.obj
 0003:00001f98       ??_7Imp@@6B@               004d3f98     controlador.obj
 0003:00001fa0       ??_C@_0BN@IBHGJEFD@inimigos?1monstroandando1?4bmp?$AA@ 004d3fa0     controlador.obj
 0003:00001fc4       ??_C@_0BN@EKCKEHPG@inimigos?1monstroandando0?4bmp?$AA@ 004d3fc4     controlador.obj
 0003:00001fe8       ??_C@_0BM@JJLLAHFL@inimigos?1monstroparado3?4bmp?$AA@ 004d3fe8     controlador.obj
 0003:0000200c       ??_C@_0BM@FCOHNEPO@inimigos?1monstroparado2?4bmp?$AA@ 004d400c     controlador.obj
 0003:00002030       ??_C@_0BM@NEHDKGFA@inimigos?1monstroparado1?4bmp?$AA@ 004d4030     controlador.obj
 0003:00002054       ??_C@_0BM@BPCPHFPF@inimigos?1monstroparado0?4bmp?$AA@ 004d4054     controlador.obj
 0003:0000207c       ??_7Boss@@6B@              004d407c     controlador.obj
 0003:00002088       __real@4060000000000000    004d4088     controlador.obj
 0003:00002098       __real@4000000000000000    004d4098     controlador.obj
 0003:000020a8       __real@4059000000000000    004d40a8     controlador.obj
 0003:000020b8       __real@406fe00000000000    004d40b8     controlador.obj
 0003:000020c4       ??_C@_0BF@OFHJBOOK@mascaras?1chute5M?4bmp?$AA@ 004d40c4     felicia.obj
 0003:000020e0       ??_C@_0BF@EDAOBFFO@mascaras?1chute4M?4bmp?$AA@ 004d40e0     felicia.obj
 0003:000020fc       ??_C@_0BF@IGKJCLNA@mascaras?1chute3M?4bmp?$AA@ 004d40fc     felicia.obj
 0003:00002118       ??_C@_0BF@CANOCAGE@mascaras?1chute2M?4bmp?$AA@ 004d4118     felicia.obj
 0003:00002134       ??_C@_0BF@BBDGDKPJ@mascaras?1chute1M?4bmp?$AA@ 004d4134     felicia.obj
 0003:00002150       ??_C@_0BF@LHEBDBEN@mascaras?1chute0M?4bmp?$AA@ 004d4150     felicia.obj
 0003:0000216c       ??_C@_0BG@LDFHJDOC@mascaras?1joelho5M?4bmp?$AA@ 004d416c     felicia.obj
 0003:00002188       ??_C@_0BG@BFCAJIFG@mascaras?1joelho4M?4bmp?$AA@ 004d4188     felicia.obj
 0003:000021a4       ??_C@_0BG@NAIHKGNI@mascaras?1joelho3M?4bmp?$AA@ 004d41a4     felicia.obj
 0003:000021c0       ??_C@_0BG@HGPAKNGM@mascaras?1joelho2M?4bmp?$AA@ 004d41c0     felicia.obj
 0003:000021dc       ??_C@_0BG@EHBILHPB@mascaras?1joelho1M?4bmp?$AA@ 004d41dc     felicia.obj
 0003:000021f8       ??_C@_0BG@OBGPLMEF@mascaras?1joelho0M?4bmp?$AA@ 004d41f8     felicia.obj
 0003:00002214       ??_C@_0BF@ENBJEJJH@mascaras?1garra2M?4bmp?$AA@ 004d4214     felicia.obj
 0003:00002230       ??_C@_0BF@HMPBFDAK@mascaras?1garra1M?4bmp?$AA@ 004d4230     felicia.obj
 0003:0000224c       ??_C@_0BF@NKIGFILO@mascaras?1garra0M?4bmp?$AA@ 004d424c     felicia.obj
 0003:00002268       ??_C@_0BE@NGBMPIO@mascaras?1jump1M?4bmp?$AA@ 004d4268     felicia.obj
 0003:00002280       ??_C@_0BE@KLBGMEDK@mascaras?1jump0M?4bmp?$AA@ 004d4280     felicia.obj
 0003:00002298       ??_C@_0BE@LNCIOGHL@mascaras?1step2M?4bmp?$AA@ 004d4298     felicia.obj
 0003:000022b0       ??_C@_0BE@IMMAPMOG@mascaras?1step1M?4bmp?$AA@ 004d42b0     felicia.obj
 0003:000022c8       ??_C@_0BE@CKLHPHFC@mascaras?1step0M?4bmp?$AA@ 004d42c8     felicia.obj
 0003:000022e0       ??_C@_0BD@HMELLEJA@figuras?1chute5?4bmp?$AA@ 004d42e0     felicia.obj
 0003:000022f8       ??_C@_0BD@LHBHGHDF@figuras?1chute4?4bmp?$AA@ 004d42f8     felicia.obj
 0003:00002310       ??_C@_0BD@KKBCFHIN@figuras?1chute3?4bmp?$AA@ 004d4310     felicia.obj
 0003:00002328       ??_C@_0BD@GBEOIECI@figuras?1chute2?4bmp?$AA@ 004d4328     felicia.obj
 0003:00002340       ??_C@_0BD@OHNKPGIG@figuras?1chute1?4bmp?$AA@ 004d4340     felicia.obj
 0003:00002358       ??_C@_0BD@CMIGCFCD@figuras?1chute0?4bmp?$AA@ 004d4358     felicia.obj
 0003:00002370       ??_C@_0BE@PPEHCLNI@figuras?1joelho5?4bmp?$AA@ 004d4370     felicia.obj
 0003:00002388       ??_C@_0BE@DEBLPIHN@figuras?1joelho4?4bmp?$AA@ 004d4388     felicia.obj
 0003:000023a0       ??_C@_0BE@CJBOMIMF@figuras?1joelho3?4bmp?$AA@ 004d43a0     felicia.obj
 0003:000023b8       ??_C@_0BE@OCECBLGA@figuras?1joelho2?4bmp?$AA@ 004d43b8     felicia.obj
 0003:000023d0       ??_C@_0BE@GENGGJMO@figuras?1joelho1?4bmp?$AA@ 004d43d0     felicia.obj
 0003:000023e8       ??_C@_0BE@KPIKLKGL@figuras?1joelho0?4bmp?$AA@ 004d43e8     felicia.obj
 0003:00002400       ??_C@_0BD@HLMDJMDN@figuras?1garra2?4bmp?$AA@ 004d4400     felicia.obj
 0003:00002418       ??_C@_0BD@PNFHOOJD@figuras?1garra1?4bmp?$AA@ 004d4418     felicia.obj
 0003:00002430       ??_C@_0BD@DGALDNDG@figuras?1garra0?4bmp?$AA@ 004d4430     felicia.obj
 0003:00002448       ??_C@_0BC@JIAIPGEF@figuras?1jump1?4bmp?$AA@ 004d4448     felicia.obj
 0003:00002460       ??_C@_0BC@FDFECFOA@figuras?1jump0?4bmp?$AA@ 004d4460     felicia.obj
 0003:00002478       ??_C@_0BC@BLJCBDP@figuras?1step2?4bmp?$AA@ 004d4478     felicia.obj
 0003:00002490       ??_C@_0BC@IHCNFDJB@figuras?1step1?4bmp?$AA@ 004d4490     felicia.obj
 0003:000024a8       ??_C@_0BC@EMHBIADE@figuras?1step0?4bmp?$AA@ 004d44a8     felicia.obj
 0003:000024c4       ??_7Felicia@@6B@           004d44c4     felicia.obj
 0003:000024d0       ??_C@_0P@GHFPNOJB@bad?5allocation?$AA@ 004d44d0     idl.obj
 0003:000024e4       ?collate@?$_Locbase@H@std@@2HB 004d44e4     idl.obj
 0003:000024e8       ?ctype@?$_Locbase@H@std@@2HB 004d44e8     idl.obj
 0003:000024ec       ?monetary@?$_Locbase@H@std@@2HB 004d44ec     idl.obj
 0003:000024f0       ?numeric@?$_Locbase@H@std@@2HB 004d44f0     idl.obj
 0003:000024f4       ?time@?$_Locbase@H@std@@2HB 004d44f4     idl.obj
 0003:000024f8       ?messages@?$_Locbase@H@std@@2HB 004d44f8     idl.obj
 0003:000024fc       ?all@?$_Locbase@H@std@@2HB 004d44fc     idl.obj
 0003:00002500       ?none@?$_Locbase@H@std@@2HB 004d4500     idl.obj
 0003:00002504       ?table_size@?$ctype@D@std@@2IB 004d4504     idl.obj
 0003:00002508       ?skipws@?$_Iosb@H@std@@2W4_Fmtflags@12@B 004d4508     idl.obj
 0003:0000250c       ?unitbuf@?$_Iosb@H@std@@2W4_Fmtflags@12@B 004d450c     idl.obj
 0003:00002510       ?uppercase@?$_Iosb@H@std@@2W4_Fmtflags@12@B 004d4510     idl.obj
 0003:00002514       ?showbase@?$_Iosb@H@std@@2W4_Fmtflags@12@B 004d4514     idl.obj
 0003:00002518       ?showpoint@?$_Iosb@H@std@@2W4_Fmtflags@12@B 004d4518     idl.obj
 0003:0000251c       ?showpos@?$_Iosb@H@std@@2W4_Fmtflags@12@B 004d451c     idl.obj
 0003:00002520       ?left@?$_Iosb@H@std@@2W4_Fmtflags@12@B 004d4520     idl.obj
 0003:00002524       ?right@?$_Iosb@H@std@@2W4_Fmtflags@12@B 004d4524     idl.obj
 0003:00002528       ?internal@?$_Iosb@H@std@@2W4_Fmtflags@12@B 004d4528     idl.obj
 0003:0000252c       ?dec@?$_Iosb@H@std@@2W4_Fmtflags@12@B 004d452c     idl.obj
 0003:00002530       ?oct@?$_Iosb@H@std@@2W4_Fmtflags@12@B 004d4530     idl.obj
 0003:00002534       ?hex@?$_Iosb@H@std@@2W4_Fmtflags@12@B 004d4534     idl.obj
 0003:00002538       ?scientific@?$_Iosb@H@std@@2W4_Fmtflags@12@B 004d4538     idl.obj
 0003:0000253c       ?fixed@?$_Iosb@H@std@@2W4_Fmtflags@12@B 004d453c     idl.obj
 0003:00002540       ?boolalpha@?$_Iosb@H@std@@2W4_Fmtflags@12@B 004d4540     idl.obj
 0003:00002544       ?_Stdio@?$_Iosb@H@std@@2W4_Fmtflags@12@B 004d4544     idl.obj
 0003:00002548       ?adjustfield@?$_Iosb@H@std@@2W4_Fmtflags@12@B 004d4548     idl.obj
 0003:0000254c       ?basefield@?$_Iosb@H@std@@2W4_Fmtflags@12@B 004d454c     idl.obj
 0003:00002550       ?floatfield@?$_Iosb@H@std@@2W4_Fmtflags@12@B 004d4550     idl.obj
 0003:00002554       ?goodbit@?$_Iosb@H@std@@2W4_Iostate@12@B 004d4554     idl.obj
 0003:00002558       ?eofbit@?$_Iosb@H@std@@2W4_Iostate@12@B 004d4558     idl.obj
 0003:0000255c       ?failbit@?$_Iosb@H@std@@2W4_Iostate@12@B 004d455c     idl.obj
 0003:00002560       ?badbit@?$_Iosb@H@std@@2W4_Iostate@12@B 004d4560     idl.obj
 0003:00002564       ?_Hardfail@?$_Iosb@H@std@@2W4_Iostate@12@B 004d4564     idl.obj
 0003:00002568       ?in@?$_Iosb@H@std@@2W4_Openmode@12@B 004d4568     idl.obj
 0003:0000256c       ?out@?$_Iosb@H@std@@2W4_Openmode@12@B 004d456c     idl.obj
 0003:00002570       ?ate@?$_Iosb@H@std@@2W4_Openmode@12@B 004d4570     idl.obj
 0003:00002574       ?app@?$_Iosb@H@std@@2W4_Openmode@12@B 004d4574     idl.obj
 0003:00002578       ?trunc@?$_Iosb@H@std@@2W4_Openmode@12@B 004d4578     idl.obj
 0003:0000257c       ?_Nocreate@?$_Iosb@H@std@@2W4_Openmode@12@B 004d457c     idl.obj
 0003:00002580       ?_Noreplace@?$_Iosb@H@std@@2W4_Openmode@12@B 004d4580     idl.obj
 0003:00002584       ?binary@?$_Iosb@H@std@@2W4_Openmode@12@B 004d4584     idl.obj
 0003:00002588       ?beg@?$_Iosb@H@std@@2W4_Seekdir@12@B 004d4588     idl.obj
 0003:0000258c       ?cur@?$_Iosb@H@std@@2W4_Seekdir@12@B 004d458c     idl.obj
 0003:00002590       ?end@?$_Iosb@H@std@@2W4_Seekdir@12@B 004d4590     idl.obj
 0003:00002594       ?has_denorm@_Num_base@std@@2W4float_denorm_style@2@B 004d4594     idl.obj
 0003:00002598       ?has_denorm_loss@_Num_base@std@@2_NB 004d4598     idl.obj
 0003:00002599       ?has_infinity@_Num_base@std@@2_NB 004d4599     idl.obj
 0003:0000259a       ?has_quiet_NaN@_Num_base@std@@2_NB 004d459a     idl.obj
 0003:0000259b       ?has_signaling_NaN@_Num_base@std@@2_NB 004d459b     idl.obj
 0003:0000259c       ?is_bounded@_Num_base@std@@2_NB 004d459c     idl.obj
 0003:0000259d       ?is_exact@_Num_base@std@@2_NB 004d459d     idl.obj
 0003:0000259e       ?is_iec559@_Num_base@std@@2_NB 004d459e     idl.obj
 0003:0000259f       ?is_integer@_Num_base@std@@2_NB 004d459f     idl.obj
 0003:000025a0       ?is_modulo@_Num_base@std@@2_NB 004d45a0     idl.obj
 0003:000025a1       ?is_signed@_Num_base@std@@2_NB 004d45a1     idl.obj
 0003:000025a2       ?is_specialized@_Num_base@std@@2_NB 004d45a2     idl.obj
 0003:000025a3       ?tinyness_before@_Num_base@std@@2_NB 004d45a3     idl.obj
 0003:000025a4       ?traps@_Num_base@std@@2_NB 004d45a4     idl.obj
 0003:000025a8       ?round_style@_Num_base@std@@2W4float_round_style@2@B 004d45a8     idl.obj
 0003:000025ac       ?digits@_Num_base@std@@2HB 004d45ac     idl.obj
 0003:000025b0       ?digits10@_Num_base@std@@2HB 004d45b0     idl.obj
 0003:000025b4       ?max_exponent@_Num_base@std@@2HB 004d45b4     idl.obj
 0003:000025b8       ?max_exponent10@_Num_base@std@@2HB 004d45b8     idl.obj
 0003:000025bc       ?min_exponent@_Num_base@std@@2HB 004d45bc     idl.obj
 0003:000025c0       ?min_exponent10@_Num_base@std@@2HB 004d45c0     idl.obj
 0003:000025c4       ?radix@_Num_base@std@@2HB  004d45c4     idl.obj
 0003:000025c8       ?is_bounded@_Num_int_base@std@@2_NB 004d45c8     idl.obj
 0003:000025c9       ?is_exact@_Num_int_base@std@@2_NB 004d45c9     idl.obj
 0003:000025ca       ?is_integer@_Num_int_base@std@@2_NB 004d45ca     idl.obj
 0003:000025cb       ?is_modulo@_Num_int_base@std@@2_NB 004d45cb     idl.obj
 0003:000025cc       ?is_specialized@_Num_int_base@std@@2_NB 004d45cc     idl.obj
 0003:000025d0       ?radix@_Num_int_base@std@@2HB 004d45d0     idl.obj
 0003:000025d4       ?has_denorm@_Num_float_base@std@@2W4float_denorm_style@2@B 004d45d4     idl.obj
 0003:000025d8       ?has_denorm_loss@_Num_float_base@std@@2_NB 004d45d8     idl.obj
 0003:000025d9       ?has_infinity@_Num_float_base@std@@2_NB 004d45d9     idl.obj
 0003:000025da       ?has_quiet_NaN@_Num_float_base@std@@2_NB 004d45da     idl.obj
 0003:000025db       ?has_signaling_NaN@_Num_float_base@std@@2_NB 004d45db     idl.obj
 0003:000025dc       ?is_bounded@_Num_float_base@std@@2_NB 004d45dc     idl.obj
 0003:000025dd       ?is_exact@_Num_float_base@std@@2_NB 004d45dd     idl.obj
 0003:000025de       ?is_iec559@_Num_float_base@std@@2_NB 004d45de     idl.obj
 0003:000025df       ?is_integer@_Num_float_base@std@@2_NB 004d45df     idl.obj
 0003:000025e0       ?is_modulo@_Num_float_base@std@@2_NB 004d45e0     idl.obj
 0003:000025e1       ?is_signed@_Num_float_base@std@@2_NB 004d45e1     idl.obj
 0003:000025e2       ?is_specialized@_Num_float_base@std@@2_NB 004d45e2     idl.obj
 0003:000025e3       ?tinyness_before@_Num_float_base@std@@2_NB 004d45e3     idl.obj
 0003:000025e4       ?traps@_Num_float_base@std@@2_NB 004d45e4     idl.obj
 0003:000025e8       ?round_style@_Num_float_base@std@@2W4float_round_style@2@B 004d45e8     idl.obj
 0003:000025ec       ?radix@_Num_float_base@std@@2HB 004d45ec     idl.obj
 0003:000025f0       ?is_signed@?$numeric_limits@D@std@@2_NB 004d45f0     idl.obj
 0003:000025f4       ?digits@?$numeric_limits@D@std@@2HB 004d45f4     idl.obj
 0003:000025f8       ?digits10@?$numeric_limits@D@std@@2HB 004d45f8     idl.obj
 0003:000025fc       ?is_signed@?$numeric_limits@_W@std@@2_NB 004d45fc     idl.obj
 0003:00002600       ?digits@?$numeric_limits@_W@std@@2HB 004d4600     idl.obj
 0003:00002604       ?digits10@?$numeric_limits@_W@std@@2HB 004d4604     idl.obj
 0003:00002608       ?is_modulo@?$numeric_limits@_N@std@@2_NB 004d4608     idl.obj
 0003:00002609       ?is_signed@?$numeric_limits@_N@std@@2_NB 004d4609     idl.obj
 0003:0000260c       ?digits@?$numeric_limits@_N@std@@2HB 004d460c     idl.obj
 0003:00002610       ?digits10@?$numeric_limits@_N@std@@2HB 004d4610     idl.obj
 0003:00002614       ?is_signed@?$numeric_limits@C@std@@2_NB 004d4614     idl.obj
 0003:00002618       ?digits@?$numeric_limits@C@std@@2HB 004d4618     idl.obj
 0003:0000261c       ?digits10@?$numeric_limits@C@std@@2HB 004d461c     idl.obj
 0003:00002620       ?is_signed@?$numeric_limits@E@std@@2_NB 004d4620     idl.obj
 0003:00002624       ?digits@?$numeric_limits@E@std@@2HB 004d4624     idl.obj
 0003:00002628       ?digits10@?$numeric_limits@E@std@@2HB 004d4628     idl.obj
 0003:0000262c       ?is_signed@?$numeric_limits@F@std@@2_NB 004d462c     idl.obj
 0003:00002630       ?digits@?$numeric_limits@F@std@@2HB 004d4630     idl.obj
 0003:00002634       ?digits10@?$numeric_limits@F@std@@2HB 004d4634     idl.obj
 0003:00002638       ?is_signed@?$numeric_limits@G@std@@2_NB 004d4638     idl.obj
 0003:0000263c       ?digits@?$numeric_limits@G@std@@2HB 004d463c     idl.obj
 0003:00002640       ?digits10@?$numeric_limits@G@std@@2HB 004d4640     idl.obj
 0003:00002644       ?is_signed@?$numeric_limits@H@std@@2_NB 004d4644     idl.obj
 0003:00002648       ?digits@?$numeric_limits@H@std@@2HB 004d4648     idl.obj
 0003:0000264c       ?digits10@?$numeric_limits@H@std@@2HB 004d464c     idl.obj
 0003:00002650       ?is_signed@?$numeric_limits@I@std@@2_NB 004d4650     idl.obj
 0003:00002654       ?digits@?$numeric_limits@I@std@@2HB 004d4654     idl.obj
 0003:00002658       ?digits10@?$numeric_limits@I@std@@2HB 004d4658     idl.obj
 0003:0000265c       ?is_signed@?$numeric_limits@J@std@@2_NB 004d465c     idl.obj
 0003:00002660       ?digits@?$numeric_limits@J@std@@2HB 004d4660     idl.obj
 0003:00002664       ?digits10@?$numeric_limits@J@std@@2HB 004d4664     idl.obj
 0003:00002668       ?is_signed@?$numeric_limits@K@std@@2_NB 004d4668     idl.obj
 0003:0000266c       ?digits@?$numeric_limits@K@std@@2HB 004d466c     idl.obj
 0003:00002670       ?digits10@?$numeric_limits@K@std@@2HB 004d4670     idl.obj
 0003:00002674       ?is_signed@?$numeric_limits@_J@std@@2_NB 004d4674     idl.obj
 0003:00002678       ?digits@?$numeric_limits@_J@std@@2HB 004d4678     idl.obj
 0003:0000267c       ?digits10@?$numeric_limits@_J@std@@2HB 004d467c     idl.obj
 0003:00002680       ?is_signed@?$numeric_limits@_K@std@@2_NB 004d4680     idl.obj
 0003:00002684       ?digits@?$numeric_limits@_K@std@@2HB 004d4684     idl.obj
 0003:00002688       ?digits10@?$numeric_limits@_K@std@@2HB 004d4688     idl.obj
 0003:0000268c       ?digits@?$numeric_limits@M@std@@2HB 004d468c     idl.obj
 0003:00002690       ?digits10@?$numeric_limits@M@std@@2HB 004d4690     idl.obj
 0003:00002694       ?max_exponent@?$numeric_limits@M@std@@2HB 004d4694     idl.obj
 0003:00002698       ?max_exponent10@?$numeric_limits@M@std@@2HB 004d4698     idl.obj
 0003:0000269c       ?min_exponent@?$numeric_limits@M@std@@2HB 004d469c     idl.obj
 0003:000026a0       ?min_exponent10@?$numeric_limits@M@std@@2HB 004d46a0     idl.obj
 0003:000026a4       ?digits@?$numeric_limits@N@std@@2HB 004d46a4     idl.obj
 0003:000026a8       ?digits10@?$numeric_limits@N@std@@2HB 004d46a8     idl.obj
 0003:000026ac       ?max_exponent@?$numeric_limits@N@std@@2HB 004d46ac     idl.obj
 0003:000026b0       ?max_exponent10@?$numeric_limits@N@std@@2HB 004d46b0     idl.obj
 0003:000026b4       ?min_exponent@?$numeric_limits@N@std@@2HB 004d46b4     idl.obj
 0003:000026b8       ?min_exponent10@?$numeric_limits@N@std@@2HB 004d46b8     idl.obj
 0003:000026bc       ?digits@?$numeric_limits@O@std@@2HB 004d46bc     idl.obj
 0003:000026c0       ?digits10@?$numeric_limits@O@std@@2HB 004d46c0     idl.obj
 0003:000026c4       ?max_exponent@?$numeric_limits@O@std@@2HB 004d46c4     idl.obj
 0003:000026c8       ?max_exponent10@?$numeric_limits@O@std@@2HB 004d46c8     idl.obj
 0003:000026cc       ?min_exponent@?$numeric_limits@O@std@@2HB 004d46cc     idl.obj
 0003:000026d0       ?min_exponent10@?$numeric_limits@O@std@@2HB 004d46d0     idl.obj
 0003:000026d4       ?_EEM_DS@?$deque@KV?$allocator@K@std@@@std@@2HB 004d46d4     idl.obj
 0003:000026dc       ??_7_Marshaller_InfoHeroi@@6B@ 004d46dc     idl.obj
 0003:0000270c       ??_7_Marshaller_InfoInimigo@@6B@ 004d470c     idl.obj
 0003:0000273c       ??_7_Marshaller_InfoItem@@6B@ 004d473c     idl.obj
 0003:0000276c       ??_7_Marshaller_InfoFase@@6B@ 004d476c     idl.obj
 0003:0000279c       ??_7_Marshaller_InfoInicial@@6B@ 004d479c     idl.obj
 0003:000027cc       ??_7InterfaceServidor@@6BObject@CORBA@@@ 004d47cc     idl.obj
 0003:000027dc       ??_7InterfaceServidor@@6B0@@ 004d47dc     idl.obj
 0003:000027ec       ??_C@_0BK@EJNPGEDM@IDL?3InterfaceServidor?31?40?$AA@ 004d47ec     idl.obj
 0003:00002810       ??_7InterfaceServidor_stub@@6BInterfaceServidor@@@ 004d4810     idl.obj
 0003:00002824       ??_7InterfaceServidor_stub@@6BObject@CORBA@@@ 004d4824     idl.obj
 0003:00002830       ??_8InterfaceServidor_stub@@7BInterfaceServidor@@@ 004d4830     idl.obj
 0003:0000283c       ??_8InterfaceServidor_stub@@7B0@@ 004d483c     idl.obj
 0003:0000284c       ??_8InterfaceServidor@@7B@ 004d484c     idl.obj
 0003:0000285c       ??_7_Marshaller_InterfaceServidor@@6B@ 004d485c     idl.obj
 0003:0000288c       ??_7InterfaceServidor_stub_clp@@6BInterfaceServidor@@@ 004d488c     idl.obj
 0003:000028a0       ??_7InterfaceServidor_stub_clp@@6BObject@CORBA@@@ 004d48a0     idl.obj
 0003:000028ac       ??_8InterfaceServidor_stub_clp@@7BStubBase@PortableServer@@@ 004d48ac     idl.obj
 0003:000028b8       ??_8InterfaceServidor_stub_clp@@7BInterfaceServidor_stub@@@ 004d48b8     idl.obj
 0003:000028c8       ??_8InterfaceServidor_stub_clp@@7BInterfaceServidor@@@ 004d48c8     idl.obj
 0003:000028d4       ??_8InterfaceServidor_stub_clp@@7B0@@ 004d48d4     idl.obj
 0003:000028ec       ??_C@_0P@KJCKMLOO@getInfoInicial?$AA@ 004d48ec     idl.obj
 0003:00002900       ??_C@_0EF@FIIPDB@c?3?2documents?5and?5settings?2lab3?2d@ 004d4900     idl.obj
 0003:00002954       ??_C@_0M@LKEBBEGO@getInfoFase?$AA@ 004d4954     idl.obj
 0003:00002964       ??_C@_0M@NNJGHKD@reagirTecla?$AA@ 004d4964     idl.obj
 0003:00002978       ??_7_Marshaller__seq_InfoInimigo@@6B@ 004d4978     idl.obj
 0003:000029a8       ??_7_Marshaller__seq_InfoItem@@6B@ 004d49a8     idl.obj
 0003:000029d8       ??_7POA_InterfaceServidor@@6BStaticImplementation@PortableServer@@@ 004d49d8     idl.obj
 0003:000029e4       ??_7POA_InterfaceServidor@@6BServantBase@PortableServer@@@ 004d49e4     idl.obj
 0003:00002a2c       ??_7POA_InterfaceServidor@@6B@ 004d4a2c     idl.obj
 0003:00002a3c       ??_C@_0DN@FNDCFGEL@c?3?2program?5files?2microsoft?5visua@ 004d4a3c     idl.obj
 0003:00002a8c       ??_7bad_alloc@std@@6B@     004d4a8c     idl.obj
 0003:00002a98       ??_C@_1DC@POOIKBAO@?$AAI?$AAT?$AAE?$AAR?$AAA?$AAT?$AAO?$AAR?$AA?5?$AAL?$AAI?$AAS?$AAT?$AA?5?$AAC?$AAO?$AAR?$AAR?$AAU?$AAP?$AAT?$AAE?$AAD?$AA?$CB?$AA?$AA@ 004d4a98     idl.obj
 0003:00002ad8       ??_C@_1HO@NAKOAEEB@?$AAc?$AA?3?$AA?2?$AAp?$AAr?$AAo?$AAg?$AAr?$AAa?$AAm?$AA?5?$AAf?$AAi?$AAl?$AAe?$AAs?$AA?2?$AAm?$AAi?$AAc?$AAr?$AAo?$AAs?$AAo?$AAf?$AAt?$AA?5?$AAv?$AAi?$AAs?$AAu?$AAa@ 004d4ad8     idl.obj
 0003:00002b70       ??_C@_1EI@HGIDLLCM@?$AAv?$AAe?$AAc?$AAt?$AAo?$AAr?$AA?5?$AAe?$AAr?$AAa?$AAs?$AAe?$AA?5?$AAi?$AAt?$AAe?$AAr?$AAa?$AAt?$AAo?$AAr?$AA?5?$AAo?$AAu?$AAt?$AAs?$AAi?$AAd?$AAe?$AA?5?$AAr?$AAa@ 004d4b70     idl.obj
 0003:00002bc8       ??_C@_1HK@HNILGGDB@?$AAc?$AA?3?$AA?2?$AAp?$AAr?$AAo?$AAg?$AAr?$AAa?$AAm?$AA?5?$AAf?$AAi?$AAl?$AAe?$AAs?$AA?2?$AAm?$AAi?$AAc?$AAr?$AAo?$AAs?$AAo?$AAf?$AAt?$AA?5?$AAv?$AAi?$AAs?$AAu?$AAa@ 004d4bc8     idl.obj
 0003:00002c5c       ??_C@_0BD@OLBABOEK@vector?$DMT?$DO?5too?5long?$AA@ 004d4c5c     idl.obj
 0003:00002c78       ??_7length_error@std@@6B@  004d4c78     idl.obj
 0003:00002c88       ??_7logic_error@std@@6B@   004d4c88     idl.obj
 0003:00002c94       ?npos@?$basic_string@DU?$char_traits@D@std@@V?$allocator@D@2@@std@@2IB 004d4c94     idl.obj
 0003:00002c98       ??_C@_1HM@LNGKEPMM@?$AAc?$AA?3?$AA?2?$AAp?$AAr?$AAo?$AAg?$AAr?$AAa?$AAm?$AA?5?$AAf?$AAi?$AAl?$AAe?$AAs?$AA?2?$AAm?$AAi?$AAc?$AAr?$AAo?$AAs?$AAo?$AAf?$AAt?$AA?5?$AAv?$AAi?$AAs?$AAu?$AAa@ 004d4c98     idl.obj
 0003:00002d2c       ??_C@_1CG@JNLFBNGN@?$AA?$CC?$AAi?$AAn?$AAv?$AAa?$AAl?$AAi?$AAd?$AA?5?$AAa?$AAr?$AAg?$AAu?$AAm?$AAe?$AAn?$AAt?$AA?$CC?$AA?$AA@ 004d4d2c     idl.obj
 0003:00002d60       ??_C@_1OE@PNBCECPE@?$AAs?$AAt?$AAd?$AA?3?$AA?3?$AA_?$AAV?$AAe?$AAc?$AAt?$AAo?$AAr?$AA_?$AAc?$AAo?$AAn?$AAs?$AAt?$AA_?$AAi?$AAt?$AAe?$AAr?$AAa?$AAt?$AAo?$AAr?$AA?$DM?$AAs?$AAt?$AAr?$AAu@ 004d4d60     idl.obj
 0003:00002e78       ??_C@_1NK@JLHOCNGO@?$AA?$CI?$AA?$CC?$AA_?$AAP?$AAv?$AAe?$AAc?$AAt?$AAo?$AAr?$AA?5?$AA?$DN?$AA?$DN?$AA?5?$AAN?$AAU?$AAL?$AAL?$AA?5?$AA?$HM?$AA?$HM?$AA?5?$AA?$CI?$AA?$CI?$AA?$CI?$AA_?$AAM?$AAy?$AAv?$AAe?$AAc?$AA?5@ 004d4e78     idl.obj
 0003:00002f80       ??_C@_1MG@ILKMECCG@?$AAs?$AAt?$AAd?$AA?3?$AA?3?$AA_?$AAV?$AAe?$AAc?$AAt?$AAo?$AAr?$AA_?$AAc?$AAo?$AAn?$AAs?$AAt?$AA_?$AAi?$AAt?$AAe?$AAr?$AAa?$AAt?$AAo?$AAr?$AA?$DM?$AAs?$AAt?$AAr?$AAu@ 004d4f80     idl.obj
 0003:00003070       ??_C@_1FO@OCPOOAIA@?$AA?$CI?$AA?$CC?$AAS?$AAt?$AAa?$AAn?$AAd?$AAa?$AAr?$AAd?$AA?5?$AAC?$AA?$CL?$AA?$CL?$AA?5?$AAL?$AAi?$AAb?$AAr?$AAa?$AAr?$AAi?$AAe?$AAs?$AA?5?$AAI?$AAn?$AAv?$AAa?$AAl?$AAi?$AAd@ 004d5070     idl.obj
 0003:000030e0       ??_C@_1DM@HINDPMBP@?$AAv?$AAe?$AAc?$AAt?$AAo?$AAr?$AA?5?$AAi?$AAt?$AAe?$AAr?$AAa?$AAt?$AAo?$AAr?$AAs?$AA?5?$AAi?$AAn?$AAc?$AAo?$AAm?$AAp?$AAa?$AAt?$AAi?$AAb?$AAl?$AAe?$AA?$AA@ 004d50e0     idl.obj
 0003:00003128       ??_C@_1NI@KMGOJJOF@?$AAs?$AAt?$AAd?$AA?3?$AA?3?$AA_?$AAV?$AAe?$AAc?$AAt?$AAo?$AAr?$AA_?$AAc?$AAo?$AAn?$AAs?$AAt?$AA_?$AAi?$AAt?$AAe?$AAr?$AAa?$AAt?$AAo?$AAr?$AA?$DM?$AAs?$AAt?$AAr?$AAu@ 004d5128     idl.obj
 0003:00003230       ??_C@_1LK@EGFFBMEG@?$AAs?$AAt?$AAd?$AA?3?$AA?3?$AA_?$AAV?$AAe?$AAc?$AAt?$AAo?$AAr?$AA_?$AAc?$AAo?$AAn?$AAs?$AAt?$AA_?$AAi?$AAt?$AAe?$AAr?$AAa?$AAt?$AAo?$AAr?$AA?$DM?$AAs?$AAt?$AAr?$AAu@ 004d5230     idl.obj
 0003:00003310       ??_C@_1CK@EOPGIILJ@?$AAi?$AAn?$AAv?$AAa?$AAl?$AAi?$AAd?$AA?5?$AAn?$AAu?$AAl?$AAl?$AA?5?$AAp?$AAo?$AAi?$AAn?$AAt?$AAe?$AAr?$AA?$AA@ 004d5310     idl.obj
 0003:00003344       ??_C@_1CK@POGJDOKA@?$AA?$CI?$AA?$CC?$AA_?$AAP?$AAo?$AAs?$AA?5?$AA?$DM?$AA?5?$AAs?$AAi?$AAz?$AAe?$AA?$CI?$AA?$CJ?$AA?$CC?$AA?0?$AA?5?$AA0?$AA?$CJ?$AA?$AA@ 004d5344     idl.obj
 0003:00003378       ??_C@_1BO@MEPPHOO@?$AA?$CC?$AAo?$AAu?$AAt?$AA?5?$AAo?$AAf?$AA?5?$AAr?$AAa?$AAn?$AAg?$AAe?$AA?$CC?$AA?$AA@ 004d5378     idl.obj
 0003:000033a0       ??_C@_1KO@KJFMKFDC@?$AAs?$AAt?$AAd?$AA?3?$AA?3?$AAv?$AAe?$AAc?$AAt?$AAo?$AAr?$AA?$DM?$AAs?$AAt?$AAr?$AAu?$AAc?$AAt?$AA?5?$AAI?$AAn?$AAf?$AAo?$AAI?$AAn?$AAi?$AAm?$AAi?$AAg?$AAo?$AA?0?$AAc@ 004d53a0     idl.obj
 0003:00003470       ??_C@_1FG@CMLDHNON@?$AA?$CI?$AA?$CC?$AAS?$AAt?$AAa?$AAn?$AAd?$AAa?$AAr?$AAd?$AA?5?$AAC?$AA?$CL?$AA?$CL?$AA?5?$AAL?$AAi?$AAb?$AAr?$AAa?$AAr?$AAi?$AAe?$AAs?$AA?5?$AAO?$AAu?$AAt?$AA?5?$AAo?$AAf?$AA?5@ 004d5470     idl.obj
 0003:000034d8       ??_C@_1DM@LHGCHCBA@?$AAv?$AAe?$AAc?$AAt?$AAo?$AAr?$AA?5?$AAs?$AAu?$AAb?$AAs?$AAc?$AAr?$AAi?$AAp?$AAt?$AA?5?$AAo?$AAu?$AAt?$AA?5?$AAo?$AAf?$AA?5?$AAr?$AAa?$AAn?$AAg?$AAe?$AA?$AA@ 004d54d8     idl.obj
 0003:00003520       ??_C@_1KC@BNIMKBLD@?$AAs?$AAt?$AAd?$AA?3?$AA?3?$AAv?$AAe?$AAc?$AAt?$AAo?$AAr?$AA?$DM?$AAs?$AAt?$AAr?$AAu?$AAc?$AAt?$AA?5?$AAI?$AAn?$AAf?$AAo?$AAI?$AAt?$AAe?$AAm?$AA?0?$AAc?$AAl?$AAa?$AAs@ 004d5520     idl.obj
 0003:000035e8       ??_C@_1EK@EEHFMKDC@?$AAv?$AAe?$AAc?$AAt?$AAo?$AAr?$AA?5?$AAi?$AAn?$AAs?$AAe?$AAr?$AAt?$AA?5?$AAi?$AAt?$AAe?$AAr?$AAa?$AAt?$AAo?$AAr?$AA?5?$AAo?$AAu?$AAt?$AAs?$AAi?$AAd?$AAe?$AA?5?$AAr@ 004d55e8     idl.obj
 0003:00003640       ??_C@_1OO@PBNBABMO@?$AA?$CI?$AA?$CC?$AA_?$AAM?$AAy?$AAp?$AAt?$AAr?$AA?5?$AA?$CL?$AA?5?$AA_?$AAO?$AAf?$AAf?$AA?5?$AA?$DM?$AA?$DN?$AA?5?$AA?$CI?$AA?$CI?$AA_?$AAM?$AAy?$AAv?$AAe?$AAc?$AA?5?$AA?$CK?$AA?$CJ?$AA?$CI?$AAt@ 004d5640     idl.obj
 0003:00003760       ??_C@_1MO@OBDFKFNK@?$AAs?$AAt?$AAd?$AA?3?$AA?3?$AA_?$AAV?$AAe?$AAc?$AAt?$AAo?$AAr?$AA_?$AAc?$AAo?$AAn?$AAs?$AAt?$AA_?$AAi?$AAt?$AAe?$AAr?$AAa?$AAt?$AAo?$AAr?$AA?$DM?$AAs?$AAt?$AAr?$AAu@ 004d5760     idl.obj
 0003:00003858       ??_C@_1DK@LIMPPGHH@?$AA?$CI?$AA?$CC?$AAt?$AAh?$AAi?$AAs?$AA?9?$AA?$DO?$AA_?$AAM?$AAy?$AAc?$AAo?$AAn?$AAt?$AA?5?$AA?$CB?$AA?$DN?$AA?5?$AAN?$AAU?$AAL?$AAL?$AA?$CC?$AA?0?$AA?5?$AA0?$AA?$CJ?$AA?$AA@ 004d5858     idl.obj
 0003:000038a0       ??_C@_1MC@GBCMPDDA@?$AAs?$AAt?$AAd?$AA?3?$AA?3?$AA_?$AAV?$AAe?$AAc?$AAt?$AAo?$AAr?$AA_?$AAc?$AAo?$AAn?$AAs?$AAt?$AA_?$AAi?$AAt?$AAe?$AAr?$AAa?$AAt?$AAo?$AAr?$AA?$DM?$AAs?$AAt?$AAr?$AAu@ 004d58a0     idl.obj
 0003:00003988       ??_C@_1HK@DFAOKDK@?$AAc?$AA?3?$AA?2?$AAp?$AAr?$AAo?$AAg?$AAr?$AAa?$AAm?$AA?5?$AAf?$AAi?$AAl?$AAe?$AAs?$AA?2?$AAm?$AAi?$AAc?$AAr?$AAo?$AAs?$AAo?$AAf?$AAt?$AA?5?$AAv?$AAi?$AAs?$AAu?$AAa@ 004d5988     idl.obj
 0003:00003a1c       ??_C@_1CO@DGLIKNHI@?$AAi?$AAn?$AAv?$AAa?$AAl?$AAi?$AAd?$AA?5?$AAi?$AAt?$AAe?$AAr?$AAa?$AAt?$AAo?$AAr?$AA?5?$AAr?$AAa?$AAn?$AAg?$AAe?$AA?$AA@ 004d5a1c     idl.obj
 0003:00003a58       ??_7StaticTypeInfo@CORBA@@6B@ 004d5a58     idl.obj
 0003:00003a88       ??_7Inimigo@@6B@           004d5a88     inimigo.obj
 0003:00003a94       ??_7Item@@6B@              004d5a94     item.obj
 0003:00003a9c       ??_C@_0BJ@HHFBCFEP@mascaras?1jinvoadoraM?4bmp?$AA@ 004d5a9c     jin.obj
 0003:00003abc       ??_C@_0BH@OJGJAAFP@mascaras?1jinpulo0M?4bmp?$AA@ 004d5abc     jin.obj
 0003:00003ad8       ??_C@_0BF@KEHPPGDE@mascaras?1morte3M?4bmp?$AA@ 004d5ad8     jin.obj
 0003:00003af4       ??_C@_0BF@CAIPNIA@mascaras?1morte2M?4bmp?$AA@ 004d5af4     jin.obj
 0003:00003b10       ??_C@_0BF@DDOAOHBN@mascaras?1morte1M?4bmp?$AA@ 004d5b10     jin.obj
 0003:00003b2c       ??_C@_0BF@JFJHOMKJ@mascaras?1morte0M?4bmp?$AA@ 004d5b2c     jin.obj
 0003:00003b48       ??_C@_0BI@LNMCHKEI@mascaras?1socoalto4M?4bmp?$AA@ 004d5b48     jin.obj
 0003:00003b64       ??_C@_0BI@HIGFEEMG@mascaras?1socoalto3M?4bmp?$AA@ 004d5b64     jin.obj
 0003:00003b80       ??_C@_0BI@NOBCEPHC@mascaras?1socoalto2M?4bmp?$AA@ 004d5b80     jin.obj
 0003:00003b9c       ??_C@_0BI@OPPKFFOP@mascaras?1socoalto1M?4bmp?$AA@ 004d5b9c     jin.obj
 0003:00003bb8       ??_C@_0BI@EJINFOFL@mascaras?1socoalto0M?4bmp?$AA@ 004d5bb8     jin.obj
 0003:00003bd4       ??_C@_0BI@KCHHBHPK@mascaras?1jinchute5M?4bmp?$AA@ 004d5bd4     jin.obj
 0003:00003bf0       ??_C@_0BI@EAABMEO@mascaras?1jinchute4M?4bmp?$AA@ 004d5bf0     jin.obj
 0003:00003c0c       ??_C@_0BI@MBKHCCMA@mascaras?1jinchute3M?4bmp?$AA@ 004d5c0c     jin.obj
 0003:00003c28       ??_C@_0BI@GHNACJHE@mascaras?1jinchute2M?4bmp?$AA@ 004d5c28     jin.obj
 0003:00003c44       ??_C@_0BI@FGDIDDOJ@mascaras?1jinchute1M?4bmp?$AA@ 004d5c44     jin.obj
 0003:00003c60       ??_C@_0BI@PAEPDIFN@mascaras?1jinchute0M?4bmp?$AA@ 004d5c60     jin.obj
 0003:00003c7c       ??_C@_0BI@JJICNDAB@mascaras?1jingolpe7M?4bmp?$AA@ 004d5c7c     jin.obj
 0003:00003c98       ??_C@_0BJ@PCAAGKJB@mascaras?1jingolpe6bM?4bmp?$AA@ 004d5c98     jin.obj
 0003:00003cb8       ??_C@_0BI@OBNMCCI@mascaras?1jingolpe5M?4bmp?$AA@ 004d5cb8     jin.obj
 0003:00003cd4       ??_C@_0BI@KIGKMJJM@mascaras?1jingolpe4M?4bmp?$AA@ 004d5cd4     jin.obj
 0003:00003cf0       ??_C@_0BI@GNMNPHBC@mascaras?1jingolpe3M?4bmp?$AA@ 004d5cf0     jin.obj
 0003:00003d0c       ??_C@_0BI@MLLKPMKG@mascaras?1jingolpe2M?4bmp?$AA@ 004d5d0c     jin.obj
 0003:00003d28       ??_C@_0BI@PKFCOGDL@mascaras?1jingolpe1M?4bmp?$AA@ 004d5d28     jin.obj
 0003:00003d44       ??_C@_0BI@FMCFONIP@mascaras?1jingolpe0M?4bmp?$AA@ 004d5d44     jin.obj
 0003:00003d60       ??_C@_0BE@FCMGKBNJ@mascaras?1jin6cM?4bmp?$AA@ 004d5d60     jin.obj
 0003:00003d78       ??_C@_0BE@LMFBKEAJ@mascaras?1jin3bM?4bmp?$AA@ 004d5d78     jin.obj
 0003:00003d90       ??_C@_0BD@MMMPBPOD@mascaras?1jin2M?4bmp?$AA@ 004d5d90     jin.obj
 0003:00003da8       ??_C@_0BD@KPBPCKNJ@mascaras?1jin4M?4bmp?$AA@ 004d5da8     jin.obj
 0003:00003dc0       ??_C@_0BK@NINNNDJE@mascaras?1jinParado3bM?4bmp?$AA@ 004d5dc0     jin.obj
 0003:00003de0       ??_C@_0BJ@BKPIFIGH@mascaras?1jinParado1M?4bmp?$AA@ 004d5de0     jin.obj
 0003:00003e00       ??_C@_0BE@HKDOKNIO@mascaras?1jin5bM?4bmp?$AA@ 004d5e00     jin.obj
 0003:00003e18       ??_C@_0BH@DKLKDNMB@figuras?1jinvoadora?4bmp?$AA@ 004d5e18     jin.obj
 0003:00003e34       ??_C@_0BF@OKKBMFBD@figuras?1jinpulo0?4bmp?$AA@ 004d5e34     jin.obj
 0003:00003e50       ??_C@_0BD@HONJAKDL@figuras?1morte3?4bmp?$AA@ 004d5e50     jin.obj
 0003:00003e68       ??_C@_0BD@LFIFNJJO@figuras?1morte2?4bmp?$AA@ 004d5e68     jin.obj
 0003:00003e80       ??_C@_0BD@DDBBKLDA@figuras?1morte1?4bmp?$AA@ 004d5e80     jin.obj
 0003:00003e98       ??_C@_0BD@PIENHIJF@figuras?1morte0?4bmp?$AA@ 004d5e98     jin.obj
 0003:00003eb0       ??_C@_0BG@MJBBJFIO@figuras?1socoalto4?4bmp?$AA@ 004d5eb0     jin.obj
 0003:00003ecc       ??_C@_0BG@NEBEKFDG@figuras?1socoalto3?4bmp?$AA@ 004d5ecc     jin.obj
 0003:00003ee8       ??_C@_0BG@BPEIHGJD@figuras?1socoalto2?4bmp?$AA@ 004d5ee8     jin.obj
 0003:00003f04       ??_C@_0BG@JJNMAEDN@figuras?1socoalto1?4bmp?$AA@ 004d5f04     jin.obj
 0003:00003f20       ??_C@_0BG@FCIANHJI@figuras?1socoalto0?4bmp?$AA@ 004d5f20     jin.obj
 0003:00003f3c       ??_C@_0BG@KGPPEJFN@figuras?1jinchute5?4bmp?$AA@ 004d5f3c     jin.obj
 0003:00003f58       ??_C@_0BG@GNKDJKPI@figuras?1jinchute4?4bmp?$AA@ 004d5f58     jin.obj
 0003:00003f74       ??_C@_0BG@HAKGKKEA@figuras?1jinchute3?4bmp?$AA@ 004d5f74     jin.obj
 0003:00003f90       ??_C@_0BG@LLPKHJOF@figuras?1jinchute2?4bmp?$AA@ 004d5f90     jin.obj
 0003:00003fac       ??_C@_0BG@DNGOALEL@figuras?1jinchute1?4bmp?$AA@ 004d5fac     jin.obj
 0003:00003fc8       ??_C@_0BG@PGDCNIOO@figuras?1jinchute0?4bmp?$AA@ 004d5fc8     jin.obj
 0003:00003fe4       ??_C@_0BG@DNBLHKHN@figuras?1jingolpe7?4bmp?$AA@ 004d5fe4     jin.obj
 0003:00004000       ??_C@_0BH@OMFDLJD@figuras?1jingolpe6b?4bmp?$AA@ 004d6000     jin.obj
 0003:0000401c       ??_C@_0BG@HANDNLHG@figuras?1jingolpe5?4bmp?$AA@ 004d601c     jin.obj
 0003:00004038       ??_C@_0BG@LLIPAIND@figuras?1jingolpe4?4bmp?$AA@ 004d6038     jin.obj
 0003:00004054       ??_C@_0BG@KGIKDIGL@figuras?1jingolpe3?4bmp?$AA@ 004d6054     jin.obj
 0003:00004070       ??_C@_0BG@GNNGOLMO@figuras?1jingolpe2?4bmp?$AA@ 004d6070     jin.obj
 0003:0000408c       ??_C@_0BG@OLECJJGA@figuras?1jingolpe1?4bmp?$AA@ 004d608c     jin.obj
 0003:000040a8       ??_C@_0BG@CABOEKMF@figuras?1jingolpe0?4bmp?$AA@ 004d60a8     jin.obj
 0003:000040c4       ??_C@_0BC@DKOOKJHM@figuras?1jin6c?4bmp?$AA@ 004d60c4     jin.obj
 0003:000040dc       ??_C@_0BC@KDIKFFHO@figuras?1jin3b?4bmp?$AA@ 004d60dc     jin.obj
 0003:000040f4       ??_C@_0BB@BFPNNBBH@figuras?1jin2?4bmp?$AA@ 004d60f4     jin.obj
 0003:00004108       ??_C@_0BB@MDKEDCAK@figuras?1jin4?4bmp?$AA@ 004d6108     jin.obj
 0003:0000411c       ??_C@_0BI@JAFEACMG@figuras?1jinParado3b?4bmp?$AA@ 004d611c     jin.obj
 0003:00004138       ??_C@_0BH@EOCDPONE@figuras?1jinParado1?4bmp?$AA@ 004d6138     jin.obj
 0003:00004154       ??_C@_0BC@MAFKGAEE@figuras?1jin5b?4bmp?$AA@ 004d6154     jin.obj
 0003:00004170       ??_7Jin@@6B@               004d6170     jin.obj
 0003:0000417c       ??_C@_0BM@LGBPPGDG@mascaras?1kingtrombada2M?4bmp?$AA@ 004d617c     king.obj
 0003:000041a0       ??_C@_0BM@IHPHOMKL@mascaras?1kingtrombada1M?4bmp?$AA@ 004d61a0     king.obj
 0003:000041c4       ??_C@_0BM@CBIAOHBP@mascaras?1kingtrombada0M?4bmp?$AA@ 004d61c4     king.obj
 0003:000041e8       ??_C@_0BJ@NFDKNDJ@mascaras?1kingmorte4M?4bmp?$AA@ 004d61e8     king.obj
 0003:00004208       ??_C@_0BJ@MIPEJDLH@mascaras?1kingmorte3M?4bmp?$AA@ 004d6208     king.obj
 0003:00004228       ??_C@_0BJ@GOIDJIAD@mascaras?1kingmorte2M?4bmp?$AA@ 004d6228     king.obj
 0003:00004248       ??_C@_0BJ@FPGLICJO@mascaras?1kingmorte1M?4bmp?$AA@ 004d6248     king.obj
 0003:00004268       ??_C@_0BJ@PJBMIJCK@mascaras?1kingmorte0M?4bmp?$AA@ 004d6268     king.obj
 0003:00004288       ??_C@_0BJ@CFJIKOLL@mascaras?1kinggolpe5M?4bmp?$AA@ 004d6288     king.obj
 0003:000042a8       ??_C@_0BJ@IDOPKFAP@mascaras?1kinggolpe4M?4bmp?$AA@ 004d62a8     king.obj
 0003:000042c8       ??_C@_0BJ@EGEIJLIB@mascaras?1kinggolpe3M?4bmp?$AA@ 004d62c8     king.obj
 0003:000042e8       ??_C@_0BJ@NBNHIKKI@mascaras?1kinggolpe1M?4bmp?$AA@ 004d62e8     king.obj
 0003:00004308       ??_C@_0BJ@HHKAIBBM@mascaras?1kinggolpe0M?4bmp?$AA@ 004d6308     king.obj
 0003:00004328       ??_C@_0BL@LNBHEGD@mascaras?1kingparado3bM?4bmp?$AA@ 004d6328     king.obj
 0003:00004348       ??_C@_0BL@BBEHNHK@mascaras?1kingparado4bM?4bmp?$AA@ 004d6348     king.obj
 0003:00004368       ??_C@_0BL@MHHLHEPN@mascaras?1kingparado2bM?4bmp?$AA@ 004d6368     king.obj
 0003:00004388       ??_C@_0BL@IFFOHDIA@mascaras?1kingparado0bM?4bmp?$AA@ 004d6388     king.obj
 0003:000043a8       ??_C@_0BI@DJBHKIDN@mascaras?1kingsoco2M?4bmp?$AA@ 004d63a8     king.obj
 0003:000043c4       ??_C@_0BI@IPPLCKA@mascaras?1kingsoco1M?4bmp?$AA@ 004d63c4     king.obj
 0003:000043e0       ??_C@_0BI@KOIILJBE@mascaras?1kingsoco0M?4bmp?$AA@ 004d63e0     king.obj
 0003:000043fc       ??_C@_0BK@BOHMGCNN@mascaras?1kingvoadoraM?4bmp?$AA@ 004d63fc     king.obj
 0003:0000441c       ??_C@_0BK@IIJLGJGM@mascaras?1kingpulandoM?4bmp?$AA@ 004d641c     king.obj
 0003:0000443c       ??_C@_0BL@EFLFALPE@mascaras?1kingandando5M?4bmp?$AA@ 004d643c     king.obj
 0003:0000445c       ??_C@_0BM@DFMOFCMD@mascaras?1kingandando3bM?4bmp?$AA@ 004d645c     king.obj
 0003:00004480       ??_C@_0BL@IABCDFHK@mascaras?1kingandando2M?4bmp?$AA@ 004d6480     king.obj
 0003:000044a0       ??_C@_0BK@OALMFMKI@figuras?1kingtrombada2?4bmp?$AA@ 004d64a0     king.obj
 0003:000044c0       ??_C@_0BK@GGCICOAG@figuras?1kingtrombada1?4bmp?$AA@ 004d64c0     king.obj
 0003:000044e0       ??_C@_0BK@KNHEPNKD@figuras?1kingtrombada0?4bmp?$AA@ 004d64e0     king.obj
 0003:00004500       ??_C@_0BH@FCGIODEK@figuras?1kingmorte4?4bmp?$AA@ 004d6500     king.obj
 0003:0000451c       ??_C@_0BH@EPGNNDPC@figuras?1kingmorte3?4bmp?$AA@ 004d651c     king.obj
 0003:00004538       ??_C@_0BH@IEDBAAFH@figuras?1kingmorte2?4bmp?$AA@ 004d6538     king.obj
 0003:00004554       ??_C@_0BH@CKFHCPJ@figuras?1kingmorte1?4bmp?$AA@ 004d6554     king.obj
 0003:00004570       ??_C@_0BH@MJPJKBFM@figuras?1kingmorte0?4bmp?$AA@ 004d6570     king.obj
 0003:0000458c       ??_C@_0BH@JLNDPPHC@figuras?1kinggolpe5?4bmp?$AA@ 004d658c     king.obj
 0003:000045a8       ??_C@_0BH@FAIPCMNH@figuras?1kinggolpe4?4bmp?$AA@ 004d65a8     king.obj
 0003:000045c4       ??_C@_0BH@ENIKBMGP@figuras?1kinggolpe3?4bmp?$AA@ 004d65c4     king.obj
 0003:000045e0       ??_C@_0BH@ECLNGE@figuras?1kinggolpe1?4bmp?$AA@ 004d65e0     king.obj
 0003:000045fc       ??_C@_0BH@MLBOGOMB@figuras?1kinggolpe0?4bmp?$AA@ 004d65fc     king.obj
 0003:00004618       ??_C@_0BJ@HLEFIDOG@figuras?1kingparado3b?4bmp?$AA@ 004d6618     king.obj
 0003:00004638       ??_C@_0BJ@LOOCLNGI@figuras?1kingparado4b?4bmp?$AA@ 004d6638     king.obj
 0003:00004658       ??_C@_0BJ@NNDCIIFC@figuras?1kingparado2b?4bmp?$AA@ 004d6658     king.obj
 0003:00004678       ??_C@_0BJ@EKKNJJHL@figuras?1kingparado0b?4bmp?$AA@ 004d6678     king.obj
 0003:00004698       ??_C@_0BG@KCICDOJN@figuras?1kingsoco2?4bmp?$AA@ 004d6698     king.obj
 0003:000046b4       ??_C@_0BG@CEBGEMDD@figuras?1kingsoco1?4bmp?$AA@ 004d66b4     king.obj
 0003:000046d0       ??_C@_0BG@OPEKJPJG@figuras?1kingsoco0?4bmp?$AA@ 004d66d0     king.obj
 0003:000046ec       ??_C@_0BI@DNDMPJPM@figuras?1kingvoadora?4bmp?$AA@ 004d66ec     king.obj
 0003:00004708       ??_C@_0BI@NDJPMGLG@figuras?1kingpulando?4bmp?$AA@ 004d6708     king.obj
 0003:00004724       ??_C@_0BJ@BLLJEAAE@figuras?1kingandando5?4bmp?$AA@ 004d6724     king.obj
 0003:00004744       ??_C@_0BK@OCJNGOLP@figuras?1kingandando3b?4bmp?$AA@ 004d6744     king.obj
 0003:00004764       ??_C@_0BJ@GLMHALM@figuras?1kingandando2?4bmp?$AA@ 004d6764     king.obj
 0003:00004788       ??_7King@@6B@              004d6788     king.obj
 0003:00004794       ??_C@_0BD@NFEPGOFP@menu?1botaoback?4bmp?$AA@ 004d6794     main.obj
 0003:000047ac       ??_C@_0BC@OPKBCECP@menu?1menuhelp?4bmp?$AA@ 004d67ac     main.obj
 0003:000047c4       ??_C@_0O@PLOEIIBG@menu?1quit?4bmp?$AA@ 004d67c4     main.obj
 0003:000047d4       ??_C@_0P@LKJOKGDL@menu?1quits?4bmp?$AA@ 004d67d4     main.obj
 0003:000047e8       ??_C@_0O@EOJFCAKG@menu?1help?4bmp?$AA@ 004d67e8     main.obj
 0003:000047f8       ??_C@_0P@HBEKGEBP@menu?1helps?4bmp?$AA@ 004d67f8     main.obj
 0003:0000480c       ??_C@_0BB@KDFMNPNA@menu?1newgame?4bmp?$AA@ 004d680c     main.obj
 0003:00004820       ??_C@_0BC@MIMBHJOJ@menu?1newgames?4bmp?$AA@ 004d6820     main.obj
 0003:00004838       ??_C@_0BB@DEKGAKCN@sons?1ambient?4mid?$AA@ 004d6838     main.obj
 0003:0000484c       ??_C@_0O@HAMGDJCM@menu?1MENU?4bmp?$AA@ 004d684c     main.obj
 0003:0000485c       ??_C@_0BE@DGFBDNJG@outros?1gameover?4bmp?$AA@ 004d685c     main.obj
 0003:00004874       ??_C@_0BA@DJHFGLOK@fases?1fase4?4txt?$AA@ 004d6874     main.obj
 0003:00004888       ??_C@_0BA@CEHAFLFC@fases?1fase3?4txt?$AA@ 004d6888     main.obj
 0003:0000489c       ??_C@_0BA@OPCMIIPH@fases?1fase2?4txt?$AA@ 004d689c     main.obj
 0003:000048b0       ??_C@_0BA@GJLIPKFJ@fases?1fase1?4txt?$AA@ 004d68b0     main.obj
 0003:000048c4       ??_C@_0BE@GBCKLBCK@outros?1morfador?4bmp?$AA@ 004d68c4     morfador.obj
 0003:000048e0       ??_7Morfador@@6B@          004d68e0     morfador.obj
 0003:000048e8       ??_C@_0BN@BNPFNIOH@mascaras?1morrigan_giro7M?4bmp?$AA@ 004d68e8     morrigan.obj
 0003:0000490c       ??_C@_0BN@LLICNDFD@mascaras?1morrigan_giro6M?4bmp?$AA@ 004d690c     morrigan.obj
 0003:00004930       ??_C@_0BN@IKGKMJMO@mascaras?1morrigan_giro5M?4bmp?$AA@ 004d6930     morrigan.obj
 0003:00004954       ??_C@_0BN@CMBNMCHK@mascaras?1morrigan_giro4M?4bmp?$AA@ 004d6954     morrigan.obj
 0003:00004978       ??_C@_0BN@OJLKPMPE@mascaras?1morrigan_giro3M?4bmp?$AA@ 004d6978     morrigan.obj
 0003:0000499c       ??_C@_0BN@EPMNPHEA@mascaras?1morrigan_giro2M?4bmp?$AA@ 004d699c     morrigan.obj
 0003:000049c0       ??_C@_0BN@HOCFONNN@mascaras?1morrigan_giro1M?4bmp?$AA@ 004d69c0     morrigan.obj
 0003:000049e4       ??_C@_0BN@NIFCOGGJ@mascaras?1morrigan_giro0M?4bmp?$AA@ 004d69e4     morrigan.obj
 0003:00004a08       ??_C@_0CB@EFMKODKN@mascaras?1morrigan_downatck1M?4bmp@ 004d6a08     morrigan.obj
 0003:00004a30       ??_C@_0CB@ODLNOIBJ@mascaras?1morrigan_downatck0M?4bmp@ 004d6a30     morrigan.obj
 0003:00004a58       ??_C@_0BN@MKJDLFPO@mascaras?1morrigan_down0M?4bmp?$AA@ 004d6a58     morrigan.obj
 0003:00004a7c       ??_C@_0CA@EEGEIBGB@mascaras?1morrigan_jmpatck3M?4bmp?$AA@ 004d6a7c     morrigan.obj
 0003:00004aa4       ??_C@_0CA@OCBDIKNF@mascaras?1morrigan_jmpatck2M?4bmp?$AA@ 004d6aa4     morrigan.obj
 0003:00004acc       ??_C@_0CA@NDPLJAEI@mascaras?1morrigan_jmpatck1M?4bmp?$AA@ 004d6acc     morrigan.obj
 0003:00004af4       ??_C@_0CA@HFIMJLPM@mascaras?1morrigan_jmpatck0M?4bmp?$AA@ 004d6af4     morrigan.obj
 0003:00004b1c       ??_C@_0BM@OLCBEIAE@mascaras?1morrigan_jmp2M?4bmp?$AA@ 004d6b1c     morrigan.obj
 0003:00004b40       ??_C@_0BM@NKMJFCJJ@mascaras?1morrigan_jmp1M?4bmp?$AA@ 004d6b40     morrigan.obj
 0003:00004b64       ??_C@_0BM@HMLOFJCN@mascaras?1morrigan_jmp0M?4bmp?$AA@ 004d6b64     morrigan.obj
 0003:00004b88       ??_C@_0BO@CCFIBICL@mascaras?1morrigan_atck04M?4bmp?$AA@ 004d6b88     morrigan.obj
 0003:00004bac       ??_C@_0BO@OHPPCGKF@mascaras?1morrigan_atck03M?4bmp?$AA@ 004d6bac     morrigan.obj
 0003:00004bd0       ??_C@_0BO@EBIICNBB@mascaras?1morrigan_atck02M?4bmp?$AA@ 004d6bd0     morrigan.obj
 0003:00004bf4       ??_C@_0BO@HAGADHIM@mascaras?1morrigan_atck01M?4bmp?$AA@ 004d6bf4     morrigan.obj
 0003:00004c18       ??_C@_0BO@IECPBDJP@mascaras?1morrigan_atck05M?4bmp?$AA@ 004d6c18     morrigan.obj
 0003:00004c3c       ??_C@_0BM@OBGEHCHM@mascaras?1morrigan_mov2M?4bmp?$AA@ 004d6c3c     morrigan.obj
 0003:00004c60       ??_C@_0BM@NAIMGIOB@mascaras?1morrigan_mov1M?4bmp?$AA@ 004d6c60     morrigan.obj
 0003:00004c84       ??_C@_0BN@OOIIEGGO@mascaras?1morrigan_step2M?4bmp?$AA@ 004d6c84     morrigan.obj
 0003:00004ca8       ??_C@_0BN@NPGAFMPD@mascaras?1morrigan_step1M?4bmp?$AA@ 004d6ca8     morrigan.obj
 0003:00004ccc       ??_C@_0BN@HJBHFHEH@mascaras?1morrigan_step0M?4bmp?$AA@ 004d6ccc     morrigan.obj
 0003:00004cf0       ??_C@_0BL@PHJOMDJK@figuras?1morrigan_giro7?4bmp?$AA@ 004d6cf0     morrigan.obj
 0003:00004d10       ??_C@_0BL@DMMCBADP@figuras?1morrigan_giro6?4bmp?$AA@ 004d6d10     morrigan.obj
 0003:00004d30       ??_C@_0BL@LKFGGCJB@figuras?1morrigan_giro5?4bmp?$AA@ 004d6d30     morrigan.obj
 0003:00004d50       ??_C@_0BL@HBAKLBDE@figuras?1morrigan_giro4?4bmp?$AA@ 004d6d50     morrigan.obj
 0003:00004d70       ??_C@_0BL@GMAPIBIM@figuras?1morrigan_giro3?4bmp?$AA@ 004d6d70     morrigan.obj
 0003:00004d90       ??_C@_0BL@KHFDFCCJ@figuras?1morrigan_giro2?4bmp?$AA@ 004d6d90     morrigan.obj
 0003:00004db0       ??_C@_0BL@CBMHCAIH@figuras?1morrigan_giro1?4bmp?$AA@ 004d6db0     morrigan.obj
 0003:00004dd0       ??_C@_0BL@OKJLPDCC@figuras?1morrigan_giro0?4bmp?$AA@ 004d6dd0     morrigan.obj
 0003:00004df0       ??_C@_0BP@LAEAOFMG@figuras?1morrigan_downatck1?4bmp?$AA@ 004d6df0     morrigan.obj
 0003:00004e18       ??_C@_0BP@HLBMDGGD@figuras?1morrigan_downatck0?4bmp?$AA@ 004d6e18     morrigan.obj
 0003:00004e40       ??_C@_0BL@JMCBDEHL@figuras?1morrigan_down0?4bmp?$AA@ 004d6e40     morrigan.obj
 0003:00004e60       ??_C@_0BO@IKMMHOGB@figuras?1morrigan_jmpatck3?4bmp?$AA@ 004d6e60     morrigan.obj
 0003:00004e84       ??_C@_0BO@EBJAKNME@figuras?1morrigan_jmpatck2?4bmp?$AA@ 004d6e84     morrigan.obj
 0003:00004ea8       ??_C@_0BO@MHAENPGK@figuras?1morrigan_jmpatck1?4bmp?$AA@ 004d6ea8     morrigan.obj
 0003:00004ecc       ??_C@_0BO@MFIAMMP@figuras?1morrigan_jmpatck0?4bmp?$AA@ 004d6ecc     morrigan.obj
 0003:00004ef0       ??_C@_0BK@LGBJGMFC@figuras?1morrigan_jmp2?4bmp?$AA@ 004d6ef0     morrigan.obj
 0003:00004f10       ??_C@_0BK@DAINBOPM@figuras?1morrigan_jmp1?4bmp?$AA@ 004d6f10     morrigan.obj
 0003:00004f30       ??_C@_0BK@PLNBMNFJ@figuras?1morrigan_jmp0?4bmp?$AA@ 004d6f30     morrigan.obj
 0003:00004f50       ??_C@_0BM@IMHCIPPC@figuras?1morrigan_atck04?4bmp?$AA@ 004d6f50     morrigan.obj
 0003:00004f74       ??_C@_0BM@JBHHLPEK@figuras?1morrigan_atck03?4bmp?$AA@ 004d6f74     morrigan.obj
 0003:00004f98       ??_C@_0BM@FKCLGMOP@figuras?1morrigan_atck02?4bmp?$AA@ 004d6f98     morrigan.obj
 0003:00004fbc       ??_C@_0BM@NMLPBOEB@figuras?1morrigan_atck01?4bmp?$AA@ 004d6fbc     morrigan.obj
 0003:00004fe0       ??_C@_0BM@EHCOFMFH@figuras?1morrigan_atck05?4bmp?$AA@ 004d6fe0     morrigan.obj
 0003:00005004       ??_C@_0BK@PDINDDNM@figuras?1morrigan_mov2?4bmp?$AA@ 004d7004     morrigan.obj
 0003:00005024       ??_C@_0BK@HFBJEBHC@figuras?1morrigan_mov1?4bmp?$AA@ 004d7024     morrigan.obj
 0003:00005044       ??_C@_0BL@DDHBACII@figuras?1morrigan_step2?4bmp?$AA@ 004d7044     morrigan.obj
 0003:00005064       ??_C@_0BL@LFOFHACG@figuras?1morrigan_step1?4bmp?$AA@ 004d7064     morrigan.obj
 0003:00005084       ??_C@_0BL@HOLJKDID@figuras?1morrigan_step0?4bmp?$AA@ 004d7084     morrigan.obj
 0003:000050a8       ??_7Morrigan@@6B@          004d70a8     morrigan.obj
 0003:000050b4       ??_C@_0BB@DIDJEIDK@outros?1vida0?4bmp?$AA@ 004d70b4     vida.obj
 0003:000050cc       ??_7Vida@@6B@              004d70cc     vida.obj
 0003:000050d4       ??_C@_1BG@NDCBABF@?$AAd?$AAb?$AAg?$AAd?$AAe?$AAl?$AA?4?$AAc?$AAp?$AAp?$AA?$AA@ 004d70d4     LIBCMTD:dbgdel.obj
 0003:000050f0       ??_C@_1EO@LHDAJOCM@?$AA_?$AAB?$AAL?$AAO?$AAC?$AAK?$AA_?$AAT?$AAY?$AAP?$AAE?$AA_?$AAI?$AAS?$AA_?$AAV?$AAA?$AAL?$AAI?$AAD?$AA?$CI?$AAp?$AAH?$AAe?$AAa?$AAd?$AA?9?$AA?$DO?$AAn?$AAB?$AAl?$AAo@ 004d70f0     LIBCMTD:dbgdel.obj
 0003:00005150       ?ProcessDetach@NativeDll@<CrtImplementationDetails>@@0IB 004d7150     LIBCMTD:trnsctrl.obj
 0003:00005154       ?ProcessAttach@NativeDll@<CrtImplementationDetails>@@0IB 004d7154     LIBCMTD:trnsctrl.obj
 0003:00005158       ?ThreadAttach@NativeDll@<CrtImplementationDetails>@@0IB 004d7158     LIBCMTD:trnsctrl.obj
 0003:0000515c       ?ThreadDetach@NativeDll@<CrtImplementationDetails>@@0IB 004d715c     LIBCMTD:trnsctrl.obj
 0003:00005160       ?ProcessVerifier@NativeDll@<CrtImplementationDetails>@@0IB 004d7160     LIBCMTD:trnsctrl.obj
 0003:00005168       ??_7type_info@@6B@         004d7168     LIBCMTD:typinfo.obj
 0003:00005170       ??_C@_1O@EGMJNCOI@?$AAf?$AAc?$AAl?$AAo?$AAs?$AAe?$AA?$AA@ 004d7170     LIBCMTD:fclose.obj
 0003:00005180       ??_C@_1BC@MHEDMIA@?$AAf?$AAc?$AAl?$AAo?$AAs?$AAe?$AA?4?$AAc?$AA?$AA@ 004d7180     LIBCMTD:fclose.obj
 0003:00005198       ??_C@_1CC@FADMNIL@?$AA?$CI?$AAs?$AAt?$AAr?$AAe?$AAa?$AAm?$AA?5?$AA?$CB?$AA?$DN?$AA?5?$AAN?$AAU?$AAL?$AAL?$AA?$CJ?$AA?$AA@ 004d7198     LIBCMTD:fclose.obj
 0003:000051c0       ??_C@_1BO@JINCABEC@?$AA_?$AAf?$AAc?$AAl?$AAo?$AAs?$AAe?$AA_?$AAn?$AAo?$AAl?$AAo?$AAc?$AAk?$AA?$AA@ 004d71c0     LIBCMTD:fclose.obj
 0003:000051e4       ??_C@_1BM@JMKHIAHP@?$AA?$CI?$AAs?$AAt?$AAr?$AA?5?$AA?$CB?$AA?$DN?$AA?5?$AAN?$AAU?$AAL?$AAL?$AA?$CJ?$AA?$AA@ 004d71e4     LIBCMTD:fclose.obj
 0003:00005208       ??_C@_1BAE@CBLKKPB@?$AA?$CI?$AA?5?$AA?$CI?$AA_?$AAS?$AAt?$AAr?$AAe?$AAa?$AAm?$AA?9?$AA?$DO?$AA_?$AAf?$AAl?$AAa?$AAg?$AA?5?$AA?$CG?$AA?5?$AA_?$AAI?$AAO?$AAS?$AAT?$AAR?$AAG?$AA?$CJ?$AA?5?$AA?$HM?$AA?$HM?$AA?5@ 004d7208     LIBCMTD:fscanf.obj
 0003:00005340       ??_C@_1CC@MGIEJOME@?$AA?$CI?$AAf?$AAo?$AAr?$AAm?$AAa?$AAt?$AA?5?$AA?$CB?$AA?$DN?$AA?5?$AAN?$AAU?$AAL?$AAL?$AA?$CJ?$AA?$AA@ 004d7340     LIBCMTD:fscanf.obj
 0003:00005368       ??_C@_1BA@LCFKCAGP@?$AAv?$AAf?$AAs?$AAc?$AAa?$AAn?$AAf?$AA?$AA@ 004d7368     LIBCMTD:fscanf.obj
 0003:0000537c       ??_C@_1BC@JCJGIEN@?$AAf?$AAs?$AAc?$AAa?$AAn?$AAf?$AA?4?$AAc?$AA?$AA@ 004d737c     LIBCMTD:fscanf.obj
 0003:00005394       ??_C@_1CI@HBNALCBB@?$AA?$CI?$AA?$CK?$AAm?$AAo?$AAd?$AAe?$AA?5?$AA?$CB?$AA?$DN?$AA?5?$AA_?$AAT?$AA?$CI?$AA?8?$AA?2?$AA0?$AA?8?$AA?$CJ?$AA?$CJ?$AA?$AA@ 004d7394     LIBCMTD:fopen.obj
 0003:000053c4       ??_C@_1BO@MJMKAKCJ@?$AA?$CI?$AAm?$AAo?$AAd?$AAe?$AA?5?$AA?$CB?$AA?$DN?$AA?5?$AAN?$AAU?$AAL?$AAL?$AA?$CJ?$AA?$AA@ 004d73c4     LIBCMTD:fopen.obj
 0003:000053e8       ??_C@_1BA@HNEAFMNL@?$AA_?$AAf?$AAs?$AAo?$AAp?$AAe?$AAn?$AA?$AA@ 004d73e8     LIBCMTD:fopen.obj
 0003:000053fc       ??_C@_1BA@GBANKLPE@?$AAf?$AAo?$AAp?$AAe?$AAn?$AA?4?$AAc?$AA?$AA@ 004d73fc     LIBCMTD:fopen.obj
 0003:00005410       ??_C@_1BO@CLGIAEOJ@?$AA?$CI?$AAf?$AAi?$AAl?$AAe?$AA?5?$AA?$CB?$AA?$DN?$AA?5?$AAN?$AAU?$AAL?$AAL?$AA?$CJ?$AA?$AA@ 004d7410     LIBCMTD:fopen.obj
 0003:00005434       ??_C@_1BA@PBGKCCAP@?$AAf?$AAo?$AAp?$AAe?$AAn?$AA_?$AAs?$AA?$AA@ 004d7434     LIBCMTD:fopen.obj
 0003:00005448       ??_C@_1CA@LLJLFCDN@?$AA?$CI?$AAp?$AAf?$AAi?$AAl?$AAe?$AA?5?$AA?$CB?$AA?$DN?$AA?5?$AAN?$AAU?$AAL?$AAL?$AA?$CJ?$AA?$AA@ 004d7448     LIBCMTD:fopen.obj
 0003:00005470       __FPinit                   004d7470     LIBCMTD:fpinit.obj
 0003:00005474       __FPmtinit                 004d7474     LIBCMTD:fpinit.obj
 0003:00005478       __FPmtterm                 004d7478     LIBCMTD:fpinit.obj
 0003:000054ac       ??_7exception@std@@6B@     004d74ac     LIBCMTD:stdexcpt.obj
 0003:000054b8       ??_C@_0BC@EOODALEL@Unknown?5exception?$AA@ 004d74b8     LIBCMTD:stdexcpt.obj
 0003:000054d4       ??_7bad_cast@std@@6B@      004d74d4     LIBCMTD:stdexcpt.obj
 0003:000054e4       ??_7bad_typeid@std@@6B@    004d74e4     LIBCMTD:stdexcpt.obj
 0003:000054f4       ??_7__non_rtti_object@std@@6B@ 004d74f4     LIBCMTD:stdexcpt.obj
 0003:00005500       ??_C@_17LGKOMLJ@?$AA?4?$AA?4?$AA?4?$AA?$AA@ 004d7500     LIBCMTD:dbgrptw.obj
 0003:0000550c       ??_C@_1CC@CGHMNGDG@?$AAA?$AAs?$AAs?$AAe?$AAr?$AAt?$AAi?$AAo?$AAn?$AA?5?$AAF?$AAa?$AAi?$AAl?$AAe?$AAd?$AA?$AA@ 004d750c     LIBCMTD:dbgrptw.obj
 0003:00005534       ??_C@_1M@ILHOPKA@?$AAE?$AAr?$AAr?$AAo?$AAr?$AA?$AA@ 004d7534     LIBCMTD:dbgrptw.obj
 0003:00005544       ??_C@_1BA@GLMCNLEM@?$AAW?$AAa?$AAr?$AAn?$AAi?$AAn?$AAg?$AA?$AA@ 004d7544     LIBCMTD:dbgrptw.obj
 0003:00005558       ??_C@_0DB@HKOFMEFJ@f?3?2rtm?2vctools?2crt_bld?2self_x86?2@ 004d7558     LIBCMTD:dbgrptw.obj
 0003:00005598       ??_C@_1FI@PHIAFFHM@?$AA?$CI?$AA?$CC?$AAT?$AAh?$AAe?$AA?5?$AAh?$AAo?$AAo?$AAk?$AA?5?$AAf?$AAu?$AAn?$AAc?$AAt?$AAi?$AAo?$AAn?$AA?5?$AAi?$AAs?$AA?5?$AAn?$AAo?$AAt?$AA?5?$AAi?$AAn?$AA?5?$AAt?$AAh@ 004d7598     LIBCMTD:dbgrptw.obj
 0003:00005604       ??_C@_1CG@JBJEFOCM@?$AAp?$AAf?$AAn?$AAN?$AAe?$AAw?$AAH?$AAo?$AAo?$AAk?$AA?5?$AA?$CB?$AA?$DN?$AA?5?$AAN?$AAU?$AAL?$AAL?$AA?$AA@ 004d7604     LIBCMTD:dbgrptw.obj
 0003:00005634       ??_C@_1CI@IIHEAKEI@?$AA_?$AAC?$AAr?$AAt?$AAS?$AAe?$AAt?$AAR?$AAe?$AAp?$AAo?$AAr?$AAt?$AAH?$AAo?$AAo?$AAk?$AAW?$AA2?$AA?$AA@ 004d7634     LIBCMTD:dbgrptw.obj
 0003:00005668       ??_C@_1GC@LNEIAAHF@?$AAf?$AA?3?$AA?2?$AAr?$AAt?$AAm?$AA?2?$AAv?$AAc?$AAt?$AAo?$AAo?$AAl?$AAs?$AA?2?$AAc?$AAr?$AAt?$AA_?$AAb?$AAl?$AAd?$AA?2?$AAs?$AAe?$AAl?$AAf?$AA_?$AAx?$AA8?$AA6?$AA?2@ 004d7668     LIBCMTD:dbgrptw.obj
 0003:000056e0       ??_C@_1HI@OFEHGPPC@?$AAm?$AAo?$AAd?$AAe?$AA?5?$AA?$DN?$AA?$DN?$AA?5?$AA_?$AAC?$AAR?$AAT?$AA_?$AAR?$AAP?$AAT?$AAH?$AAO?$AAO?$AAK?$AA_?$AAI?$AAN?$AAS?$AAT?$AAA?$AAL?$AAL?$AA?5?$AA?$HM?$AA?$HM?$AA?5@ 004d76e0     LIBCMTD:dbgrptw.obj
 0003:00005770       ??_C@_0DP@GNPEPHJD@_CrtDbgReport?3?5String?5too?5long?5o@ 004d7770     LIBCMTD:dbgrptw.obj
 0003:000057c0       ??_C@_1LI@CIHKNEBA@?$AAs?$AAt?$AAr?$AAc?$AAp?$AAy?$AA_?$AAs?$AA?$CI?$AAs?$AAz?$AAa?$AAF?$AAo?$AAr?$AAm?$AAa?$AAt?$AA?0?$AA?5?$AA4?$AA0?$AA9?$AA6?$AA?0?$AA?5?$AA?$CC?$AA_?$AAC?$AAr?$AAt?$AAD@ 004d77c0     LIBCMTD:dbgrptw.obj
 0003:000058a0       ??_C@_1GO@BIBJILHL@?$AAw?$AAc?$AAs?$AAt?$AAo?$AAm?$AAb?$AAs?$AA_?$AAs?$AA?$CI?$AA0?$AA?0?$AA?5?$AAs?$AAz?$AAa?$AAF?$AAo?$AAr?$AAm?$AAa?$AAt?$AA?0?$AA?5?$AA4?$AA0?$AA9?$AA6?$AA?0?$AA?5?$AAs@ 004d78a0     LIBCMTD:dbgrptw.obj
 0003:00005928       ??_C@_1IK@NOIOPCJD@?$AAs?$AAt?$AAr?$AAc?$AAp?$AAy?$AA_?$AAs?$AA?$CI?$AAs?$AAz?$AAa?$AAM?$AAo?$AAd?$AAu?$AAl?$AAe?$AA?0?$AA?5?$AA4?$AA0?$AA9?$AA6?$AA?0?$AA?5?$AA?$CC?$AAE?$AAx?$AAp?$AAr?$AAe@ 004d7928     LIBCMTD:dbgrptw.obj
 0003:000059d0       ??_C@_1GO@EIJIKMJN@?$AAw?$AAc?$AAs?$AAt?$AAo?$AAm?$AAb?$AAs?$AA_?$AAs?$AA?$CI?$AA0?$AA?0?$AA?5?$AAs?$AAz?$AAa?$AAM?$AAo?$AAd?$AAu?$AAl?$AAe?$AA?0?$AA?5?$AA4?$AA0?$AA9?$AA6?$AA?0?$AA?5?$AAs@ 004d79d0     LIBCMTD:dbgrptw.obj
 0003:00005a54       ??_C@_0CI@FDIHEIE@Expression?5cannot?5be?5displayed?5o@ 004d7a54     LIBCMTD:dbgrptw.obj
 0003:00005a88       ??_C@_1IG@KNLLJKPP@?$AAs?$AAt?$AAr?$AAc?$AAp?$AAy?$AA_?$AAs?$AA?$CI?$AAs?$AAz?$AAa?$AAF?$AAi?$AAl?$AAe?$AA?0?$AA?5?$AA4?$AA0?$AA9?$AA6?$AA?0?$AA?5?$AA?$CC?$AAE?$AAx?$AAp?$AAr?$AAe?$AAs?$AAs@ 004d7a88     LIBCMTD:dbgrptw.obj
 0003:00005b28       ??_C@_03KHICJKCI@?4?4?4?$AA@ 004d7b28     LIBCMTD:dbgrptw.obj
 0003:00005b2c       ??_C@_1DO@CNMELOIB@?$AAs?$AAt?$AAr?$AAc?$AAa?$AAt?$AA_?$AAs?$AA?$CI?$AAs?$AAz?$AAa?$AAF?$AAi?$AAl?$AAe?$AA?0?$AA?5?$AA4?$AA0?$AA9?$AA6?$AA?0?$AA?5?$AA?$CC?$AA?4?$AA?4?$AA?4?$AA?$CC?$AA?$CJ?$AA?$AA@ 004d7b2c     LIBCMTD:dbgrptw.obj
 0003:00005b78       ??_C@_1GG@OHDJJHOI@?$AAw?$AAc?$AAs?$AAt?$AAo?$AAm?$AAb?$AAs?$AA_?$AAs?$AA?$CI?$AA0?$AA?0?$AA?5?$AAs?$AAz?$AAa?$AAF?$AAi?$AAl?$AAe?$AA?0?$AA?5?$AA4?$AA0?$AA9?$AA6?$AA?0?$AA?5?$AAs?$AAz?$AAF@ 004d7b78     LIBCMTD:dbgrptw.obj
 0003:00005bf4       ??_C@_1DK@NLBDKACM@?$AA_?$AAg?$AAe?$AAt?$AA_?$AAo?$AAs?$AAp?$AAl?$AAa?$AAt?$AAf?$AAo?$AAr?$AAm?$AA?$CI?$AA?$CG?$AAo?$AAs?$AAp?$AAl?$AAa?$AAt?$AAf?$AAo?$AAr?$AAm?$AA?$CJ?$AA?$AA@ 004d7bf4     LIBCMTD:dbgrptw.obj
 0003:00005c3c       ??_C@_1CA@KLAOOAPJ@?$AA_?$AAC?$AAr?$AAt?$AAD?$AAb?$AAg?$AAR?$AAe?$AAp?$AAo?$AAr?$AAt?$AAW?$AAV?$AA?$AA@ 004d7c3c     LIBCMTD:dbgrptw.obj
 0003:00005c68       ??_C@_1EG@PEOEAKBB@?$AAM?$AAi?$AAc?$AAr?$AAo?$AAs?$AAo?$AAf?$AAt?$AA?5?$AAV?$AAi?$AAs?$AAu?$AAa?$AAl?$AA?5?$AAC?$AA?$CL?$AA?$CL?$AA?5?$AAD?$AAe?$AAb?$AAu?$AAg?$AA?5?$AAL?$AAi?$AAb?$AAr?$AAa@ 004d7c68     LIBCMTD:dbgrptw.obj
 0003:00005cc0       ??_C@_1FG@BBOLDHGF@?$AA_?$AAC?$AAr?$AAt?$AAD?$AAb?$AAg?$AAR?$AAe?$AAp?$AAo?$AAr?$AAt?$AA?3?$AA?5?$AAS?$AAt?$AAr?$AAi?$AAn?$AAg?$AA?5?$AAt?$AAo?$AAo?$AA?5?$AAl?$AAo?$AAn?$AAg?$AA?5?$AAo@ 004d7cc0     LIBCMTD:dbgrptw.obj
 0003:00005d28       ??_C@_1JI@EACPGHID@?$AAw?$AAc?$AAs?$AAc?$AAp?$AAy?$AA_?$AAs?$AA?$CI?$AAs?$AAz?$AAO?$AAu?$AAt?$AAM?$AAe?$AAs?$AAs?$AAa?$AAg?$AAe?$AA?0?$AA?5?$AA4?$AA0?$AA9?$AA6?$AA?0?$AA?5?$AAL?$AA?$CC?$AA_@ 004d7d28     LIBCMTD:dbgrptw.obj
 0003:00005de0       ??_C@_1BI@KALLJECN@?$AA?$CI?$AA?$CK?$AA_?$AAe?$AAr?$AAr?$AAn?$AAo?$AA?$CI?$AA?$CJ?$AA?$CJ?$AA?$AA@ 004d7de0     LIBCMTD:dbgrptw.obj
 0003:00005e00       ??_C@_1KK@MEFMPOLM@?$AAD?$AAe?$AAb?$AAu?$AAg?$AA?5?$AA?$CF?$AAs?$AA?$CB?$AA?6?$AA?6?$AAP?$AAr?$AAo?$AAg?$AAr?$AAa?$AAm?$AA?3?$AA?5?$AA?$CF?$AAs?$AA?$CF?$AAs?$AA?$CF?$AAs?$AA?$CF?$AAs?$AA?$CF?$AAs?$AA?$CF?$AAs@ 004d7e00     LIBCMTD:dbgrptw.obj
 0003:00005ecc       ??_C@_1BE@CGCJKGHI@?$AA?6?$AAM?$AAo?$AAd?$AAu?$AAl?$AAe?$AA?3?$AA?5?$AA?$AA@ 004d7ecc     LIBCMTD:dbgrptw.obj
 0003:00005ee4       ??_C@_1BA@LNHECFIM@?$AA?6?$AAF?$AAi?$AAl?$AAe?$AA?3?$AA?5?$AA?$AA@ 004d7ee4     LIBCMTD:dbgrptw.obj
 0003:00005ef8       ??_C@_1BA@GLLGCPCK@?$AA?6?$AAL?$AAi?$AAn?$AAe?$AA?3?$AA?5?$AA?$AA@ 004d7ef8     LIBCMTD:dbgrptw.obj
 0003:00005f0c       ??_C@_15IABLJNFO@?$AA?6?$AA?6?$AA?$AA@ 004d7f0c     LIBCMTD:dbgrptw.obj
 0003:00005f14       ??_C@_1BK@PEDCIPMA@?$AAE?$AAx?$AAp?$AAr?$AAe?$AAs?$AAs?$AAi?$AAo?$AAn?$AA?3?$AA?5?$AA?$AA@ 004d7f14     LIBCMTD:dbgrptw.obj
 0003:00005f34       ??_C@_11LOCGONAA@?$AA?$AA@ 004d7f34     LIBCMTD:dbgrptw.obj
 0003:00005f38       ??_C@_1OG@PMPPFHAF@?$AA?6?$AA?6?$AAF?$AAo?$AAr?$AA?5?$AAi?$AAn?$AAf?$AAo?$AAr?$AAm?$AAa?$AAt?$AAi?$AAo?$AAn?$AA?5?$AAo?$AAn?$AA?5?$AAh?$AAo?$AAw?$AA?5?$AAy?$AAo?$AAu?$AAr?$AA?5?$AAp?$AAr@ 004d7f38     LIBCMTD:dbgrptw.obj
 0003:00006050       ??_C@_1JM@GKDPCMEA@?$AAw?$AAc?$AAs?$AAn?$AAc?$AAp?$AAy?$AA_?$AAs?$AA?$CI?$AAs?$AAz?$AAS?$AAh?$AAo?$AAr?$AAt?$AAP?$AAr?$AAo?$AAg?$AAN?$AAa?$AAm?$AAe?$AA?0?$AA?5?$AA2?$AA6?$AA0?$AA?5?$AA?9@ 004d8050     LIBCMTD:dbgrptw.obj
 0003:0000610c       ??_C@_1CO@EAEJAADC@?$AA?$DM?$AAp?$AAr?$AAo?$AAg?$AAr?$AAa?$AAm?$AA?5?$AAn?$AAa?$AAm?$AAe?$AA?5?$AAu?$AAn?$AAk?$AAn?$AAo?$AAw?$AAn?$AA?$DO?$AA?$AA@ 004d810c     LIBCMTD:dbgrptw.obj
 0003:00006148       ??_C@_1GI@DEDNNLCI@?$AAw?$AAc?$AAs?$AAc?$AAp?$AAy?$AA_?$AAs?$AA?$CI?$AAs?$AAz?$AAE?$AAx?$AAe?$AAN?$AAa?$AAm?$AAe?$AA?0?$AA?5?$AA2?$AA6?$AA0?$AA?0?$AA?5?$AAL?$AA?$CC?$AA?$DM?$AAp?$AAr?$AAo?$AAg@ 004d8148     LIBCMTD:dbgrptw.obj
 0003:000061c4       ??_C@_1CI@PGJIFDEK@?$AA_?$AA_?$AAc?$AAr?$AAt?$AAM?$AAe?$AAs?$AAs?$AAa?$AAg?$AAe?$AAW?$AAi?$AAn?$AAd?$AAo?$AAw?$AAW?$AA?$AA@ 004d81c4     LIBCMTD:dbgrptw.obj
 0003:000061f4       ??_C@_06PJIGMIJB@Client?$AA@ 004d81f4     LIBCMTD:dbgheap.obj
 0003:000061fc       ??_C@_06KMEJCCGM@Ignore?$AA@ 004d81fc     LIBCMTD:dbgheap.obj
 0003:00006204       ??_C@_03OGPFLFLO@CRT?$AA@  004d8204     LIBCMTD:dbgheap.obj
 0003:00006208       ??_C@_06EFAGIKOH@Normal?$AA@ 004d8208     LIBCMTD:dbgheap.obj
 0003:00006210       ??_C@_04HJMOFLDF@Free?$AA@ 004d8210     LIBCMTD:dbgheap.obj
 0003:00006218       ??_C@_0DC@JEMAGEKG@Error?3?5memory?5allocation?3?5bad?5me@ 004d8218     LIBCMTD:dbgheap.obj
 0003:00006254       ??_C@_0CF@BICKFLAF@Invalid?5allocation?5size?3?5?$CFIu?5byt@ 004d8254     LIBCMTD:dbgheap.obj
 0003:00006280       ??_C@_0CB@CCLOLAHO@Client?5hook?5allocation?5failure?4?6@ 004d8280     LIBCMTD:dbgheap.obj
 0003:000062a8       ??_C@_0DF@BBEGIFEK@Client?5hook?5allocation?5failure?5a@ 004d82a8     LIBCMTD:dbgheap.obj
 0003:000062e8       ??_C@_1BE@DOFBOBGF@?$AAd?$AAb?$AAg?$AAh?$AAe?$AAa?$AAp?$AA?4?$AAc?$AA?$AA@ 004d82e8     LIBCMTD:dbgheap.obj
 0003:00006300       ??_C@_1CE@LJFEPPMP@?$AA_?$AAC?$AAr?$AAt?$AAC?$AAh?$AAe?$AAc?$AAk?$AAM?$AAe?$AAm?$AAo?$AAr?$AAy?$AA?$CI?$AA?$CJ?$AA?$AA@ 004d8300     LIBCMTD:dbgheap.obj
 0003:0000632c       ??_C@_1BI@MIPBBENM@?$AA_?$AAc?$AAa?$AAl?$AAl?$AAo?$AAc?$AA_?$AAd?$AAb?$AAg?$AA?$AA@ 004d832c     LIBCMTD:dbgheap.obj
 0003:00006348       ??_C@_1DO@MEOGCGBN@?$AA?$CI?$AA_?$AAH?$AAE?$AAA?$AAP?$AA_?$AAM?$AAA?$AAX?$AAR?$AAE?$AAQ?$AA?5?$AA?1?$AA?5?$AAn?$AAN?$AAu?$AAm?$AA?$CJ?$AA?5?$AA?$DO?$AA?$DN?$AA?5?$AAn?$AAS?$AAi?$AAz?$AAe?$AA?$AA@ 004d8348     LIBCMTD:dbgheap.obj
 0003:00006394       ??_C@_1BE@JMKIOMH@?$AA_?$AAr?$AAe?$AAc?$AAa?$AAl?$AAl?$AAo?$AAc?$AA?$AA@ 004d8394     LIBCMTD:dbgheap.obj
 0003:000063ac       ??_C@_1DO@GOKJCEHJ@?$AA?$CI?$AA_?$AAH?$AAE?$AAA?$AAP?$AA_?$AAM?$AAA?$AAX?$AAR?$AAE?$AAQ?$AA?5?$AA?1?$AA?5?$AAc?$AAo?$AAu?$AAn?$AAt?$AA?$CJ?$AA?5?$AA?$DO?$AA?$DN?$AA?5?$AAs?$AAi?$AAz?$AAe?$AA?$AA@ 004d83ac     LIBCMTD:dbgheap.obj
 0003:000063f8       ??_C@_1DE@KOOKLFBB@?$AA_?$AAp?$AAF?$AAi?$AAr?$AAs?$AAt?$AAB?$AAl?$AAo?$AAc?$AAk?$AA?5?$AA?$DN?$AA?$DN?$AA?5?$AAp?$AAO?$AAl?$AAd?$AAB?$AAl?$AAo?$AAc?$AAk?$AA?$AA@ 004d83f8     LIBCMTD:dbgheap.obj
 0003:00006438       ??_C@_1DC@GEFKNOOL@?$AA_?$AAp?$AAL?$AAa?$AAs?$AAt?$AAB?$AAl?$AAo?$AAc?$AAk?$AA?5?$AA?$DN?$AA?$DN?$AA?5?$AAp?$AAO?$AAl?$AAd?$AAB?$AAl?$AAo?$AAc?$AAk?$AA?$AA@ 004d8438     LIBCMTD:dbgheap.obj
 0003:00006478       ??_C@_1GE@PCKLOLAO@?$AAf?$AAR?$AAe?$AAa?$AAl?$AAl?$AAo?$AAc?$AA?5?$AA?$HM?$AA?$HM?$AA?5?$AA?$CI?$AA?$CB?$AAf?$AAR?$AAe?$AAa?$AAl?$AAl?$AAo?$AAc?$AA?5?$AA?$CG?$AA?$CG?$AA?5?$AAp?$AAN?$AAe?$AAw?$AAB?$AAl@ 004d8478     LIBCMTD:dbgheap.obj
 0003:000064f0       ??_C@_1IK@DCPKDGNH@?$AAp?$AAO?$AAl?$AAd?$AAB?$AAl?$AAo?$AAc?$AAk?$AA?9?$AA?$DO?$AAn?$AAL?$AAi?$AAn?$AAe?$AA?5?$AA?$DN?$AA?$DN?$AA?5?$AAI?$AAG?$AAN?$AAO?$AAR?$AAE?$AA_?$AAL?$AAI?$AAN?$AAE?$AA?5@ 004d84f0     LIBCMTD:dbgheap.obj
 0003:00006598       ??_C@_1EE@GFOPCECE@?$AA_?$AAC?$AAr?$AAt?$AAI?$AAs?$AAV?$AAa?$AAl?$AAi?$AAd?$AAH?$AAe?$AAa?$AAp?$AAP?$AAo?$AAi?$AAn?$AAt?$AAe?$AAr?$AA?$CI?$AAp?$AAU?$AAs?$AAe?$AAr?$AAD?$AAa?$AAt?$AAa@ 004d8598     LIBCMTD:dbgheap.obj
 0003:000065f0       ??_C@_0EM@LGFLMAGJ@The?5Block?5at?50x?$CFp?5was?5allocated?5@ 004d85f0     LIBCMTD:dbgheap.obj
 0003:0000664c       ??_C@_0CE@DOFMDOL@Client?5hook?5re?9allocation?5failur@ 004d864c     LIBCMTD:dbgheap.obj
 0003:00006678       ??_C@_0DI@KKJPDPGM@Client?5hook?5re?9allocation?5failur@ 004d8678     LIBCMTD:dbgheap.obj
 0003:000066bc       ??_C@_1BM@OKFKJCEN@?$AA_?$AAr?$AAe?$AAc?$AAa?$AAl?$AAl?$AAo?$AAc?$AA_?$AAd?$AAb?$AAg?$AA?$AA@ 004d86bc     LIBCMTD:dbgheap.obj
 0003:000066e0       ??_C@_1BI@HAPNGHDP@?$AA_?$AAe?$AAx?$AAp?$AAa?$AAn?$AAd?$AA_?$AAd?$AAb?$AAg?$AA?$AA@ 004d86e0     LIBCMTD:dbgheap.obj
 0003:000066fc       ??_C@_1CE@CJACEFBA@?$AAp?$AAU?$AAs?$AAe?$AAr?$AAD?$AAa?$AAt?$AAa?$AA?5?$AA?$CB?$AA?$DN?$AA?5?$AAN?$AAU?$AAL?$AAL?$AA?$AA@ 004d86fc     LIBCMTD:dbgheap.obj
 0003:00006728       ??_C@_1CM@MMAADDMD@?$AA_?$AAp?$AAF?$AAi?$AAr?$AAs?$AAt?$AAB?$AAl?$AAo?$AAc?$AAk?$AA?5?$AA?$DN?$AA?$DN?$AA?5?$AAp?$AAH?$AAe?$AAa?$AAd?$AA?$AA@ 004d8728     LIBCMTD:dbgheap.obj
 0003:0000675c       ??_C@_1CK@DMAGEMBG@?$AA_?$AAp?$AAL?$AAa?$AAs?$AAt?$AAB?$AAl?$AAo?$AAc?$AAk?$AA?5?$AA?$DN?$AA?$DN?$AA?5?$AAp?$AAH?$AAe?$AAa?$AAd?$AA?$AA@ 004d875c     LIBCMTD:dbgheap.obj
 0003:00006790       ??_C@_1DM@ODCJIDCP@?$AAp?$AAH?$AAe?$AAa?$AAd?$AA?9?$AA?$DO?$AAn?$AAB?$AAl?$AAo?$AAc?$AAk?$AAU?$AAs?$AAe?$AA?5?$AA?$DN?$AA?$DN?$AA?5?$AAn?$AAB?$AAl?$AAo?$AAc?$AAk?$AAU?$AAs?$AAe?$AA?$AA@ 004d8790     LIBCMTD:dbgheap.obj
 0003:000067d8       ??_C@_1HK@HPCBMDFG@?$AAp?$AAH?$AAe?$AAa?$AAd?$AA?9?$AA?$DO?$AAn?$AAL?$AAi?$AAn?$AAe?$AA?5?$AA?$DN?$AA?$DN?$AA?5?$AAI?$AAG?$AAN?$AAO?$AAR?$AAE?$AA_?$AAL?$AAI?$AAN?$AAE?$AA?5?$AA?$CG?$AA?$CG?$AA?5?$AAp@ 004d87d8     LIBCMTD:dbgheap.obj
 0003:00006870       ??_C@_0IG@LEMBDCJK@HEAP?5CORRUPTION?5DETECTED?3?5after?5@ 004d8870     LIBCMTD:dbgheap.obj
 0003:00006910       ??_C@_0IK@PJCGLBOB@HEAP?5CORRUPTION?5DETECTED?3?5before@ 004d8910     LIBCMTD:dbgheap.obj
 0003:000069b8       ??_C@_0BL@KEIPLFAC@Client?5hook?5free?5failure?4?6?$AA@ 004d89b8     LIBCMTD:dbgheap.obj
 0003:000069d8       ??_C@_0EJ@HEIBCIMJ@The?5Block?5at?50x?$CFp?5was?5allocated?5@ 004d89d8     LIBCMTD:dbgheap.obj
 0003:00006a30       ??_C@_1BG@MBKOGDLD@?$AA_?$AAm?$AAs?$AAi?$AAz?$AAe?$AA_?$AAd?$AAb?$AAg?$AA?$AA@ 004d8a30     LIBCMTD:dbgheap.obj
 0003:00006a4c       ??_C@_0CI@JMLBEDHJ@?$CFhs?5located?5at?50x?$CFp?5is?5?$CFIu?5bytes@ 004d8a4c     LIBCMTD:dbgheap.obj
 0003:00006a7c       ??_C@_0CA@FGFAGAOM@?$CFhs?5allocated?5at?5file?5?$CFhs?$CI?$CFd?$CJ?4?6?$AA@ 004d8a7c     LIBCMTD:dbgheap.obj
 0003:00006aa8       ??_C@_0IC@BBJIOOJH@HEAP?5CORRUPTION?5DETECTED?3?5on?5top@ 004d8aa8     LIBCMTD:dbgheap.obj
 0003:00006b44       ??_C@_07OHKEFPKJ@DAMAGED?$AA@ 004d8b44     LIBCMTD:dbgheap.obj
 0003:00006b50       ??_C@_0CL@HNNNMKMJ@_heapchk?5fails?5with?5unknown?5retu@ 004d8b50     LIBCMTD:dbgheap.obj
 0003:00006b84       ??_C@_0CC@MFFCHFHO@_heapchk?5fails?5with?5_HEAPBADPTR?4@ 004d8b84     LIBCMTD:dbgheap.obj
 0003:00006bac       ??_C@_0CC@MJGLGBDG@_heapchk?5fails?5with?5_HEAPBADEND?4@ 004d8bac     LIBCMTD:dbgheap.obj
 0003:00006bd4       ??_C@_0CD@CPKEAPBD@_heapchk?5fails?5with?5_HEAPBADNODE@ 004d8bd4     LIBCMTD:dbgheap.obj
 0003:00006c00       ??_C@_0CE@MKKHMBMK@_heapchk?5fails?5with?5_HEAPBADBEGI@ 004d8c00     LIBCMTD:dbgheap.obj
 0003:00006c2c       ??_C@_1BO@GJFDNMNF@?$AA_?$AAC?$AAr?$AAt?$AAS?$AAe?$AAt?$AAD?$AAb?$AAg?$AAF?$AAl?$AAa?$AAg?$AA?$AA@ 004d8c2c     LIBCMTD:dbgheap.obj
 0003:00006c50       ??_C@_1BHO@NNANJNF@?$AA?$CI?$AAf?$AAN?$AAe?$AAw?$AAB?$AAi?$AAt?$AAs?$AA?$DN?$AA?$DN?$AA_?$AAC?$AAR?$AAT?$AAD?$AAB?$AAG?$AA_?$AAR?$AAE?$AAP?$AAO?$AAR?$AAT?$AA_?$AAF?$AAL?$AAA?$AAG?$AA?$CJ?$AA?5@ 004d8c50     LIBCMTD:dbgheap.obj
 0003:00006e1c       ??_C@_1DE@GJCKCKEC@?$AA_?$AAC?$AAr?$AAt?$AAD?$AAo?$AAF?$AAo?$AAr?$AAA?$AAl?$AAl?$AAC?$AAl?$AAi?$AAe?$AAn?$AAt?$AAO?$AAb?$AAj?$AAe?$AAc?$AAt?$AAs?$AA?$AA@ 004d8e1c     LIBCMTD:dbgheap.obj
 0003:00006e5c       ??_C@_1BI@CJGCEEDL@?$AAp?$AAf?$AAn?$AA?5?$AA?$CB?$AA?$DN?$AA?5?$AAN?$AAU?$AAL?$AAL?$AA?$AA@ 004d8e5c     LIBCMTD:dbgheap.obj
 0003:00006e78       ??_C@_1CG@DGPPLLPG@?$AA_?$AAg?$AAe?$AAt?$AA_?$AAo?$AAs?$AAv?$AAe?$AAr?$AA?$CI?$AA?$CG?$AAo?$AAs?$AAv?$AAe?$AAr?$AA?$CJ?$AA?$AA@ 004d8e78     LIBCMTD:dbgheap.obj
 0003:00006ea8       ??_C@_1CO@JHPAACDJ@?$AA_?$AAC?$AAr?$AAt?$AAI?$AAs?$AAV?$AAa?$AAl?$AAi?$AAd?$AAH?$AAe?$AAa?$AAp?$AAP?$AAo?$AAi?$AAn?$AAt?$AAe?$AAr?$AA?$AA@ 004d8ea8     LIBCMTD:dbgheap.obj
 0003:00006ee0       ??_C@_0CB@EAAIGELO@Bad?5memory?5block?5found?5at?50x?$CFp?4?6@ 004d8ee0     LIBCMTD:dbgheap.obj
 0003:00006f08       ??_C@_1CE@NJJKELF@?$AA_?$AAC?$AAr?$AAt?$AAM?$AAe?$AAm?$AAC?$AAh?$AAe?$AAc?$AAk?$AAp?$AAo?$AAi?$AAn?$AAt?$AA?$AA@ 004d8f08     LIBCMTD:dbgheap.obj
 0003:00006f34       ??_C@_1BM@MIMANDHC@?$AAs?$AAt?$AAa?$AAt?$AAe?$AA?5?$AA?$CB?$AA?$DN?$AA?5?$AAN?$AAU?$AAL?$AAL?$AA?$AA@ 004d8f34     LIBCMTD:dbgheap.obj
 0003:00006f58       ??_C@_1CC@DFPEDFBP@?$AAn?$AAe?$AAw?$AAS?$AAt?$AAa?$AAt?$AAe?$AA?5?$AA?$CB?$AA?$DN?$AA?5?$AAN?$AAU?$AAL?$AAL?$AA?$AA@ 004d8f58     LIBCMTD:dbgheap.obj
 0003:00006f80       ??_C@_1CC@DHPFEMMN@?$AAo?$AAl?$AAd?$AAS?$AAt?$AAa?$AAt?$AAe?$AA?5?$AA?$CB?$AA?$DN?$AA?5?$AAN?$AAU?$AAL?$AAL?$AA?$AA@ 004d8f80     LIBCMTD:dbgheap.obj
 0003:00006fa8       ??_C@_1CE@PDIENACM@?$AA_?$AAC?$AAr?$AAt?$AAM?$AAe?$AAm?$AAD?$AAi?$AAf?$AAf?$AAe?$AAr?$AAe?$AAn?$AAc?$AAe?$AA?$AA@ 004d8fa8     LIBCMTD:dbgheap.obj
 0003:00006fd4       ??_C@_0BH@GFGKJDCO@Object?5dump?5complete?4?6?$AA@ 004d8fd4     LIBCMTD:dbgheap.obj
 0003:00006ff0       ??_C@_0DA@MDLBNIBM@crt?5block?5at?50x?$CFp?0?5subtype?5?$CFx?0?5?$CF@ 004d8ff0     LIBCMTD:dbgheap.obj
 0003:0000702c       ??_C@_0CH@FAGDDGPN@normal?5block?5at?50x?$CFp?0?5?$CFIu?5bytes?5@ 004d902c     LIBCMTD:dbgheap.obj
 0003:0000705c       ??_C@_0DD@GHNAAKBB@client?5block?5at?50x?$CFp?0?5subtype?5?$CFx@ 004d905c     LIBCMTD:dbgheap.obj
 0003:0000709c       ??_C@_06PKLGBFGM@?$HL?$CFld?$HN?5?$AA@ 004d909c     LIBCMTD:dbgheap.obj
 0003:000070a4       ??_C@_0L@JMEFFCCJ@?$CFhs?$CI?$CFd?$CJ?5?3?5?$AA@ 004d90a4     LIBCMTD:dbgheap.obj
 0003:000070b4       ??_C@_0BE@OIEFNFL@?$CDFile?5Error?$CD?$CI?$CFd?$CJ?5?3?5?$AA@ 004d90b4     LIBCMTD:dbgheap.obj
 0003:000070cc       ??_C@_0BE@KCIPKCIA@Dumping?5objects?5?9?$DO?6?$AA@ 004d90cc     LIBCMTD:dbgheap.obj
 0003:000070e4       ??_C@_0BA@HJBKCELP@?5Data?3?5?$DM?$CFs?$DO?5?$CFs?6?$AA@ 004d90e4     LIBCMTD:dbgheap.obj
 0003:000070f8       ??_C@_1CG@LPFIACGM@?$AA_?$AAp?$AAr?$AAi?$AAn?$AAt?$AAM?$AAe?$AAm?$AAB?$AAl?$AAo?$AAc?$AAk?$AAD?$AAa?$AAt?$AAa?$AA?$AA@ 004d90f8     LIBCMTD:dbgheap.obj
 0003:00007128       ??_C@_05MKKEDADM@?$CF?42X?5?$AA@ 004d9128     LIBCMTD:dbgheap.obj
 0003:00007130       ??_C@_0BI@JBFPOEJA@Detected?5memory?5leaks?$CB?6?$AA@ 004d9130     LIBCMTD:dbgheap.obj
 0003:0000714c       ??_C@_0BP@DEDHGGGI@Total?5allocations?3?5?$CFId?5bytes?4?6?$AA@ 004d914c     LIBCMTD:dbgheap.obj
 0003:00007174       ??_C@_0CB@BLHDAFNE@Largest?5number?5used?3?5?$CFId?5bytes?4?6@ 004d9174     LIBCMTD:dbgheap.obj
 0003:0000719c       ??_C@_0BO@DACNIABB@?$CFId?5bytes?5in?5?$CFId?5?$CFhs?5Blocks?4?6?$AA@ 004d919c     LIBCMTD:dbgheap.obj
 0003:000071c0       ??_C@_1CM@MPNIBKGK@?$AA_?$AAC?$AAr?$AAt?$AAM?$AAe?$AAm?$AAD?$AAu?$AAm?$AAp?$AAS?$AAt?$AAa?$AAt?$AAi?$AAs?$AAt?$AAi?$AAc?$AAs?$AA?$AA@ 004d91c0     LIBCMTD:dbgheap.obj
 0003:000071f4       ??_C@_1DK@LFLKFPDA@?$AAo?$AAf?$AAf?$AAs?$AAe?$AAt?$AA?5?$AA?$DN?$AA?$DN?$AA?5?$AA0?$AA?5?$AA?$HM?$AA?$HM?$AA?5?$AAo?$AAf?$AAf?$AAs?$AAe?$AAt?$AA?5?$AA?$DM?$AA?5?$AAs?$AAi?$AAz?$AAe?$AA?$AA@ 004d91f4     LIBCMTD:dbgheap.obj
 0003:0000723c       ??_C@_1DG@DONCJBBJ@?$AA_?$AAa?$AAl?$AAi?$AAg?$AAn?$AAe?$AAd?$AA_?$AAo?$AAf?$AAf?$AAs?$AAe?$AAt?$AA_?$AAm?$AAa?$AAl?$AAl?$AAo?$AAc?$AA_?$AAd?$AAb?$AAg?$AA?$AA@ 004d923c     LIBCMTD:dbgheap.obj
 0003:0000727c       ??_C@_1CE@NPMGPNNP@?$AAI?$AAS?$AA_?$AA2?$AA_?$AAP?$AAO?$AAW?$AA_?$AAN?$AA?$CI?$AAa?$AAl?$AAi?$AAg?$AAn?$AA?$CJ?$AA?$AA@ 004d927c     LIBCMTD:dbgheap.obj
 0003:000072a8       ??_C@_1DI@NINIKFFK@?$AA_?$AAa?$AAl?$AAi?$AAg?$AAn?$AAe?$AAd?$AA_?$AAo?$AAf?$AAf?$AAs?$AAe?$AAt?$AA_?$AAr?$AAe?$AAa?$AAl?$AAl?$AAo?$AAc?$AA_?$AAd?$AAb?$AAg?$AA?$AA@ 004d92a8     LIBCMTD:dbgheap.obj
 0003:000072ec       ??_C@_0DL@PGHMMKNE@Damage?5before?50x?$CFp?5which?5was?5all@ 004d92ec     LIBCMTD:dbgheap.obj
 0003:00007338       ??_C@_0EI@NDNJMAJK@The?5block?5at?50x?$CFp?5was?5not?5alloca@ 004d9338     LIBCMTD:dbgheap.obj
 0003:00007390       ??_C@_1DK@MMLHIFFH@?$AA_?$AAa?$AAl?$AAi?$AAg?$AAn?$AAe?$AAd?$AA_?$AAo?$AAf?$AAf?$AAs?$AAe?$AAt?$AA_?$AAr?$AAe?$AAc?$AAa?$AAl?$AAl?$AAo?$AAc?$AA_?$AAd?$AAb?$AAg?$AA?$AA@ 004d9390     LIBCMTD:dbgheap.obj
 0003:000073d8       ??_C@_0EF@PGELACII@The?5block?5at?50x?$CFp?5was?5not?5alloca@ 004d93d8     LIBCMTD:dbgheap.obj
 0003:0000742c       ??_C@_1CK@DDKKOLAN@?$AAs?$AAi?$AAz?$AAe?$AAI?$AAn?$AAB?$AAy?$AAt?$AAe?$AAs?$AA?5?$AA?$DO?$AA?$DN?$AA?5?$AAc?$AAo?$AAu?$AAn?$AAt?$AA?$AA@ 004d942c     LIBCMTD:memcpy_s.obj
 0003:00007460       ??_C@_1BI@DCHLDCPP@?$AAs?$AAr?$AAc?$AA?5?$AA?$CB?$AA?$DN?$AA?5?$AAN?$AAU?$AAL?$AAL?$AA?$AA@ 004d9460     LIBCMTD:memcpy_s.obj
 0003:0000747c       ??_C@_1BC@GKHDJMGB@?$AAm?$AAe?$AAm?$AAc?$AAp?$AAy?$AA_?$AAs?$AA?$AA@ 004d947c     LIBCMTD:memcpy_s.obj
 0003:00007494       ??_C@_1BG@MKNDEPCK@?$AAm?$AAe?$AAm?$AAc?$AAp?$AAy?$AA_?$AAs?$AA?4?$AAc?$AA?$AA@ 004d9494     LIBCMTD:memcpy_s.obj
 0003:000074b0       ??_C@_1BI@GKKCBDMD@?$AAd?$AAs?$AAt?$AA?5?$AA?$CB?$AA?$DN?$AA?5?$AAN?$AAU?$AAL?$AAL?$AA?$AA@ 004d94b0     LIBCMTD:memcpy_s.obj
 0003:000074cc       ??_C@_1BE@NMKKBGPA@?$AAm?$AAe?$AAm?$AAm?$AAo?$AAv?$AAe?$AA_?$AAs?$AA?$AA@ 004d94cc     LIBCMTD:memmove_s.obj
 0003:000074e4       ??_C@_1BI@FBHFDPFC@?$AAm?$AAe?$AAm?$AAm?$AAo?$AAv?$AAe?$AA_?$AAs?$AA?4?$AAc?$AA?$AA@ 004d94e4     LIBCMTD:memmove_s.obj
 0003:00007500       ??_C@_08GNMOIKDK@onexit?4c?$AA@ 004d9500     LIBCMTD:onexit.obj
 0003:0000750c       ??_C@_0P@MIGLKIOC@CorExitProcess?$AA@ 004d950c     LIBCMTD:crt0dat.obj
 0003:00007520       ??_C@_0M@MBOPBNBK@mscoree?4dll?$AA@ 004d9520     LIBCMTD:crt0dat.obj
 0003:00007530       ??_C@_1BO@PCPNBEJP@?$AA_?$AAo?$AAs?$AAp?$AAl?$AAa?$AAt?$AAf?$AAo?$AAr?$AAm?$AA?$CB?$AA?$DN?$AA0?$AA?$AA@ 004d9530     LIBCMTD:crt0dat.obj
 0003:00007554       ??_C@_1CA@HBJLODAG@?$AA_?$AAg?$AAe?$AAt?$AA_?$AAo?$AAs?$AAp?$AAl?$AAa?$AAt?$AAf?$AAo?$AAr?$AAm?$AA?$AA@ 004d9554     LIBCMTD:crt0dat.obj
 0003:0000757c       ??_C@_1BE@DFOEAGLM@?$AAc?$AAr?$AAt?$AA0?$AAd?$AAa?$AAt?$AA?4?$AAc?$AA?$AA@ 004d957c     LIBCMTD:crt0dat.obj
 0003:00007594       ??_C@_1BO@LKEBEKJP@?$AAp?$AAV?$AAa?$AAl?$AAu?$AAe?$AA?5?$AA?$CB?$AA?$DN?$AA?5?$AAN?$AAU?$AAL?$AAL?$AA?$AA@ 004d9594     LIBCMTD:crt0dat.obj
 0003:000075b8       ??_C@_1BG@OLMEODBO@?$AA_?$AAg?$AAe?$AAt?$AA_?$AAo?$AAs?$AAv?$AAe?$AAr?$AA?$AA@ 004d95b8     LIBCMTD:crt0dat.obj
 0003:000075d4       ??_C@_1BI@EHCOONPO@?$AA_?$AAg?$AAe?$AAt?$AA_?$AAw?$AAi?$AAn?$AAv?$AAe?$AAr?$AA?$AA@ 004d95d4     LIBCMTD:crt0dat.obj
 0003:000075f0       ??_C@_1BM@MHJHOJPG@?$AA_?$AAg?$AAe?$AAt?$AA_?$AAw?$AAi?$AAn?$AAm?$AAa?$AAj?$AAo?$AAr?$AA?$AA@ 004d95f0     LIBCMTD:crt0dat.obj
 0003:00007614       ??_C@_1BM@FAAKKHPI@?$AA_?$AAg?$AAe?$AAt?$AA_?$AAw?$AAi?$AAn?$AAm?$AAi?$AAn?$AAo?$AAr?$AA?$AA@ 004d9614     LIBCMTD:crt0dat.obj
 0003:00007638       ??_C@_1CC@CDIPMFPD@?$AA_?$AAw?$AAp?$AAg?$AAm?$AAp?$AAt?$AAr?$AA?5?$AA?$CB?$AA?$DN?$AA?5?$AAN?$AAU?$AAL?$AAL?$AA?$AA@ 004d9638     LIBCMTD:crt0dat.obj
 0003:00007660       ??_C@_1BK@PNLDCCDP@?$AA_?$AAg?$AAe?$AAt?$AA_?$AAw?$AAp?$AAg?$AAm?$AAp?$AAt?$AAr?$AA?$AA@ 004d9660     LIBCMTD:crt0dat.obj
 0003:00007680       ??_C@_1CA@BBNAFCKO@?$AA_?$AAp?$AAg?$AAm?$AAp?$AAt?$AAr?$AA?5?$AA?$CB?$AA?$DN?$AA?5?$AAN?$AAU?$AAL?$AAL?$AA?$AA@ 004d9680     LIBCMTD:crt0dat.obj
 0003:000076a8       ??_C@_1BI@COAAPHJK@?$AA_?$AAg?$AAe?$AAt?$AA_?$AAp?$AAg?$AAm?$AAp?$AAt?$AAr?$AA?$AA@ 004d96a8     LIBCMTD:crt0dat.obj
 0003:000076c4       ??_C@_1BG@KCMPBBDK@?$AA_?$AAg?$AAe?$AAt?$AA_?$AAe?$AAr?$AAr?$AAn?$AAo?$AA?$AA@ 004d96c4     LIBCMTD:dosmap.obj
 0003:000076e0       ??_C@_1BC@GFJPPMFE@?$AAd?$AAo?$AAs?$AAm?$AAa?$AAp?$AA?4?$AAc?$AA?$AA@ 004d96e0     LIBCMTD:dosmap.obj
 0003:000076f8       ??_C@_1BM@INIPHHDD@?$AA_?$AAg?$AAe?$AAt?$AA_?$AAd?$AAo?$AAs?$AAe?$AAr?$AAr?$AAn?$AAo?$AA?$AA@ 004d96f8     LIBCMTD:dosmap.obj
 0003:0000771c       ??_C@_07CKDBCAPD@mlock?4c?$AA@ 004d971c     LIBCMTD:mlock.obj
 0003:00007728       ??_C@_1BI@OINOOFEA@?$AAh?$AAa?$AAn?$AAd?$AAl?$AAe?$AAr?$AA?4?$AAc?$AAp?$AAp?$AA?$AA@ 004d9728     LIBCMTD:handler.obj
 0003:00007744       ??_C@_1BC@JLLICHIC@?$AAp?$AAn?$AAh?$AA?5?$AA?$DN?$AA?$DN?$AA?5?$AA0?$AA?$AA@ 004d9744     LIBCMTD:handler.obj
 0003:0000775c       __pDestructExceptionObject 004d975c     LIBCMTD:frame.obj
 0003:00007760       ??_C@_0O@DPKOEFFH@bad?5exception?$AA@ 004d9760     LIBCMTD:frame.obj
 0003:00007774       ??_7bad_exception@std@@6B@ 004d9774     LIBCMTD:frame.obj
 0003:00007780       ??_C@_0O@NLDKAIKN@EncodePointer?$AA@ 004d9780     LIBCMTD:tidtable.obj
 0003:00007790       ??_C@_0N@NHGLKGEC@KERNEL32?4DLL?$AA@ 004d9790     LIBCMTD:tidtable.obj
 0003:000077a0       ??_C@_0O@KBPMFGHI@DecodePointer?$AA@ 004d97a0     LIBCMTD:tidtable.obj
 0003:000077b0       ??_C@_0L@JKCACIOJ@tidtable?4c?$AA@ 004d97b0     LIBCMTD:tidtable.obj
 0003:000077c0       ??_C@_07PEJMOBNF@FlsFree?$AA@ 004d97c0     LIBCMTD:tidtable.obj
 0003:000077cc       ??_C@_0M@JCPCPOEF@FlsSetValue?$AA@ 004d97cc     LIBCMTD:tidtable.obj
 0003:000077dc       ??_C@_0M@GDNOONDI@FlsGetValue?$AA@ 004d97dc     LIBCMTD:tidtable.obj
 0003:000077ec       ??_C@_08KNHFBNJ@FlsAlloc?$AA@ 004d97ec     LIBCMTD:tidtable.obj
 0003:00007804       ??_C@_0BO@GNIAFIKK@Unknown?5Runtime?5Check?5Error?6?$AN?$AA@ 004d9804     LIBCMTD:error.obj
 0003:00007828       ??_C@_0CM@NGINOKPC@Stack?5memory?5around?5_alloca?5was?5@ 004d9828     LIBCMTD:error.obj
 0003:0000785c       ??_C@_0DG@HKJMLLLP@A?5local?5variable?5was?5used?5before@ 004d985c     LIBCMTD:error.obj
 0003:0000789c       ??_C@_0BN@FFOINMNJ@Stack?5memory?5was?5corrupted?6?$AN?$AA@ 004d989c     LIBCMTD:error.obj
 0003:000078c0       ??_C@_0BBN@GPMLNJCF@A?5cast?5to?5a?5smaller?5data?5type?5ha@ 004d98c0     LIBCMTD:error.obj
 0003:00007a18       ??_C@_0NN@NGPKDKPD@The?5value?5of?5ESP?5was?5not?5properl@ 004d9a18     LIBCMTD:error.obj
 0003:00007bbc       ??_C@_0CA@IODNCDPG@Run?9Time?5Check?5Failure?5?$CD?$CFd?5?9?5?$CFs?$AA@ 004d9bbc     LIBCMTD:error.obj
 0003:00007be4       ??_C@_0BE@GNBOBNCK@Unknown?5Module?5Name?$AA@ 004d9be4     LIBCMTD:error.obj
 0003:00007bfc       ??_C@_0BB@PFFGGCJP@Unknown?5Filename?$AA@ 004d9bfc     LIBCMTD:error.obj
 0003:00007c10       ??_C@_1EA@NFKNIFJP@?$AAR?$AAu?$AAn?$AA?9?$AAT?$AAi?$AAm?$AAe?$AA?5?$AAC?$AAh?$AAe?$AAc?$AAk?$AA?5?$AAF?$AAa?$AAi?$AAl?$AAu?$AAr?$AAe?$AA?5?$AA?$CD?$AA?$CF?$AAd?$AA?5?$AA?9?$AA?5?$AA?$CF?$AAs?$AA?$AA@ 004d9c10     LIBCMTD:error.obj
 0003:00007c60       ??_C@_1GM@OLMCBDMB@?$AAR?$AAu?$AAn?$AAt?$AAi?$AAm?$AAe?$AA?5?$AAC?$AAh?$AAe?$AAc?$AAk?$AA?5?$AAE?$AAr?$AAr?$AAo?$AAr?$AA?4?$AA?6?$AA?$AN?$AA?5?$AAU?$AAn?$AAa?$AAb?$AAl?$AAe?$AA?5?$AAt?$AAo@ 004d9c60     LIBCMTD:error.obj
 0003:00007ce4       ??_C@_0CG@IAFNJNEE@Stack?5corrupted?5near?5unknown?5var@ 004d9ce4     LIBCMTD:error.obj
 0003:00007d18       ??_C@_0EJ@LJKNEOLN@Stack?5area?5around?5_alloca?5memory@ 004d9d18     LIBCMTD:error.obj
 0003:00007d70       ??_C@_08KJEDNCKC@?$CFs?$CFs?$CFs?$CFs?$AA@ 004d9d70     LIBCMTD:error.obj
 0003:00007d7c       ??_C@_02LLMPMKNF@?$DO?5?$AA@ 004d9d7c     LIBCMTD:error.obj
 0003:00007d80       ??_C@_01EEMJAFIK@?6?$AA@   004d9d80     LIBCMTD:error.obj
 0003:00007d84       ??_C@_0BC@KIBAILCI@?$CFs?$CFs?$CFp?$CFs?$CFld?$CFs?$CFd?$CFs?$AA@ 004d9d84     LIBCMTD:error.obj
 0003:00007da0       ??_C@_0EI@CLEPFNGI@Stack?5area?5around?5_alloca?5memory@ 004d9da0     LIBCMTD:error.obj
 0003:00007df8       ??_C@_0N@MHFFIMFG@?6Address?3?50x?$AA@ 004d9df8     LIBCMTD:error.obj
 0003:00007e08       ??_C@_07DFDJCKFN@?6Size?3?5?$AA@ 004d9e08     LIBCMTD:error.obj
 0003:00007e14       ??_C@_0CK@DKGBICFE@?6Allocation?5number?5within?5this?5f@ 004d9e14     LIBCMTD:error.obj
 0003:00007e48       ??_C@_08OMAHNMHJ@?6Data?3?5?$DM?$AA@ 004d9e48     LIBCMTD:error.obj
 0003:00007e54       ??_C@_09FOPFMPEJ@wsprintfA?$AA@ 004d9e54     LIBCMTD:error.obj
 0003:00007e60       ??_C@_0L@GMPLCCII@user32?4dll?$AA@ 004d9e60     LIBCMTD:error.obj
 0003:00007e70       ??_C@_0DA@BEGFPCGG@A?5variable?5is?5being?5used?5without@ 004d9e70     LIBCMTD:error.obj
 0003:00007eac       ??_C@_0BP@OGBCLIBO@Stack?5around?5_alloca?5corrupted?$AA@ 004d9eac     LIBCMTD:userapi.obj
 0003:00007ed4       ??_C@_0CK@CNLNOEPB@Local?5variable?5used?5before?5initi@ 004d9ed4     LIBCMTD:userapi.obj
 0003:00007f08       ??_C@_0BI@CIGMDCBH@Stack?5memory?5corruption?$AA@ 004d9f08     LIBCMTD:userapi.obj
 0003:00007f24       ??_C@_0CK@FEGOIOPB@Cast?5to?5smaller?5type?5causing?5los@ 004d9f24     LIBCMTD:userapi.obj
 0003:00007f58       ??_C@_0BJ@HEGAHDFO@Stack?5pointer?5corruption?$AA@ 004d9f58     LIBCMTD:userapi.obj
 0003:00007f78       ??_C@_0O@NJIIDJEH@i386?2chkesp?4c?$AA@ 004d9f78     LIBCMTD:chkesp.obj
 0003:00007f88       ??_C@_00CNPNBAHC@?$AA@     004d9f88     LIBCMTD:chkesp.obj
 0003:00007f90       ??_C@_0NM@DNEDKLDF@The?5value?5of?5ESP?5was?5not?5properl@ 004d9f90     LIBCMTD:chkesp.obj
 0003:00008098       ??_C@_1BI@JFCCCJAM@?$AAt?$AAy?$AAp?$AAn?$AAa?$AAm?$AAe?$AA?4?$AAc?$AAp?$AAp?$AA?$AA@ 004da098     LIBCMTD:typname.obj
 0003:000080b4       ??_C@_1CI@IDCGDBOP@?$AAp?$AAN?$AAo?$AAd?$AAe?$AA?9?$AA?$DO?$AAn?$AAe?$AAx?$AAt?$AA?5?$AA?$CB?$AA?$DN?$AA?5?$AAN?$AAU?$AAL?$AAL?$AA?$AA@ 004da0b4     LIBCMTD:typname.obj
 0003:000080e8       ??_C@_1JK@MLBKHELP@?$AAs?$AAt?$AAr?$AAc?$AAp?$AAy?$AA_?$AAs?$AA?5?$AA?$CI?$AA?$CI?$AAc?$AAh?$AAa?$AAr?$AA?5?$AA?$CK?$AA?$CJ?$AA?$CI?$AA?$CI?$AAt?$AAy?$AAp?$AAe?$AA_?$AAi?$AAn?$AAf?$AAo?$AA?5?$AA?$CK?$AA?$CJ@ 004da0e8     LIBCMTD:typname.obj
 0003:000081a0       ??_C@_1CM@OOICDMK@?$AAt?$AAy?$AAp?$AAe?$AA_?$AAi?$AAn?$AAf?$AAo?$AA?3?$AA?3?$AA_?$AAN?$AAa?$AAm?$AAe?$AA_?$AAb?$AAa?$AAs?$AAe?$AA?$AA@ 004da1a0     LIBCMTD:typname.obj
 0003:000081d4       ??_C@_1DO@OJJLFJPE@?$AAt?$AAy?$AAp?$AAe?$AA_?$AAi?$AAn?$AAf?$AAo?$AA?3?$AA?3?$AA_?$AAN?$AAa?$AAm?$AAe?$AA_?$AAb?$AAa?$AAs?$AAe?$AA_?$AAi?$AAn?$AAt?$AAe?$AAr?$AAn?$AAa?$AAl?$AA?$AA@ 004da1d4     LIBCMTD:typname.obj
 0003:00008220       ??_C@_0P@GGKDKEEG@runtime?5error?5?$AA@ 004da220     LIBCMTD:crt0msg.obj
 0003:00008234       ??_C@_02PCIJFNDE@?$AN?6?$AA@ 004da234     LIBCMTD:crt0msg.obj
 0003:00008238       ??_C@_0O@MJNIPGOH@TLOSS?5error?$AN?6?$AA@ 004da238     LIBCMTD:crt0msg.obj
 0003:00008248       ??_C@_0N@BONNPDHF@SING?5error?$AN?6?$AA@ 004da248     LIBCMTD:crt0msg.obj
 0003:00008258       ??_C@_0P@MBDAJNE@DOMAIN?5error?$AN?6?$AA@ 004da258     LIBCMTD:crt0msg.obj
 0003:00008270       ??_C@_0BFB@HKKMCDOL@R6034?$AN?6An?5application?5has?5made?5a@ 004da270     LIBCMTD:crt0msg.obj
 0003:00008408       ??_C@_0PH@EPAFIJ@R6033?$AN?6?9?5Attempt?5to?5use?5MSIL?5cod@ 004da408     LIBCMTD:crt0msg.obj
 0003:00008530       ??_C@_0DD@BKEEABMM@R6032?$AN?6?9?5not?5enough?5space?5for?5lo@ 004da530     LIBCMTD:crt0msg.obj
 0003:00008570       ??_C@_0GD@OFKILIED@R6031?$AN?6?9?5Attempt?5to?5initialize?5t@ 004da570     LIBCMTD:crt0msg.obj
 0003:000085e8       ??_C@_0BP@LPMHJOKI@R6030?$AN?6?9?5CRT?5not?5initialized?$AN?6?$AA@ 004da5e8     LIBCMTD:crt0msg.obj
 0003:00008610       ??_C@_0CF@KJDAIALP@R6028?$AN?6?9?5unable?5to?5initialize?5he@ 004da610     LIBCMTD:crt0msg.obj
 0003:0000863c       ??_C@_0DF@GAKBPDFP@R6027?$AN?6?9?5not?5enough?5space?5for?5lo@ 004da63c     LIBCMTD:crt0msg.obj
 0003:0000867c       ??_C@_0DF@IBLNNAIG@R6026?$AN?6?9?5not?5enough?5space?5for?5st@ 004da67c     LIBCMTD:crt0msg.obj
 0003:000086bc       ??_C@_0CG@IOHKGFNJ@R6025?$AN?6?9?5pure?5virtual?5function?5c@ 004da6bc     LIBCMTD:crt0msg.obj
 0003:000086ec       ??_C@_0DF@JIJJFJDC@R6024?$AN?6?9?5not?5enough?5space?5for?5_o@ 004da6ec     LIBCMTD:crt0msg.obj
 0003:0000872c       ??_C@_0CJ@EGEJHFME@R6019?$AN?6?9?5unable?5to?5open?5console?5@ 004da72c     LIBCMTD:crt0msg.obj
 0003:00008760       ??_C@_0CB@GNHNIELH@R6018?$AN?6?9?5unexpected?5heap?5error?$AN?6@ 004da760     LIBCMTD:crt0msg.obj
 0003:00008788       ??_C@_0CN@FOLDKNG@R6017?$AN?6?9?5unexpected?5multithread?5@ 004da788     LIBCMTD:crt0msg.obj
 0003:000087c0       ??_C@_0CM@FAHFJNHO@R6016?$AN?6?9?5not?5enough?5space?5for?5th@ 004da7c0     LIBCMTD:crt0msg.obj
 0003:000087f8       ??_C@_0JG@LBKMGKLD@?$AN?6This?5application?5has?5requested@ 004da7f8     LIBCMTD:crt0msg.obj
 0003:000088ac       ??_C@_0CM@FLCNIPKK@R6009?$AN?6?9?5not?5enough?5space?5for?5en@ 004da8ac     LIBCMTD:crt0msg.obj
 0003:000088e0       ??_C@_0CK@KMMJOAPP@R6008?$AN?6?9?5not?5enough?5space?5for?5ar@ 004da8e0     LIBCMTD:crt0msg.obj
 0003:00008914       ??_C@_0CF@HOHMHDEK@R6002?$AN?6?9?5floating?5point?5not?5load@ 004da914     LIBCMTD:crt0msg.obj
 0003:00008940       ??_C@_0CF@GOGNBNAK@Microsoft?5Visual?5C?$CL?$CL?5Runtime?5Lib@ 004da940     LIBCMTD:crt0msg.obj
 0003:00008970       ??_C@_1KC@JBIKIPNF@?$AAs?$AAt?$AAr?$AAc?$AAa?$AAt?$AA_?$AAs?$AA?$CI?$AAo?$AAu?$AAt?$AAm?$AAs?$AAg?$AA?0?$AA?5?$AA?$CI?$AAs?$AAi?$AAz?$AAe?$AAo?$AAf?$AA?$CI?$AAo?$AAu?$AAt?$AAm?$AAs?$AAg?$AA?$CJ@ 004da970     LIBCMTD:crt0msg.obj
 0003:00008a34       ??_C@_02PHMGELLB@?6?6?$AA@ 004daa34     LIBCMTD:crt0msg.obj
 0003:00008a38       ??_C@_1HO@POLIDBMF@?$AAs?$AAt?$AAr?$AAc?$AAa?$AAt?$AA_?$AAs?$AA?$CI?$AAo?$AAu?$AAt?$AAm?$AAs?$AAg?$AA?0?$AA?5?$AA?$CI?$AAs?$AAi?$AAz?$AAe?$AAo?$AAf?$AA?$CI?$AAo?$AAu?$AAt?$AAm?$AAs?$AAg?$AA?$CJ@ 004daa38     LIBCMTD:crt0msg.obj
 0003:00008ad0       ??_C@_1HG@CJJGKFHK@?$AAs?$AAt?$AAr?$AAn?$AAc?$AAp?$AAy?$AA_?$AAs?$AA?$CI?$AAp?$AAc?$AAh?$AA?0?$AA?5?$AAp?$AAr?$AAo?$AAg?$AAn?$AAa?$AAm?$AAe?$AA_?$AAs?$AAi?$AAz?$AAe?$AA?5?$AA?9?$AA?5?$AA?$CI@ 004daad0     LIBCMTD:crt0msg.obj
 0003:00008b60       ??_C@_0BH@DNAGHKFM@?$DMprogram?5name?5unknown?$DO?$AA@ 004dab60     LIBCMTD:crt0msg.obj
 0003:00008b80       ??_C@_1HI@FOOPEDMH@?$AAs?$AAt?$AAr?$AAc?$AAp?$AAy?$AA_?$AAs?$AA?$CI?$AAp?$AAr?$AAo?$AAg?$AAn?$AAa?$AAm?$AAe?$AA?0?$AA?5?$AAp?$AAr?$AAo?$AAg?$AAn?$AAa?$AAm?$AAe?$AA_?$AAs?$AAi?$AAz?$AAe@ 004dab80     LIBCMTD:crt0msg.obj
 0003:00008c10       ??_C@_0BK@OFGJDLJJ@Runtime?5Error?$CB?6?6Program?3?5?$AA@ 004dac10     LIBCMTD:crt0msg.obj
 0003:00008c30       ??_C@_1KM@NKKPELHG@?$AAs?$AAt?$AAr?$AAc?$AAp?$AAy?$AA_?$AAs?$AA?$CI?$AAo?$AAu?$AAt?$AAm?$AAs?$AAg?$AA?0?$AA?5?$AA?$CI?$AAs?$AAi?$AAz?$AAe?$AAo?$AAf?$AA?$CI?$AAo?$AAu?$AAt?$AAm?$AAs?$AAg?$AA?$CJ@ 004dac30     LIBCMTD:crt0msg.obj
 0003:00008d00       ??_C@_1BI@EAHMBMEC@?$AA_?$AAN?$AAM?$AAS?$AAG?$AA_?$AAW?$AAR?$AAI?$AAT?$AAE?$AA?$AA@ 004dad00     LIBCMTD:crt0msg.obj
 0003:00008d1c       ??_C@_1BE@HJCCFLDA@?$AAc?$AAr?$AAt?$AA0?$AAm?$AAs?$AAg?$AA?4?$AAc?$AA?$AA@ 004dad1c     LIBCMTD:crt0msg.obj
 0003:00008d38       ??_C@_1GO@NGIGJNHH@?$AAs?$AAt?$AAr?$AAn?$AAc?$AAp?$AAy?$AA_?$AAs?$AA?$CI?$AA?$CK?$AAs?$AAt?$AAr?$AAa?$AAd?$AAd?$AAr?$AAe?$AAs?$AAs?$AA?0?$AA?5?$AAo?$AAu?$AAt?$AAs?$AAi?$AAz?$AAe?$AA?0?$AA?5@ 004dad38     LIBCMTD:inithelp.obj
 0003:00008dbc       ??_C@_1CA@KHHCPEI@?$AA_?$AA_?$AAg?$AAe?$AAt?$AAl?$AAo?$AAc?$AAa?$AAl?$AAe?$AAi?$AAn?$AAf?$AAo?$AA?$AA@ 004dadbc     LIBCMTD:inithelp.obj
 0003:00008de4       ??_C@_1BG@OFMEOKEA@?$AAi?$AAn?$AAi?$AAt?$AAh?$AAe?$AAl?$AAp?$AA?4?$AAc?$AA?$AA@ 004dade4     LIBCMTD:inithelp.obj
 0003:00008e00       ??_C@_0L@DILIPMN@inithelp?4c?$AA@ 004dae00     LIBCMTD:inithelp.obj
 0003:00008e10       ??_C@_07PNHPCIEC@_file?4c?$AA@ 004dae10     LIBCMTD:_file.obj
 0003:00008e20       ??_C@_1JE@ECKHFIFP@?$AA?$CI?$AA?$CC?$AAI?$AAn?$AAv?$AAa?$AAl?$AAi?$AAd?$AA?5?$AAf?$AAi?$AAl?$AAe?$AA?5?$AAd?$AAe?$AAs?$AAc?$AAr?$AAi?$AAp?$AAt?$AAo?$AAr?$AA?4?$AA?5?$AAF?$AAi?$AAl?$AAe?$AA?5@ 004dae20     LIBCMTD:close.obj
 0003:00008ed4       ??_C@_1CM@OKGMMMDH@?$AA?$CI?$AA_?$AAo?$AAs?$AAf?$AAi?$AAl?$AAe?$AA?$CI?$AAf?$AAh?$AA?$CJ?$AA?5?$AA?$CG?$AA?5?$AAF?$AAO?$AAP?$AAE?$AAN?$AA?$CJ?$AA?$AA@ 004daed4     LIBCMTD:close.obj
 0003:00008f08       ??_C@_1O@EDEJGJBM@?$AA_?$AAc?$AAl?$AAo?$AAs?$AAe?$AA?$AA@ 004daf08     LIBCMTD:close.obj
 0003:00008f18       ??_C@_1BA@GOGDMMEN@?$AAc?$AAl?$AAo?$AAs?$AAe?$AA?4?$AAc?$AA?$AA@ 004daf18     LIBCMTD:close.obj
 0003:00008f30       ??_C@_1FO@LPCLHKGE@?$AA?$CI?$AAf?$AAh?$AA?5?$AA?$DO?$AA?$DN?$AA?5?$AA0?$AA?5?$AA?$CG?$AA?$CG?$AA?5?$AA?$CI?$AAu?$AAn?$AAs?$AAi?$AAg?$AAn?$AAe?$AAd?$AA?$CJ?$AAf?$AAh?$AA?5?$AA?$DM?$AA?5?$AA?$CI?$AAu?$AAn?$AAs?$AAi@ 004daf30     LIBCMTD:close.obj
 0003:00008fa0       ??_C@_1BA@JGHIEKKM@?$AA_?$AAf?$AAi?$AAl?$AAe?$AAn?$AAo?$AA?$AA@ 004dafa0     LIBCMTD:fileno.obj
 0003:00008fb4       ??_C@_1BC@FBGAHIFN@?$AAf?$AAi?$AAl?$AAe?$AAn?$AAo?$AA?4?$AAc?$AA?$AA@ 004dafb4     LIBCMTD:fileno.obj
 0003:00008fcc       ??_C@_1BG@BCLADFND@?$AA_?$AAf?$AAr?$AAe?$AAe?$AAb?$AAu?$AAf?$AA?4?$AAc?$AA?$AA@ 004dafcc     LIBCMTD:_freebuf.obj
 0003:00008fe8       ??_C@_1BO@KIJENGPH@?$AAs?$AAt?$AAr?$AAe?$AAa?$AAm?$AA?5?$AA?$CB?$AA?$DN?$AA?5?$AAN?$AAU?$AAL?$AAL?$AA?$AA@ 004dafe8     LIBCMTD:_freebuf.obj
 0003:0000900c       ??_C@_08MAFBHINM@ioinit?4c?$AA@ 004db00c     LIBCMTD:ioinit.obj
 0003:00009018       ??_C@_1BC@MJNBEDIJ@?$AA_?$AAi?$AAn?$AAp?$AAu?$AAt?$AA_?$AAl?$AA?$AA@ 004db018     LIBCMTD:input.obj
 0003:00009030       ??_C@_1BA@LIDNIBLD@?$AAi?$AAn?$AAp?$AAu?$AAt?$AA?4?$AAc?$AA?$AA@ 004db030     LIBCMTD:input.obj
 0003:00009044       ??_C@_07CMLOKKIF@input?4c?$AA@ 004db044     LIBCMTD:input.obj
 0003:00009050       ??_C@_1DO@MBOKMJPK@?$AAn?$AAF?$AAl?$AAo?$AAa?$AAt?$AAS?$AAt?$AAr?$AAU?$AAs?$AAe?$AAd?$AA?$DM?$AA?$DN?$AA?$CI?$AA?$CK?$AAp?$AAn?$AAF?$AAl?$AAo?$AAa?$AAt?$AAS?$AAt?$AAr?$AAS?$AAz?$AA?$CJ?$AA?$AA@ 004db050     LIBCMTD:input.obj
 0003:0000909c       ??_C@_1DG@MPPGJOHD@?$AA?$CI?$AA?$CC?$AAI?$AAn?$AAv?$AAa?$AAl?$AAi?$AAd?$AA?5?$AAI?$AAn?$AAp?$AAu?$AAt?$AA?5?$AAF?$AAo?$AAr?$AAm?$AAa?$AAt?$AA?$CC?$AA?0?$AA0?$AA?$CJ?$AA?$AA@ 004db09c     LIBCMTD:inputs.obj
 0003:000090dc       ??_C@_1BG@LBKFJFHM@?$AA_?$AAi?$AAn?$AAp?$AAu?$AAt?$AA_?$AAs?$AA_?$AAl?$AA?$AA@ 004db0dc     LIBCMTD:inputs.obj
 0003:000090f8       ??_C@_1GA@EKLPPGMG@?$AAf?$AA?3?$AA?2?$AAr?$AAt?$AAm?$AA?2?$AAv?$AAc?$AAt?$AAo?$AAo?$AAl?$AAs?$AA?2?$AAc?$AAr?$AAt?$AA_?$AAb?$AAl?$AAd?$AA?2?$AAs?$AAe?$AAl?$AAf?$AA_?$AAx?$AA8?$AA6?$AA?2@ 004db0f8     LIBCMTD:inputs.obj
 0003:0000916c       ??_C@_0DA@ONFNIG@f?3?2rtm?2vctools?2crt_bld?2self_x86?2@ 004db16c     LIBCMTD:inputs.obj
 0003:000091d4       ??_C@_1CI@KEDPFCAL@?$AA?$CI?$AA?$CK?$AAm?$AAo?$AAd?$AAe?$AA?5?$AA?$DN?$AA?$DN?$AA?5?$AA_?$AAT?$AA?$CI?$AA?8?$AA?2?$AA0?$AA?8?$AA?$CJ?$AA?$CJ?$AA?$AA@ 004db1d4     LIBCMTD:_open.obj
 0003:00009204       ??_C@_1BE@DONHJJKE@?$AA_?$AAo?$AAp?$AAe?$AAn?$AAf?$AAi?$AAl?$AAe?$AA?$AA@ 004db204     LIBCMTD:_open.obj
 0003:0000921c       ??_C@_1DK@PKMJBLLN@?$AA?$CI?$AA?$CC?$AAI?$AAn?$AAv?$AAa?$AAl?$AAi?$AAd?$AA?5?$AAf?$AAi?$AAl?$AAe?$AA?5?$AAo?$AAp?$AAe?$AAn?$AA?5?$AAm?$AAo?$AAd?$AAe?$AA?$CC?$AA?0?$AA0?$AA?$CJ?$AA?$AA@ 004db21c     LIBCMTD:_open.obj
 0003:00009264       ??_C@_1BI@MFCLPIBM@?$AAs?$AAt?$AAr?$AA?5?$AA?$CB?$AA?$DN?$AA?5?$AAN?$AAU?$AAL?$AAL?$AA?$AA@ 004db264     LIBCMTD:_open.obj
 0003:00009280       ??_C@_1BK@HGLMNMEC@?$AAm?$AAo?$AAd?$AAe?$AA?5?$AA?$CB?$AA?$DN?$AA?5?$AAN?$AAU?$AAL?$AAL?$AA?$AA@ 004db280     LIBCMTD:_open.obj
 0003:000092a0       ??_C@_1BA@ENGOOAMJ@?$AA_?$AAo?$AAp?$AAe?$AAn?$AA?4?$AAc?$AA?$AA@ 004db2a0     LIBCMTD:_open.obj
 0003:000092b4       ??_C@_1CC@JBMDNKJP@?$AAf?$AAi?$AAl?$AAe?$AAn?$AAa?$AAm?$AAe?$AA?5?$AA?$CB?$AA?$DN?$AA?5?$AAN?$AAU?$AAL?$AAL?$AA?$AA@ 004db2b4     LIBCMTD:_open.obj
 0003:000092dc       ??_C@_08MKBBPGGN@stream?4c?$AA@ 004db2dc     LIBCMTD:stream.obj
 0003:000092e8       ??_C@_1GE@KOCFNGPB@?$AA_?$AAc?$AAo?$AAn?$AAt?$AAr?$AAo?$AAl?$AAf?$AAp?$AA_?$AAs?$AA?$CI?$AA?$CI?$AA?$CI?$AAv?$AAo?$AAi?$AAd?$AA?5?$AA?$CK?$AA?$CJ?$AA0?$AA?$CJ?$AA?0?$AA?5?$AA0?$AAx?$AA0?$AA0?$AA0?$AA1@ 004db2e8     LIBCMTD:fp8.obj
 0003:00009360       ??_C@_1CK@JMKHCBEI@?$AA_?$AAs?$AAe?$AAt?$AAd?$AAe?$AAf?$AAa?$AAu?$AAl?$AAt?$AAp?$AAr?$AAe?$AAc?$AAi?$AAs?$AAi?$AAo?$AAn?$AA?$AA@ 004db360     LIBCMTD:fp8.obj
 0003:00009394       ??_C@_1BI@DMMHIADH@?$AAi?$AAn?$AAt?$AAe?$AAl?$AA?2?$AAf?$AAp?$AA8?$AA?4?$AAc?$AA?$AA@ 004db394     LIBCMTD:fp8.obj
 0003:000093b0       __real@3ff0000000000000    004db3b0     LIBCMTD:testfdiv.obj
 0003:000093c0       __real@4150017ec0000000    004db3c0     LIBCMTD:testfdiv.obj
 0003:000093d0       __real@4147ffff80000000    004db3d0     LIBCMTD:testfdiv.obj
 0003:000093dc       ??_C@_0BK@NHEOCAHP@IsProcessorFeaturePresent?$AA@ 004db3dc     LIBCMTD:testfdiv.obj
 0003:000093fc       ??_C@_08CPNIBGIE@KERNEL32?$AA@ 004db3fc     LIBCMTD:testfdiv.obj
 0003:00009408       __real@0000000000000000    004db408     LIBCMTD:cvt.obj
 0003:00009414       ??_C@_1CA@CBMNPEO@?$AAs?$AAi?$AAz?$AAe?$AAI?$AAn?$AAB?$AAy?$AAt?$AAe?$AAs?$AA?5?$AA?$DO?$AA?5?$AA0?$AA?$AA@ 004db414     LIBCMTD:cvt.obj
 0003:0000943c       ??_C@_1BC@INKAPMHI@?$AA_?$AAc?$AAf?$AAt?$AAo?$AAe?$AA_?$AAl?$AA?$AA@ 004db43c     LIBCMTD:cvt.obj
 0003:00009454       ??_C@_1M@BMJONBHG@?$AAc?$AAv?$AAt?$AA?4?$AAc?$AA?$AA@ 004db454     LIBCMTD:cvt.obj
 0003:00009464       ??_C@_1BI@ICGGMGLK@?$AAb?$AAu?$AAf?$AA?5?$AA?$CB?$AA?$DN?$AA?5?$AAN?$AAU?$AAL?$AAL?$AA?$AA@ 004db464     LIBCMTD:cvt.obj
 0003:00009480       ??_C@_05KLBDPFGC@e?$CL000?$AA@ 004db480     LIBCMTD:cvt.obj
 0003:00009488       ??_C@_1LE@EOIFGNCJ@?$AAs?$AAt?$AAr?$AAc?$AAp?$AAy?$AA_?$AAs?$AA?$CI?$AAp?$AA?0?$AA?5?$AA?$CI?$AAs?$AAi?$AAz?$AAe?$AAI?$AAn?$AAB?$AAy?$AAt?$AAe?$AAs?$AA?5?$AA?$DN?$AA?$DN?$AA?5?$AA?$CI?$AAs?$AAi?$AAz@ 004db488     LIBCMTD:cvt.obj
 0003:00009560       ??_C@_1HE@NACBNDPP@?$AAs?$AAi?$AAz?$AAe?$AAI?$AAn?$AAB?$AAy?$AAt?$AAe?$AAs?$AA?5?$AA?$DO?$AA?5?$AA?$CI?$AAs?$AAi?$AAz?$AAe?$AA_?$AAt?$AA?$CJ?$AA?$CI?$AA3?$AA?5?$AA?$CL?$AA?5?$AA?$CI?$AAn?$AAd?$AAe?$AAc@ 004db560     LIBCMTD:cvt.obj
 0003:000095ec       ??_C@_1BE@OLBNEILL@?$AA_?$AAc?$AAf?$AAt?$AAo?$AAe?$AA2?$AA_?$AAl?$AA?$AA@ 004db5ec     LIBCMTD:cvt.obj
 0003:00009608       ??_C@_1FC@IKIMAMJB@?$AAs?$AAi?$AAz?$AAe?$AAI?$AAn?$AAB?$AAy?$AAt?$AAe?$AAs?$AA?5?$AA?$DO?$AA?5?$AA?$CI?$AAs?$AAi?$AAz?$AAe?$AA_?$AAt?$AA?$CJ?$AA?$CI?$AA1?$AA?5?$AA?$CL?$AA?5?$AA4?$AA?5?$AA?$CL?$AA?5?$AAn@ 004db608     LIBCMTD:cvt.obj
 0003:0000966c       ??_C@_1BC@JOKPCIC@?$AA_?$AAc?$AAf?$AAt?$AAo?$AAa?$AA_?$AAl?$AA?$AA@ 004db66c     LIBCMTD:cvt.obj
 0003:00009684       ??_C@_1BC@DCPPLJL@?$AA_?$AAc?$AAf?$AAt?$AAo?$AAf?$AA_?$AAl?$AA?$AA@ 004db684     LIBCMTD:cvt.obj
 0003:0000969c       ??_C@_1BE@CKPDLI@?$AA_?$AAc?$AAf?$AAt?$AAo?$AAf?$AA2?$AA_?$AAl?$AA?$AA@ 004db69c     LIBCMTD:cvt.obj
 0003:000096b4       ??_C@_1BC@MPIFPLAF@?$AA_?$AAc?$AAf?$AAt?$AAo?$AAg?$AA_?$AAl?$AA?$AA@ 004db6b4     LIBCMTD:cvt.obj
 0003:000096cc       ??_C@_1DM@MADKGDLO@?$AA?$CI?$AAL?$AA?$CC?$AAB?$AAu?$AAf?$AAf?$AAe?$AAr?$AA?5?$AAi?$AAs?$AA?5?$AAt?$AAo?$AAo?$AA?5?$AAs?$AAm?$AAa?$AAl?$AAl?$AA?$CC?$AA?5?$AA?$CG?$AA?$CG?$AA?5?$AA0?$AA?$CJ?$AA?$AA@ 004db6cc     LIBCMTD:strcpy_s.obj
 0003:00009714       ??_C@_1CI@HCPHDDLE@?$AAB?$AAu?$AAf?$AAf?$AAe?$AAr?$AA?5?$AAi?$AAs?$AA?5?$AAt?$AAo?$AAo?$AA?5?$AAs?$AAm?$AAa?$AAl?$AAl?$AA?$AA@ 004db714     LIBCMTD:strcpy_s.obj
 0003:00009744       ??_C@_1CG@OFBJMIGJ@?$AA?$CI?$AA?$CI?$AA?$CI?$AA_?$AAS?$AAr?$AAc?$AA?$CJ?$AA?$CJ?$AA?$CJ?$AA?5?$AA?$CB?$AA?$DN?$AA?5?$AAN?$AAU?$AAL?$AAL?$AA?$AA@ 004db744     LIBCMTD:strcpy_s.obj
 0003:00009774       ??_C@_1BC@CFJEPFGF@?$AAs?$AAt?$AAr?$AAc?$AAp?$AAy?$AA_?$AAs?$AA?$AA@ 004db774     LIBCMTD:strcpy_s.obj
 0003:00009790       ??_C@_1GK@NOPKFDOE@?$AAF?$AA?3?$AA?2?$AAR?$AAT?$AAM?$AA?2?$AAv?$AAc?$AAt?$AAo?$AAo?$AAl?$AAs?$AA?2?$AAc?$AAr?$AAt?$AA_?$AAb?$AAl?$AAd?$AA?2?$AAS?$AAE?$AAL?$AAF?$AA_?$AAX?$AA8?$AA6?$AA?2@ 004db790     LIBCMTD:strcpy_s.obj
 0003:00009810       ??_C@_1FC@NCPEPIBI@?$AA?$CI?$AA?$CI?$AA_?$AAD?$AAs?$AAt?$AA?$CJ?$AA?$CJ?$AA?5?$AA?$CB?$AA?$DN?$AA?5?$AAN?$AAU?$AAL?$AAL?$AA?5?$AA?$CG?$AA?$CG?$AA?5?$AA?$CI?$AA?$CI?$AA_?$AAS?$AAi?$AAz?$AAe?$AAI?$AAn?$AAB?$AAy?$AAt@ 004db810     LIBCMTD:strcpy_s.obj
 0003:00009878       ??_C@_1NK@LOFHIHFC@?$AAf?$AAM?$AAo?$AAd?$AAe?$AA?5?$AA?$DN?$AA?$DN?$AA?5?$AA_?$AAC?$AAR?$AAT?$AAD?$AAB?$AAG?$AA_?$AAR?$AAE?$AAP?$AAO?$AAR?$AAT?$AA_?$AAM?$AAO?$AAD?$AAE?$AA?5?$AA?$HM?$AA?$HM?$AA?5@ 004db878     LIBCMTD:dbgrptt.obj
 0003:00009980       ??_C@_1CE@FIHIECNJ@?$AA_?$AAC?$AAr?$AAt?$AAS?$AAe?$AAt?$AAR?$AAe?$AAp?$AAo?$AAr?$AAt?$AAM?$AAo?$AAd?$AAe?$AA?$AA@ 004db980     LIBCMTD:dbgrptt.obj
 0003:000099ac       ??_C@_1BE@FLKCNJCI@?$AAd?$AAb?$AAg?$AAr?$AAp?$AAt?$AAt?$AA?4?$AAc?$AA?$AA@ 004db9ac     LIBCMTD:dbgrptt.obj
 0003:000099c8       ??_C@_1FA@IFFFOLDJ@?$AAn?$AAR?$AAp?$AAt?$AAT?$AAy?$AAp?$AAe?$AA?5?$AA?$DO?$AA?$DN?$AA?5?$AA0?$AA?5?$AA?$CG?$AA?$CG?$AA?5?$AAn?$AAR?$AAp?$AAt?$AAT?$AAy?$AAp?$AAe?$AA?5?$AA?$DM?$AA?5?$AA_?$AAC?$AAR?$AAT@ 004db9c8     LIBCMTD:dbgrptt.obj
 0003:00009a28       ??_C@_1CE@IKKEDCME@?$AA_?$AAC?$AAr?$AAt?$AAS?$AAe?$AAt?$AAR?$AAe?$AAp?$AAo?$AAr?$AAt?$AAF?$AAi?$AAl?$AAe?$AA?$AA@ 004dba28     LIBCMTD:dbgrptt.obj
 0003:00009a58       ??_C@_1HO@PJOFIKFE@?$AA_?$AAC?$AAr?$AAt?$AAD?$AAb?$AAg?$AAR?$AAe?$AAp?$AAo?$AAr?$AAt?$AA?3?$AA?5?$AAS?$AAt?$AAr?$AAi?$AAn?$AAg?$AA?5?$AAt?$AAo?$AAo?$AA?5?$AAl?$AAo?$AAn?$AAg?$AA?5?$AAo@ 004dba58     LIBCMTD:dbgrptt.obj
 0003:00009af0       ??_C@_1MC@IGEECMDB@?$AAw?$AAc?$AAs?$AAc?$AAp?$AAy?$AA_?$AAs?$AA?$CI?$AAs?$AAz?$AAO?$AAu?$AAt?$AAM?$AAe?$AAs?$AAs?$AAa?$AAg?$AAe?$AA2?$AA?0?$AA?5?$AA4?$AA0?$AA9?$AA6?$AA?0?$AA?5?$AAL?$AA?$CC@ 004dbaf0     LIBCMTD:dbgrptt.obj
 0003:00009bd8       ??_C@_1IM@OOKIFKOH@?$AAe?$AA?5?$AA?$DN?$AA?5?$AAm?$AAb?$AAs?$AAt?$AAo?$AAw?$AAc?$AAs?$AA_?$AAs?$AA?$CI?$AA?$CG?$AAr?$AAe?$AAt?$AA?0?$AA?5?$AAs?$AAz?$AAO?$AAu?$AAt?$AAM?$AAe?$AAs?$AAs?$AAa?$AAg@ 004dbbd8     LIBCMTD:dbgrptt.obj
 0003:00009c80       ??_C@_1FI@IBIOIHEG@?$AAs?$AAt?$AAr?$AAc?$AAp?$AAy?$AA_?$AAs?$AA?$CI?$AAs?$AAz?$AAO?$AAu?$AAt?$AAM?$AAe?$AAs?$AAs?$AAa?$AAg?$AAe?$AA?0?$AA?5?$AA4?$AA0?$AA9?$AA6?$AA?0?$AA?5?$AAs?$AAz?$AAL@ 004dbc80     LIBCMTD:dbgrptt.obj
 0003:00009cf0       ??_C@_1JG@CPKCIOEE@?$AAs?$AAt?$AAr?$AAc?$AAp?$AAy?$AA_?$AAs?$AA?$CI?$AAs?$AAz?$AAO?$AAu?$AAt?$AAM?$AAe?$AAs?$AAs?$AAa?$AAg?$AAe?$AA?0?$AA?5?$AA4?$AA0?$AA9?$AA6?$AA?0?$AA?5?$AA?$CC?$AA_?$AAC@ 004dbcf0     LIBCMTD:dbgrptt.obj
 0003:00009da4       ??_C@_0M@IPILFDFN@?$CFs?$CI?$CFd?$CJ?5?3?5?$CFs?$AA@ 004dbda4     LIBCMTD:dbgrptt.obj
 0003:00009db8       ??_C@_1EI@LDHJEDO@?$AAs?$AAt?$AAr?$AAc?$AAa?$AAt?$AA_?$AAs?$AA?$CI?$AAs?$AAz?$AAL?$AAi?$AAn?$AAe?$AAM?$AAe?$AAs?$AAs?$AAa?$AAg?$AAe?$AA?0?$AA?5?$AA4?$AA0?$AA9?$AA6?$AA?0?$AA?5?$AA?$CC?$AA?2@ 004dbdb8     LIBCMTD:dbgrptt.obj
 0003:00009e10       ??_C@_01LIIJDEN@?$AN?$AA@  004dbe10     LIBCMTD:dbgrptt.obj
 0003:00009e18       ??_C@_1EI@CACDLAFK@?$AAs?$AAt?$AAr?$AAc?$AAa?$AAt?$AA_?$AAs?$AA?$CI?$AAs?$AAz?$AAL?$AAi?$AAn?$AAe?$AAM?$AAe?$AAs?$AAs?$AAa?$AAg?$AAe?$AA?0?$AA?5?$AA4?$AA0?$AA9?$AA6?$AA?0?$AA?5?$AA?$CC?$AA?2@ 004dbe18     LIBCMTD:dbgrptt.obj
 0003:00009e70       ??_C@_1FK@NPGBPOFO@?$AAs?$AAt?$AAr?$AAc?$AAa?$AAt?$AA_?$AAs?$AA?$CI?$AAs?$AAz?$AAL?$AAi?$AAn?$AAe?$AAM?$AAe?$AAs?$AAs?$AAa?$AAg?$AAe?$AA?0?$AA?5?$AA4?$AA0?$AA9?$AA6?$AA?0?$AA?5?$AAs?$AAz@ 004dbe70     LIBCMTD:dbgrptt.obj
 0003:00009ee0       ??_C@_1KK@GIGAEDMO@?$AAs?$AAt?$AAr?$AAc?$AAp?$AAy?$AA_?$AAs?$AA?$CI?$AAs?$AAz?$AAL?$AAi?$AAn?$AAe?$AAM?$AAe?$AAs?$AAs?$AAa?$AAg?$AAe?$AA?0?$AA?5?$AA4?$AA0?$AA9?$AA6?$AA?0?$AA?5?$AAs?$AAz@ 004dbee0     LIBCMTD:dbgrptt.obj
 0003:00009fac       ??_C@_0BC@LAIDCHCH@Assertion?5failed?$CB?$AA@ 004dbfac     LIBCMTD:dbgrptt.obj
 0003:00009fc4       ??_C@_0BD@CAENFOHP@Assertion?5failed?3?5?$AA@ 004dbfc4     LIBCMTD:dbgrptt.obj
 0003:00009fdc       ??_C@_0CL@EACFGMNB@_CrtDbgReport?3?5String?5too?5long?5o@ 004dbfdc     LIBCMTD:dbgrptt.obj
 0003:0000a010       ??_C@_1JI@GAALPGBM@?$AAs?$AAt?$AAr?$AAc?$AAp?$AAy?$AA_?$AAs?$AA?$CI?$AAs?$AAz?$AAU?$AAs?$AAe?$AAr?$AAM?$AAe?$AAs?$AAs?$AAa?$AAg?$AAe?$AA?0?$AA?5?$AA4?$AA0?$AA9?$AA6?$AA?0?$AA?5?$AA?$CC?$AA_@ 004dc010     LIBCMTD:dbgrptt.obj
 0003:0000a0c8       ??_C@_07BHGABMGB@?0?5Line?5?$AA@ 004dc0c8     LIBCMTD:dbgrptt.obj
 0003:0000a0d4       ??_C@_0P@DFJNDPOP@?$DMfile?5unknown?$DO?$AA@ 004dc0d4     LIBCMTD:dbgrptt.obj
 0003:0000a0e8       ??_C@_0CG@BNGLOCEO@Second?5Chance?5Assertion?5Failed?3?5@ 004dc0e8     LIBCMTD:dbgrptt.obj
 0003:0000a118       ??_C@_1FA@JPHJBHEM@?$AA_?$AAi?$AAt?$AAo?$AAa?$AA_?$AAs?$AA?$CI?$AAn?$AAL?$AAi?$AAn?$AAe?$AA?0?$AA?5?$AAs?$AAz?$AAL?$AAi?$AAn?$AAe?$AAM?$AAe?$AAs?$AAs?$AAa?$AAg?$AAe?$AA?0?$AA?5?$AA4?$AA0@ 004dc118     LIBCMTD:dbgrptt.obj
 0003:0000a178       ??_C@_1CA@KHJHLKA@?$AA_?$AAV?$AAC?$AAr?$AAt?$AAD?$AAb?$AAg?$AAR?$AAe?$AAp?$AAo?$AAr?$AAt?$AAA?$AA?$AA@ 004dc178     LIBCMTD:dbgrptt.obj
 0003:0000a1a0       ??_C@_1IE@CPGKIAGP@?$AAw?$AAc?$AAs?$AAt?$AAo?$AAm?$AAb?$AAs?$AA_?$AAs?$AA?$CI?$AA?$CG?$AAr?$AAe?$AAt?$AA?0?$AA?5?$AAs?$AAz?$AAa?$AAO?$AAu?$AAt?$AAM?$AAe?$AAs?$AAs?$AAa?$AAg?$AAe?$AA?0?$AA?5@ 004dc1a0     LIBCMTD:dbgrptt.obj
 0003:0000a240       ??_C@_1MA@LBAMNNOB@?$AAs?$AAt?$AAr?$AAc?$AAp?$AAy?$AA_?$AAs?$AA?$CI?$AAs?$AAz?$AAO?$AAu?$AAt?$AAM?$AAe?$AAs?$AAs?$AAa?$AAg?$AAe?$AA2?$AA?0?$AA?5?$AA4?$AA0?$AA9?$AA6?$AA?0?$AA?5?$AA?$CC?$AA_@ 004dc240     LIBCMTD:dbgrptt.obj
 0003:0000a328       ??_C@_1JC@EOAPFDLN@?$AAw?$AAc?$AAs?$AAt?$AAo?$AAm?$AAb?$AAs?$AA_?$AAs?$AA?$CI?$AA?$CI?$AA?$CI?$AAv?$AAo?$AAi?$AAd?$AA?5?$AA?$CK?$AA?$CJ?$AA0?$AA?$CJ?$AA?0?$AA?5?$AAs?$AAz?$AAO?$AAu?$AAt?$AAM?$AAe?$AAs@ 004dc328     LIBCMTD:dbgrptt.obj
 0003:0000a3d8       ??_C@_1FI@DBAIJPJE@?$AAw?$AAc?$AAs?$AAc?$AAp?$AAy?$AA_?$AAs?$AA?$CI?$AAs?$AAz?$AAO?$AAu?$AAt?$AAM?$AAe?$AAs?$AAs?$AAa?$AAg?$AAe?$AA?0?$AA?5?$AA4?$AA0?$AA9?$AA6?$AA?0?$AA?5?$AAs?$AAz?$AAL@ 004dc3d8     LIBCMTD:dbgrptt.obj
 0003:0000a444       ??_C@_1BI@JIDBEPIG@?$AA?$CF?$AAs?$AA?$CI?$AA?$CF?$AAd?$AA?$CJ?$AA?5?$AA?3?$AA?5?$AA?$CF?$AAs?$AA?$AA@ 004dc444     LIBCMTD:dbgrptt.obj
 0003:0000a460       ??_C@_1EK@PHCBEDKB@?$AAw?$AAc?$AAs?$AAc?$AAa?$AAt?$AA_?$AAs?$AA?$CI?$AAs?$AAz?$AAL?$AAi?$AAn?$AAe?$AAM?$AAe?$AAs?$AAs?$AAa?$AAg?$AAe?$AA?0?$AA?5?$AA4?$AA0?$AA9?$AA6?$AA?0?$AA?5?$AAL?$AA?$CC@ 004dc460     LIBCMTD:dbgrptt.obj
 0003:0000a4b8       ??_C@_13CMNBPIDO@?$AA?$AN?$AA?$AA@ 004dc4b8     LIBCMTD:dbgrptt.obj
 0003:0000a4c0       ??_C@_1EK@NMDFGHMF@?$AAw?$AAc?$AAs?$AAc?$AAa?$AAt?$AA_?$AAs?$AA?$CI?$AAs?$AAz?$AAL?$AAi?$AAn?$AAe?$AAM?$AAe?$AAs?$AAs?$AAa?$AAg?$AAe?$AA?0?$AA?5?$AA4?$AA0?$AA9?$AA6?$AA?0?$AA?5?$AAL?$AA?$CC@ 004dc4c0     LIBCMTD:dbgrptt.obj
 0003:0000a518       ??_C@_1FK@HPADHBBD@?$AAw?$AAc?$AAs?$AAc?$AAa?$AAt?$AA_?$AAs?$AA?$CI?$AAs?$AAz?$AAL?$AAi?$AAn?$AAe?$AAM?$AAe?$AAs?$AAs?$AAa?$AAg?$AAe?$AA?0?$AA?5?$AA4?$AA0?$AA9?$AA6?$AA?0?$AA?5?$AAs?$AAz@ 004dc518     LIBCMTD:dbgrptt.obj
 0003:0000a588       ??_C@_1KO@DGAHENCH@?$AAw?$AAc?$AAs?$AAc?$AAp?$AAy?$AA_?$AAs?$AA?$CI?$AAs?$AAz?$AAL?$AAi?$AAn?$AAe?$AAM?$AAe?$AAs?$AAs?$AAa?$AAg?$AAe?$AA?0?$AA?5?$AA4?$AA0?$AA9?$AA6?$AA?0?$AA?5?$AAs?$AAz@ 004dc588     LIBCMTD:dbgrptt.obj
 0003:0000a658       ??_C@_1CE@OJBNHDMO@?$AAA?$AAs?$AAs?$AAe?$AAr?$AAt?$AAi?$AAo?$AAn?$AA?5?$AAf?$AAa?$AAi?$AAl?$AAe?$AAd?$AA?$CB?$AA?$AA@ 004dc658     LIBCMTD:dbgrptt.obj
 0003:0000a684       ??_C@_1CG@FFFGGODN@?$AAA?$AAs?$AAs?$AAe?$AAr?$AAt?$AAi?$AAo?$AAn?$AA?5?$AAf?$AAa?$AAi?$AAl?$AAe?$AAd?$AA?3?$AA?5?$AA?$AA@ 004dc684     LIBCMTD:dbgrptt.obj
 0003:0000a6b8       ??_C@_1JK@KHFABAEO@?$AAw?$AAc?$AAs?$AAc?$AAp?$AAy?$AA_?$AAs?$AA?$CI?$AAs?$AAz?$AAU?$AAs?$AAe?$AAr?$AAM?$AAe?$AAs?$AAs?$AAa?$AAg?$AAe?$AA?0?$AA?5?$AA4?$AA0?$AA9?$AA6?$AA?0?$AA?5?$AAL?$AA?$CC@ 004dc6b8     LIBCMTD:dbgrptt.obj
 0003:0000a770       ??_C@_13LBAGMAIH@?$AA?6?$AA?$AA@ 004dc770     LIBCMTD:dbgrptt.obj
 0003:0000a774       ??_C@_1BA@ELMMDCFC@?$AA?0?$AA?5?$AAL?$AAi?$AAn?$AAe?$AA?5?$AA?$AA@ 004dc774     LIBCMTD:dbgrptt.obj
 0003:0000a788       ??_C@_1BO@OCHMLCAG@?$AA?$DM?$AAf?$AAi?$AAl?$AAe?$AA?5?$AAu?$AAn?$AAk?$AAn?$AAo?$AAw?$AAn?$AA?$DO?$AA?$AA@ 004dc788     LIBCMTD:dbgrptt.obj
 0003:0000a7b0       ??_C@_1EM@MJFLEDMB@?$AAS?$AAe?$AAc?$AAo?$AAn?$AAd?$AA?5?$AAC?$AAh?$AAa?$AAn?$AAc?$AAe?$AA?5?$AAA?$AAs?$AAs?$AAe?$AAr?$AAt?$AAi?$AAo?$AAn?$AA?5?$AAF?$AAa?$AAi?$AAl?$AAe?$AAd?$AA?3?$AA?5@ 004dc7b0     LIBCMTD:dbgrptt.obj
 0003:0000a810       ??_C@_1FA@CNLLOMHI@?$AA_?$AAi?$AAt?$AAo?$AAw?$AA_?$AAs?$AA?$CI?$AAn?$AAL?$AAi?$AAn?$AAe?$AA?0?$AA?5?$AAs?$AAz?$AAL?$AAi?$AAn?$AAe?$AAM?$AAe?$AAs?$AAs?$AAa?$AAg?$AAe?$AA?0?$AA?5?$AA4?$AA0@ 004dc810     LIBCMTD:dbgrptt.obj
 0003:0000a870       ??_C@_1CA@HPALHDOD@?$AA_?$AAV?$AAC?$AAr?$AAt?$AAD?$AAb?$AAg?$AAR?$AAe?$AAp?$AAo?$AAr?$AAt?$AAW?$AA?$AA@ 004dc870     LIBCMTD:dbgrptt.obj
 0003:0000a898       ??_C@_1FA@MJKDNFFB@?$AA?$CI?$AAL?$AA?$CC?$AAS?$AAt?$AAr?$AAi?$AAn?$AAg?$AA?5?$AAi?$AAs?$AA?5?$AAn?$AAo?$AAt?$AA?5?$AAn?$AAu?$AAl?$AAl?$AA?5?$AAt?$AAe?$AAr?$AAm?$AAi?$AAn?$AAa?$AAt?$AAe?$AAd@ 004dc898     LIBCMTD:strcat_s.obj
 0003:0000a8f8       ??_C@_1DM@FHLMIEG@?$AAS?$AAt?$AAr?$AAi?$AAn?$AAg?$AA?5?$AAi?$AAs?$AA?5?$AAn?$AAo?$AAt?$AA?5?$AAn?$AAu?$AAl?$AAl?$AA?5?$AAt?$AAe?$AAr?$AAm?$AAi?$AAn?$AAa?$AAt?$AAe?$AAd?$AA?$AA@ 004dc8f8     LIBCMTD:strcat_s.obj
 0003:0000a940       ??_C@_1BC@HGPNAKGC@?$AAs?$AAt?$AAr?$AAc?$AAa?$AAt?$AA_?$AAs?$AA?$AA@ 004dc940     LIBCMTD:strcat_s.obj
 0003:0000a958       ??_C@_1GK@BGEBPLEE@?$AAF?$AA?3?$AA?2?$AAR?$AAT?$AAM?$AA?2?$AAv?$AAc?$AAt?$AAo?$AAo?$AAl?$AAs?$AA?2?$AAc?$AAr?$AAt?$AA_?$AAb?$AAl?$AAd?$AA?2?$AAS?$AAE?$AAL?$AAF?$AA_?$AAX?$AA8?$AA6?$AA?2@ 004dc958     LIBCMTD:strcat_s.obj
 0003:0000a9d8       ??_C@_1BK@CMPKHPEC@?$AAn?$AA?5?$AA?$DM?$AA?$DN?$AA?5?$AAI?$AAN?$AAT?$AA_?$AAM?$AAA?$AAX?$AA?$AA@ 004dc9d8     LIBCMTD:wcstombs.obj
 0003:0000a9f8       ??_C@_1CG@LLJCAOHF@?$AA_?$AAw?$AAc?$AAs?$AAt?$AAo?$AAm?$AAb?$AAs?$AA_?$AAl?$AA_?$AAh?$AAe?$AAl?$AAp?$AAe?$AAr?$AA?$AA@ 004dc9f8     LIBCMTD:wcstombs.obj
 0003:0000aa28       ??_C@_1BG@POHBKINF@?$AAw?$AAc?$AAs?$AAt?$AAo?$AAm?$AAb?$AAs?$AA?4?$AAc?$AA?$AA@ 004dca28     LIBCMTD:wcstombs.obj
 0003:0000aa44       ??_C@_1BK@OIBENBPM@?$AAp?$AAw?$AAc?$AAs?$AA?5?$AA?$CB?$AA?$DN?$AA?5?$AAN?$AAU?$AAL?$AAL?$AA?$AA@ 004dca44     LIBCMTD:wcstombs.obj
 0003:0000aa64       ??_C@_1CM@KEOGBFLI@?$AAs?$AAi?$AAz?$AAe?$AAI?$AAn?$AAB?$AAy?$AAt?$AAe?$AAs?$AA?5?$AA?$DO?$AA?5?$AAr?$AAe?$AAt?$AAs?$AAi?$AAz?$AAe?$AA?$AA@ 004dca64     LIBCMTD:wcstombs.obj
 0003:0000aa98       ??_C@_1BM@BDMCLLDL@?$AA_?$AAw?$AAc?$AAs?$AAt?$AAo?$AAm?$AAb?$AAs?$AA_?$AAs?$AA_?$AAl?$AA?$AA@ 004dca98     LIBCMTD:wcstombs.obj
 0003:0000aac0       ??_C@_1IM@MFGKHGBP@?$AA?$CI?$AAd?$AAs?$AAt?$AA?5?$AA?$CB?$AA?$DN?$AA?5?$AAN?$AAU?$AAL?$AAL?$AA?5?$AA?$CG?$AA?$CG?$AA?5?$AAs?$AAi?$AAz?$AAe?$AAI?$AAn?$AAB?$AAy?$AAt?$AAe?$AAs?$AA?5?$AA?$DO?$AA?5?$AA0?$AA?$CJ@ 004dcac0     LIBCMTD:wcstombs.obj
 0003:0000ab68       ??_C@_1O@EJLDHPPL@?$AAs?$AAi?$AAg?$AAn?$AAa?$AAl?$AA?$AA@ 004dcb68     LIBCMTD:winsig.obj
 0003:0000ab78       ??_C@_1BC@KDODBONJ@?$AAw?$AAi?$AAn?$AAs?$AAi?$AAg?$AA?4?$AAc?$AA?$AA@ 004dcb78     LIBCMTD:winsig.obj
 0003:0000ab90       ??_C@_1DO@MLNEDKGB@?$AA?$CI?$AA?$CC?$AAI?$AAn?$AAv?$AAa?$AAl?$AAi?$AAd?$AA?5?$AAs?$AAi?$AAg?$AAn?$AAa?$AAl?$AA?5?$AAo?$AAr?$AA?5?$AAe?$AAr?$AAr?$AAo?$AAr?$AA?$CC?$AA?0?$AA?5?$AA0?$AA?$CJ?$AA?$AA@ 004dcb90     LIBCMTD:winsig.obj
 0003:0000abdc       ??_C@_08FKHPDPAC@winsig?4c?$AA@ 004dcbdc     LIBCMTD:winsig.obj
 0003:0000abe8       ??_C@_1M@DMJEIKHL@?$AAr?$AAa?$AAi?$AAs?$AAe?$AA?$AA@ 004dcbe8     LIBCMTD:winsig.obj
 0003:0000abf8       ??_C@_1DC@OIOKIELJ@?$AA_?$AAg?$AAe?$AAt?$AA_?$AAw?$AAi?$AAn?$AAm?$AAa?$AAj?$AAo?$AAr?$AA?$CI?$AA?$CG?$AAw?$AAi?$AAn?$AAm?$AAa?$AAj?$AAo?$AAr?$AA?$CJ?$AA?$AA@ 004dcbf8     LIBCMTD:crtmboxw.obj
 0003:0000ac34       ??_C@_0BI@DFKBFLJE@GetProcessWindowStation?$AA@ 004dcc34     LIBCMTD:crtmboxw.obj
 0003:0000ac50       ??_C@_0BK@DEKFELLI@GetUserObjectInformationW?$AA@ 004dcc50     LIBCMTD:crtmboxw.obj
 0003:0000ac70       ??_C@_1CC@LBPMICNL@?$AA_?$AA_?$AAc?$AAr?$AAt?$AAM?$AAe?$AAs?$AAs?$AAa?$AAg?$AAe?$AAB?$AAo?$AAx?$AAW?$AA?$AA@ 004dcc70     LIBCMTD:crtmboxw.obj
 0003:0000ac98       ??_C@_1GE@FEBHHKOE@?$AAf?$AA?3?$AA?2?$AAr?$AAt?$AAm?$AA?2?$AAv?$AAc?$AAt?$AAo?$AAo?$AAl?$AAs?$AA?2?$AAc?$AAr?$AAt?$AA_?$AAb?$AAl?$AAd?$AA?2?$AAs?$AAe?$AAl?$AAf?$AA_?$AAx?$AA8?$AA6?$AA?2@ 004dcc98     LIBCMTD:crtmboxw.obj
 0003:0000ad10       ??_C@_0BD@HHGDFDBJ@GetLastActivePopup?$AA@ 004dcd10     LIBCMTD:crtmboxw.obj
 0003:0000ad28       ??_C@_0BA@HNOPNCHB@GetActiveWindow?$AA@ 004dcd28     LIBCMTD:crtmboxw.obj
 0003:0000ad3c       ??_C@_0M@DLDCCGNP@MessageBoxW?$AA@ 004dcd3c     LIBCMTD:crtmboxw.obj
 0003:0000ad4c       ??_C@_1BG@GOEBHBDC@?$AAU?$AAS?$AAE?$AAR?$AA3?$AA2?$AA?4?$AAD?$AAL?$AAL?$AA?$AA@ 004dcd4c     LIBCMTD:crtmboxw.obj
 0003:0000ad68       ??_C@_1CC@OLIJCKA@?$AA?$CI?$AAs?$AAt?$AAr?$AAi?$AAn?$AAg?$AA?5?$AA?$CB?$AA?$DN?$AA?5?$AAN?$AAU?$AAL?$AAL?$AA?$CJ?$AA?$AA@ 004dcd68     LIBCMTD:swprintf.obj
 0003:0000ad90       ??_C@_1BE@BMIJMLDD@?$AA_?$AAs?$AAw?$AAp?$AAr?$AAi?$AAn?$AAt?$AAf?$AA?$AA@ 004dcd90     LIBCMTD:swprintf.obj
 0003:0000ada8       ??_C@_1BG@CEFLJIIJ@?$AAs?$AAw?$AAp?$AAr?$AAi?$AAn?$AAt?$AAf?$AA?4?$AAc?$AA?$AA@ 004dcda8     LIBCMTD:swprintf.obj
 0003:0000adc4       ??_C@_1BE@PMMBFFCC@?$AAw?$AAc?$AAs?$AAn?$AAc?$AAp?$AAy?$AA_?$AAs?$AA?$AA@ 004dcdc4     LIBCMTD:wcsncpy_s.obj
 0003:0000ade0       ??_C@_1GM@MGKGJLGA@?$AAF?$AA?3?$AA?2?$AAR?$AAT?$AAM?$AA?2?$AAv?$AAc?$AAt?$AAo?$AAo?$AAl?$AAs?$AA?2?$AAc?$AAr?$AAt?$AA_?$AAb?$AAl?$AAd?$AA?2?$AAS?$AAE?$AAL?$AAF?$AA_?$AAX?$AA8?$AA6?$AA?2@ 004dcde0     LIBCMTD:wcsncpy_s.obj
 0003:0000ae68       ??_C@_1FC@PFMLEHKI@?$AA?$CI?$AA?$CI?$AA_?$AAD?$AAs?$AAt?$AA?$CJ?$AA?$CJ?$AA?5?$AA?$CB?$AA?$DN?$AA?5?$AAN?$AAU?$AAL?$AAL?$AA?5?$AA?$CG?$AA?$CG?$AA?5?$AA?$CI?$AA?$CI?$AA_?$AAS?$AAi?$AAz?$AAe?$AAI?$AAn?$AAW?$AAo?$AAr@ 004dce68     LIBCMTD:wcsncpy_s.obj
 0003:0000aecc       ??_C@_1BC@KIONAFPO@?$AAw?$AAc?$AAs?$AAc?$AAp?$AAy?$AA_?$AAs?$AA?$AA@ 004dcecc     LIBCMTD:wcscpy_s.obj
 0003:0000aee4       ??_C@_0BB@NAGLCMLI@Assertion?5Failed?$AA@ 004dcee4     LIBCMTD:dbgrpt.obj
 0003:0000aef8       ??_C@_05NAOIJFC@Error?$AA@ 004dcef8     LIBCMTD:dbgrpt.obj
 0003:0000af00       ??_C@_07KGMMFLDN@Warning?$AA@ 004dcf00     LIBCMTD:dbgrpt.obj
 0003:0000af0c       ??_C@_08ODMAMGBE@dbgrpt?4c?$AA@ 004dcf0c     LIBCMTD:dbgrpt.obj
 0003:0000af18       ??_C@_1CG@GNMJDMIO@?$AA_?$AAC?$AAr?$AAt?$AAS?$AAe?$AAt?$AAR?$AAe?$AAp?$AAo?$AAr?$AAt?$AAH?$AAo?$AAo?$AAk?$AA2?$AA?$AA@ 004dcf18     LIBCMTD:dbgrpt.obj
 0003:0000af48       ??_C@_1BC@CBGBJLNL@?$AAd?$AAb?$AAg?$AAr?$AAp?$AAt?$AA?4?$AAc?$AA?$AA@ 004dcf48     LIBCMTD:dbgrpt.obj
 0003:0000af60       ??_C@_0CD@EBCGLDDL@Microsoft?5Visual?5C?$CL?$CL?5Debug?5Libra@ 004dcf60     LIBCMTD:dbgrpt.obj
 0003:0000af90       ??_C@_0FF@CCONDJCB@Debug?5?$CFs?$CB?6?6Program?3?5?$CFs?$CFs?$CFs?$CFs?$CFs?$CFs@ 004dcf90     LIBCMTD:dbgrpt.obj
 0003:0000aff8       ??_C@_09OFBFHMBK@?6Module?3?5?$AA@ 004dcff8     LIBCMTD:dbgrpt.obj
 0003:0000b004       ??_C@_07OPHPPLBG@?6File?3?5?$AA@ 004dd004     LIBCMTD:dbgrpt.obj
 0003:0000b010       ??_C@_07DBMPPHDI@?6Line?3?5?$AA@ 004dd010     LIBCMTD:dbgrpt.obj
 0003:0000b01c       ??_C@_0N@MEECIJGN@Expression?3?5?$AA@ 004dd01c     LIBCMTD:dbgrpt.obj
 0003:0000b030       ??_C@_0HD@GNBNFCCL@?6?6For?5information?5on?5how?5your?5pr@ 004dd030     LIBCMTD:dbgrpt.obj
 0003:0000b0c0       ??_C@_1KA@GHPEDBGI@?$AA_?$AAm?$AAb?$AAs?$AAn?$AAb?$AAc?$AAp?$AAy?$AA_?$AAs?$AA?$CI?$AAs?$AAz?$AAS?$AAh?$AAo?$AAr?$AAt?$AAP?$AAr?$AAo?$AAg?$AAN?$AAa?$AAm?$AAe?$AA?0?$AA?5?$AA2?$AA6?$AA0@ 004dd0c0     LIBCMTD:dbgrpt.obj
 0003:0000b180       ??_C@_1GG@DLDHOIGE@?$AAs?$AAt?$AAr?$AAc?$AAp?$AAy?$AA_?$AAs?$AA?$CI?$AAs?$AAz?$AAE?$AAx?$AAe?$AAN?$AAa?$AAm?$AAe?$AA?0?$AA?5?$AA2?$AA6?$AA0?$AA?0?$AA?5?$AA?$CC?$AA?$DM?$AAp?$AAr?$AAo?$AAg?$AAr@ 004dd180     LIBCMTD:dbgrpt.obj
 0003:0000b1fc       ??_C@_1CI@IDOKFLAJ@?$AA_?$AA_?$AAc?$AAr?$AAt?$AAM?$AAe?$AAs?$AAs?$AAa?$AAg?$AAe?$AAW?$AAi?$AAn?$AAd?$AAo?$AAw?$AAA?$AA?$AA@ 004dd1fc     LIBCMTD:dbgrpt.obj
 0003:0000b22c       ??_C@_1BK@JMCGJOCC@?$AA_?$AAe?$AAx?$AAp?$AAa?$AAn?$AAd?$AA_?$AAb?$AAa?$AAs?$AAe?$AA?$AA@ 004dd22c     LIBCMTD:expand.obj
 0003:0000b24c       ??_C@_1BC@OBICIAFI@?$AAe?$AAx?$AAp?$AAa?$AAn?$AAd?$AA?4?$AAc?$AA?$AA@ 004dd24c     LIBCMTD:expand.obj
 0003:0000b264       ??_C@_1BO@KFIJIAEA@?$AAp?$AAB?$AAl?$AAo?$AAc?$AAk?$AA?5?$AA?$CB?$AA?$DN?$AA?5?$AAN?$AAU?$AAL?$AAL?$AA?$AA@ 004dd264     LIBCMTD:expand.obj
 0003:0000b288       ??_C@_1BO@EMPIBJGC@?$AA_?$AAr?$AAe?$AAc?$AAa?$AAl?$AAl?$AAo?$AAc?$AA_?$AAb?$AAa?$AAs?$AAe?$AA?$AA@ 004dd288     LIBCMTD:realloc.obj
 0003:0000b2ac       ??_C@_1BE@IAPDAHOE@?$AAr?$AAe?$AAa?$AAl?$AAl?$AAo?$AAc?$AA?4?$AAc?$AA?$AA@ 004dd2ac     LIBCMTD:realloc.obj
 0003:0000b2c4       ??_C@_1BM@DKJOGMJM@?$AA_?$AA_?$AAh?$AAe?$AAa?$AAp?$AA_?$AAs?$AAe?$AAl?$AAe?$AAc?$AAt?$AA?$AA@ 004dd2c4     LIBCMTD:heapinit.obj
 0003:0000b2e8       ??_C@_1BG@INAAHHLF@?$AAh?$AAe?$AAa?$AAp?$AAi?$AAn?$AAi?$AAt?$AA?4?$AAc?$AA?$AA@ 004dd2e8     LIBCMTD:heapinit.obj
 0003:0000b304       ??_C@_1BC@DENNNKIM@?$AA_?$AAc?$AAr?$AAt?$AAh?$AAe?$AAa?$AAp?$AA?$AA@ 004dd304     LIBCMTD:heapinit.obj
 0003:0000b31c       ??_C@_1BC@IMNOJJAO@?$AAs?$AAb?$AAh?$AAe?$AAa?$AAp?$AA?4?$AAc?$AA?$AA@ 004dd31c     LIBCMTD:sbheap.obj
 0003:0000b338       ??_C@_1IC@MOGBEBCE@?$AA?$CI?$AAt?$AAh?$AAr?$AAe?$AAs?$AAh?$AAo?$AAl?$AAd?$AA?5?$AA?$DM?$AA?$DN?$AA?5?$AAM?$AAA?$AAX?$AA_?$AAA?$AAL?$AAL?$AAO?$AAC?$AA_?$AAD?$AAA?$AAT?$AAA?$AA_?$AAS?$AAI?$AAZ@ 004dd338     LIBCMTD:sbheap.obj
 0003:0000b3d4       ??_C@_1CG@BBFCGKBK@?$AA_?$AAs?$AAe?$AAt?$AA_?$AAs?$AAb?$AAh?$AA_?$AAt?$AAh?$AAr?$AAe?$AAs?$AAh?$AAo?$AAl?$AAd?$AA?$AA@ 004dd3d4     LIBCMTD:sbheap.obj
 0003:0000b408       ??_C@_1EC@DACAONFE@?$AAt?$AAh?$AAr?$AAe?$AAs?$AAh?$AAo?$AAl?$AAd?$AA?5?$AA?$DM?$AA?$DN?$AA?5?$AAM?$AAA?$AAX?$AA_?$AAA?$AAL?$AAL?$AAO?$AAC?$AA_?$AAD?$AAA?$AAT?$AAA?$AA_?$AAS?$AAI?$AAZ?$AAE@ 004dd408     LIBCMTD:sbheap.obj
 0003:0000b458       ??_C@_1BM@GFNECEDD@?$AA_?$AAs?$AAe?$AAt?$AA_?$AAa?$AAm?$AAb?$AAl?$AAk?$AAs?$AAi?$AAz?$AA?$AA@ 004dd458     LIBCMTD:sbheap.obj
 0003:0000b47c       ??_C@_1DK@BKLENMLC@?$AA0?$AA?5?$AA?$DM?$AA?5?$AAs?$AAi?$AAz?$AAe?$AA?5?$AA?$CG?$AA?$CG?$AA?5?$AAs?$AAi?$AAz?$AAe?$AA?5?$AA?$DM?$AA?$DN?$AA?5?$AAU?$AAI?$AAN?$AAT?$AA_?$AAM?$AAA?$AAX?$AA?$AA@ 004dd47c     LIBCMTD:sbheap.obj
 0003:0000b4c4       ??_C@_1BM@OFBCOJJF@?$AA_?$AAg?$AAe?$AAt?$AA_?$AAa?$AAm?$AAb?$AAl?$AAk?$AAs?$AAi?$AAz?$AA?$AA@ 004dd4c4     LIBCMTD:sbheap.obj
 0003:0000b4e8       ??_C@_1BM@IELHFPPM@?$AAp?$AAS?$AAi?$AAz?$AAe?$AA?5?$AA?$CB?$AA?$DN?$AA?5?$AAN?$AAU?$AAL?$AAL?$AA?$AA@ 004dd4e8     LIBCMTD:sbheap.obj
 0003:0000b50c       ??_C@_09KJLOAKHC@mbctype?4c?$AA@ 004dd50c     LIBCMTD:mbctype.obj
 0003:0000b518       ??_C@_07LCBHPJJN@LC_TIME?$AA@ 004dd518     LIBCMTD:setlocal.obj
 0003:0000b524       ??_C@_0L@DLHIECNL@LC_NUMERIC?$AA@ 004dd524     LIBCMTD:setlocal.obj
 0003:0000b534       ??_C@_0M@MIENIKLA@LC_MONETARY?$AA@ 004dd534     LIBCMTD:setlocal.obj
 0003:0000b544       ??_C@_08EADHIDAD@LC_CTYPE?$AA@ 004dd544     LIBCMTD:setlocal.obj
 0003:0000b550       ??_C@_0L@KFJHEKIK@LC_COLLATE?$AA@ 004dd550     LIBCMTD:setlocal.obj
 0003:0000b560       ??_C@_06NEFDFEKB@LC_ALL?$AA@ 004dd560     LIBCMTD:setlocal.obj
 0003:0000b568       ___lc_category             004dd568     LIBCMTD:setlocal.obj
 0003:0000b658       ??_C@_1BG@PFHEEGCP@?$AAs?$AAe?$AAt?$AAl?$AAo?$AAc?$AAa?$AAl?$AA?4?$AAc?$AA?$AA@ 004dd658     LIBCMTD:setlocal.obj
 0003:0000b678       ??_C@_1BKC@GGIENNAK@?$AA?$CI?$AA?$CI?$AAp?$AAt?$AAl?$AAo?$AAc?$AAi?$AA?9?$AA?$DO?$AAl?$AAc?$AA_?$AAc?$AAa?$AAt?$AAe?$AAg?$AAo?$AAr?$AAy?$AA?$FL?$AAc?$AAa?$AAt?$AAe?$AAg?$AAo?$AAr?$AAy?$AA?$FN?$AA?4@ 004dd678     LIBCMTD:setlocal.obj
 0003:0000b870       ??_C@_1CI@FGIONOJM@?$AA_?$AAc?$AAo?$AAn?$AAf?$AAi?$AAg?$AAt?$AAh?$AAr?$AAe?$AAa?$AAd?$AAl?$AAo?$AAc?$AAa?$AAl?$AAe?$AA?$AA@ 004dd870     LIBCMTD:setlocal.obj
 0003:0000b8a0       ??_C@_1GA@LDEGDKD@?$AA?$CI?$AA?$CC?$AAI?$AAn?$AAv?$AAa?$AAl?$AAi?$AAd?$AA?5?$AAp?$AAa?$AAr?$AAa?$AAm?$AAe?$AAt?$AAe?$AAr?$AA?5?$AAf?$AAo?$AAr?$AA?5?$AA_?$AAc?$AAo?$AAn?$AAf?$AAi?$AAg?$AAt@ 004dd8a0     LIBCMTD:setlocal.obj
 0003:0000b914       ??_C@_0L@LEECJGMI@setlocal?4c?$AA@ 004dd914     LIBCMTD:setlocal.obj
 0003:0000b924       ??_C@_1BE@DBJGBOJC@?$AAs?$AAe?$AAt?$AAl?$AAo?$AAc?$AAa?$AAl?$AAe?$AA?$AA@ 004dd924     LIBCMTD:setlocal.obj
 0003:0000b940       ??_C@_1FG@OHLFEKMC@?$AAL?$AAC?$AA_?$AAM?$AAI?$AAN?$AA?5?$AA?$DM?$AA?$DN?$AA?5?$AA_?$AAc?$AAa?$AAt?$AAe?$AAg?$AAo?$AAr?$AAy?$AA?5?$AA?$CG?$AA?$CG?$AA?5?$AA_?$AAc?$AAa?$AAt?$AAe?$AAg?$AAo?$AAr?$AAy@ 004dd940     LIBCMTD:setlocal.obj
 0003:0000b9a8       ??_C@_1IA@PFIKKKFB@?$AAs?$AAt?$AAr?$AAn?$AAc?$AAp?$AAy?$AA_?$AAs?$AA?$CI?$AAl?$AAc?$AAt?$AAe?$AAm?$AAp?$AA?0?$AA?5?$AA?$CI?$AAs?$AAi?$AAz?$AAe?$AAo?$AAf?$AA?$CI?$AAl?$AAc?$AAt?$AAe?$AAm?$AAp@ 004dd9a8     LIBCMTD:setlocal.obj
 0003:0000ba44       ??_C@_1CE@OFNHIOO@?$AA_?$AAs?$AAe?$AAt?$AAl?$AAo?$AAc?$AAa?$AAl?$AAe?$AA_?$AAn?$AAo?$AAl?$AAo?$AAc?$AAk?$AA?$AA@ 004dda44     LIBCMTD:setlocal.obj
 0003:0000ba70       ??_C@_01ICJEACDI@?$DL?$AA@ 004dda70     LIBCMTD:setlocal.obj
 0003:0000ba74       ??_C@_02BALPLPBG@?$DN?$DL?$AA@ 004dda74     LIBCMTD:setlocal.obj
 0003:0000ba78       ??_C@_1GO@JALHLJEH@?$AAs?$AAt?$AAr?$AAc?$AAp?$AAy?$AA_?$AAs?$AA?$CI?$AAp?$AAc?$AAh?$AA?5?$AA?$CL?$AA?5?$AAs?$AAi?$AAz?$AAe?$AAo?$AAf?$AA?$CI?$AAi?$AAn?$AAt?$AA?$CJ?$AA?0?$AA?5?$AAc?$AAc?$AAh?$AA?5@ 004dda78     LIBCMTD:setlocal.obj
 0003:0000bafc       ??_C@_1CG@IEFIICPK@?$AA_?$AAs?$AAe?$AAt?$AAl?$AAo?$AAc?$AAa?$AAl?$AAe?$AA_?$AAs?$AAe?$AAt?$AA_?$AAc?$AAa?$AAt?$AA?$AA@ 004ddafc     LIBCMTD:setlocal.obj
 0003:0000bb2c       ??_C@_1DA@GDKKLCLM@?$AAs?$AAt?$AAr?$AAc?$AAa?$AAt?$AA_?$AAs?$AA?$CI?$AAp?$AAc?$AAh?$AA?0?$AA?5?$AAc?$AAc?$AAh?$AA?0?$AA?5?$AA?$CC?$AA?$DL?$AA?$CC?$AA?$CJ?$AA?$AA@ 004ddb2c     LIBCMTD:setlocal.obj
 0003:0000bb68       ??_C@_1CG@NNFIJLDA@?$AA_?$AAs?$AAe?$AAt?$AAl?$AAo?$AAc?$AAa?$AAl?$AAe?$AA_?$AAg?$AAe?$AAt?$AA_?$AAa?$AAl?$AAl?$AA?$AA@ 004ddb68     LIBCMTD:setlocal.obj
 0003:0000bb98       ??_C@_01NEMOKFLO@?$DN?$AA@ 004ddb98     LIBCMTD:setlocal.obj
 0003:0000bba0       ??_C@_1FA@MHAOOIBO@?$AAs?$AAt?$AAr?$AAc?$AAp?$AAy?$AA_?$AAs?$AA?$CI?$AAo?$AAu?$AAt?$AAp?$AAu?$AAt?$AA?0?$AA?5?$AAs?$AAi?$AAz?$AAe?$AAI?$AAn?$AAC?$AAh?$AAa?$AAr?$AAs?$AA?0?$AA?5?$AAc?$AAa@ 004ddba0     LIBCMTD:setlocal.obj
 0003:0000bc00       ??_C@_1IA@ONNFOEDA@?$AAs?$AAt?$AAr?$AAn?$AAc?$AAp?$AAy?$AA_?$AAs?$AA?$CI?$AAc?$AAa?$AAc?$AAh?$AAe?$AAi?$AAn?$AA?0?$AA?5?$AAc?$AAa?$AAc?$AAh?$AAe?$AAi?$AAn?$AAS?$AAi?$AAz?$AAe?$AA?0?$AA?5@ 004ddc00     LIBCMTD:setlocal.obj
 0003:0000bc9c       ??_C@_01GFHCPBMG@C?$AA@    004ddc9c     LIBCMTD:setlocal.obj
 0003:0000bca0       ??_C@_1EG@MOMHKOD@?$AAs?$AAt?$AAr?$AAc?$AAp?$AAy?$AA_?$AAs?$AA?$CI?$AAo?$AAu?$AAt?$AAp?$AAu?$AAt?$AA?0?$AA?5?$AAs?$AAi?$AAz?$AAe?$AAI?$AAn?$AAC?$AAh?$AAa?$AAr?$AAs?$AA?0?$AA?5?$AA?$CC?$AAC@ 004ddca0     LIBCMTD:setlocal.obj
 0003:0000bcf4       ??_C@_1BM@OIIBLEFG@?$AA_?$AAe?$AAx?$AAp?$AAa?$AAn?$AAd?$AAl?$AAo?$AAc?$AAa?$AAl?$AAe?$AA?$AA@ 004ddcf4     LIBCMTD:setlocal.obj
 0003:0000bd18       ??_C@_1BGM@IJDLABMC@?$AAs?$AAt?$AAr?$AAc?$AAa?$AAt?$AA_?$AAs?$AA?$CI?$AAo?$AAu?$AAt?$AAs?$AAt?$AAr?$AA?0?$AA?5?$AAs?$AAi?$AAz?$AAe?$AAI?$AAn?$AAB?$AAy?$AAt?$AAe?$AAs?$AA?0?$AA?5?$AA?$CI?$AA?5@ 004ddd18     LIBCMTD:setlocal.obj
 0003:0000becc       ??_C@_1BC@PIABMDIP@?$AA_?$AAs?$AAt?$AAr?$AAc?$AAa?$AAt?$AAs?$AA?$AA@ 004ddecc     LIBCMTD:setlocal.obj
 0003:0000bee8       ??_C@_1MM@NOPMGFHF@?$AAs?$AAt?$AAr?$AAn?$AAc?$AAp?$AAy?$AA_?$AAs?$AA?$CI?$AAn?$AAa?$AAm?$AAe?$AAs?$AA?9?$AA?$DO?$AAs?$AAz?$AAC?$AAo?$AAd?$AAe?$AAP?$AAa?$AAg?$AAe?$AA?0?$AA?5?$AA?$CI?$AAs?$AAi@ 004ddee8     LIBCMTD:setlocal.obj
 0003:0000bfe0       ??_C@_1MG@PHNILIAG@?$AAs?$AAt?$AAr?$AAn?$AAc?$AAp?$AAy?$AA_?$AAs?$AA?$CI?$AAn?$AAa?$AAm?$AAe?$AAs?$AA?9?$AA?$DO?$AAs?$AAz?$AAC?$AAo?$AAu?$AAn?$AAt?$AAr?$AAy?$AA?0?$AA?5?$AA?$CI?$AAs?$AAi?$AAz@ 004ddfe0     LIBCMTD:setlocal.obj
 0003:0000c0d0       ??_C@_1MM@BFEECMAF@?$AAs?$AAt?$AAr?$AAn?$AAc?$AAp?$AAy?$AA_?$AAs?$AA?$CI?$AAn?$AAa?$AAm?$AAe?$AAs?$AA?9?$AA?$DO?$AAs?$AAz?$AAL?$AAa?$AAn?$AAg?$AAu?$AAa?$AAg?$AAe?$AA?0?$AA?5?$AA?$CI?$AAs?$AAi@ 004de0d0     LIBCMTD:setlocal.obj
 0003:0000c1c4       ??_C@_03EGDHDPFD@_?4?0?$AA@ 004de1c4     LIBCMTD:setlocal.obj
 0003:0000c1c8       ??_C@_1NG@FMOPGKGG@?$AAs?$AAt?$AAr?$AAn?$AAc?$AAp?$AAy?$AA_?$AAs?$AA?$CI?$AAn?$AAa?$AAm?$AAe?$AAs?$AA?9?$AA?$DO?$AAs?$AAz?$AAC?$AAo?$AAd?$AAe?$AAP?$AAa?$AAg?$AAe?$AA?0?$AA?5?$AA?$CI?$AAs?$AAi@ 004de1c8     LIBCMTD:setlocal.obj
 0003:0000c2c8       ??_C@_1BK@CBMMLAGJ@?$AA_?$AA_?$AAl?$AAc?$AA_?$AAs?$AAt?$AAr?$AAt?$AAo?$AAl?$AAc?$AA?$AA@ 004de2c8     LIBCMTD:setlocal.obj
 0003:0000c2e8       ??_C@_01LFCBOECM@?4?$AA@   004de2e8     LIBCMTD:setlocal.obj
 0003:0000c2ec       ??_C@_01IDAFKMJL@_?$AA@    004de2ec     LIBCMTD:setlocal.obj
 0003:0000c2f0       ??_C@_1HC@IBDBLKCB@?$AAs?$AAt?$AAr?$AAc?$AAp?$AAy?$AA_?$AAs?$AA?$CI?$AAl?$AAo?$AAc?$AAa?$AAl?$AAe?$AA?0?$AA?5?$AAs?$AAi?$AAz?$AAe?$AAI?$AAn?$AAB?$AAy?$AAt?$AAe?$AAs?$AA?0?$AA?5?$AA?$CI?$AAc@ 004de2f0     LIBCMTD:setlocal.obj
 0003:0000c378       ??_C@_1BK@FGDJDEPG@?$AA_?$AA_?$AAl?$AAc?$AA_?$AAl?$AAc?$AAt?$AAo?$AAs?$AAt?$AAr?$AA?$AA@ 004de378     LIBCMTD:setlocal.obj
 0003:0000c398       ??_C@_1BA@KBJJGFFE@?$AAs?$AAp?$AAr?$AAi?$AAn?$AAt?$AAf?$AA?$AA@ 004de398     LIBCMTD:sprintf.obj
 0003:0000c3ac       ??_C@_1BE@BPBEAPLI@?$AAs?$AAp?$AAr?$AAi?$AAn?$AAt?$AAf?$AA?4?$AAc?$AA?$AA@ 004de3ac     LIBCMTD:sprintf.obj
 0003:0000c3c4       ??_C@_1BE@CEKCJJBD@?$AAi?$AAs?$AAc?$AAt?$AAy?$AAp?$AAe?$AA?4?$AAc?$AA?$AA@ 004de3c4     LIBCMTD:isctype.obj
 0003:0000c3dc       ??_C@_1DC@BPLPALML@?$AA?$CI?$AAu?$AAn?$AAs?$AAi?$AAg?$AAn?$AAe?$AAd?$AA?$CJ?$AA?$CI?$AAc?$AA?5?$AA?$CL?$AA?5?$AA1?$AA?$CJ?$AA?5?$AA?$DM?$AA?$DN?$AA?5?$AA2?$AA5?$AA6?$AA?$AA@ 004de3dc     LIBCMTD:isctype.obj
 0003:0000c418       ??_C@_0BC@JEAENNKH@SystemFunction036?$AA@ 004de418     LIBCMTD:rand_s.obj
 0003:0000c430       ??_C@_1GA@EBEDGGGB@?$AA?$CI?$AA?$CC?$AAr?$AAa?$AAn?$AAd?$AA_?$AAs?$AA?5?$AAi?$AAs?$AA?5?$AAn?$AAo?$AAt?$AA?5?$AAa?$AAv?$AAa?$AAi?$AAl?$AAa?$AAb?$AAl?$AAe?$AA?5?$AAo?$AAn?$AA?5?$AAt?$AAh?$AAi@ 004de430     LIBCMTD:rand_s.obj
 0003:0000c4a4       ??_C@_0N@JJPEKNFO@ADVAPI32?4DLL?$AA@ 004de4a4     LIBCMTD:rand_s.obj
 0003:0000c4b4       ??_C@_1O@IJGPPOGF@?$AAr?$AAa?$AAn?$AAd?$AA_?$AAs?$AA?$AA@ 004de4b4     LIBCMTD:rand_s.obj
 0003:0000c4c4       ??_C@_1BC@NBJGCJKM@?$AAr?$AAa?$AAn?$AAd?$AA_?$AAs?$AA?4?$AAc?$AA?$AA@ 004de4c4     LIBCMTD:rand_s.obj
 0003:0000c4dc       ??_C@_1CK@GFDNDKK@?$AA_?$AAR?$AAa?$AAn?$AAd?$AAo?$AAm?$AAV?$AAa?$AAl?$AAu?$AAe?$AA?5?$AA?$CB?$AA?$DN?$AA?5?$AAN?$AAU?$AAL?$AAL?$AA?$AA@ 004de4dc     LIBCMTD:rand_s.obj
 0003:0000c510       ??_C@_0CG@PKBDLMEO@InitializeCriticalSectionAndSpin@ 004de510     LIBCMTD:initcrit.obj
 0003:0000c540       ??_C@_0N@MDJJJHMB@kernel32?4dll?$AA@ 004de540     LIBCMTD:initcrit.obj
 0003:0000c550       ??_C@_1DK@EGKDBLND@?$AA_?$AA_?$AAc?$AAr?$AAt?$AAI?$AAn?$AAi?$AAt?$AAC?$AAr?$AAi?$AAt?$AAS?$AAe?$AAc?$AAA?$AAn?$AAd?$AAS?$AAp?$AAi?$AAn?$AAC?$AAo?$AAu?$AAn?$AAt?$AA?$AA@ 004de550     LIBCMTD:initcrit.obj
 0003:0000c598       ??_C@_1BG@LABPBAGA@?$AAi?$AAn?$AAi?$AAt?$AAc?$AAr?$AAi?$AAt?$AA?4?$AAc?$AA?$AA@ 004de598     LIBCMTD:initcrit.obj
 0003:0000c5b8       ??_C@_0OH@IHEJDJAH@Microsoft?5Visual?5C?$CL?$CL?5Runtime?5Lib@ 004de5b8     LIBCMTD:gs_support.obj
 0003:0000c6d0       ??_C@_1DE@MMOGFGHF@?$AAs?$AAt?$AAr?$AAc?$AAp?$AAy?$AA_?$AAs?$AA?$CI?$AA?$CK?$AAe?$AAn?$AAv?$AA?0?$AA?5?$AAc?$AAc?$AAh?$AAa?$AAr?$AAs?$AA?0?$AA?5?$AAp?$AA?$CJ?$AA?$AA@ 004de6d0     LIBCMTD:stdenvp.obj
 0003:0000c710       ??_C@_1BC@GHMCNHHL@?$AA_?$AAs?$AAe?$AAt?$AAe?$AAn?$AAv?$AAp?$AA?$AA@ 004de710     LIBCMTD:stdenvp.obj
 0003:0000c728       ??_C@_1BE@DFNOPGHI@?$AAs?$AAt?$AAd?$AAe?$AAn?$AAv?$AAp?$AA?4?$AAc?$AA?$AA@ 004de728     LIBCMTD:stdenvp.obj
 0003:0000c740       ??_C@_09HCDLHOJP@stdenvp?4c?$AA@ 004de740     LIBCMTD:stdenvp.obj
 0003:0000c74c       ??_C@_09IKILHJIC@stdargv?4c?$AA@ 004de74c     LIBCMTD:stdargv.obj
 0003:0000c758       ??_C@_07BPGNOCOG@a_env?4c?$AA@ 004de758     LIBCMTD:a_env.obj
 0003:0000c764       ??_C@_0M@EKFFODEC@MSPDB80?4DLL?$AA@ 004de764     LIBCMTD:pdblkup.obj
 0003:0000c774       ??_C@_0BB@KCIACLNC@PDBOpenValidate5?$AA@ 004de774     LIBCMTD:pdblkup.obj
 0003:0000c788       ??_C@_0BF@BMIHBHCA@EnvironmentDirectory?$AA@ 004de788     LIBCMTD:pdblkup.obj
 0003:0000c7a4       ??_C@_0CN@EAEOKKOC@SOFTWARE?2Microsoft?2VisualStudio?2@ 004de7a4     LIBCMTD:pdblkup.obj
 0003:0000c7dc       ??_C@_0M@HLOHPNFA@RegCloseKey?$AA@ 004de7dc     LIBCMTD:pdblkup.obj
 0003:0000c7ec       ??_C@_0BB@HHEIPGME@RegQueryValueExA?$AA@ 004de7ec     LIBCMTD:pdblkup.obj
 0003:0000c800       ??_C@_0O@DCOGKJGG@RegOpenKeyExA?$AA@ 004de800     LIBCMTD:pdblkup.obj
 0003:0000c810       ??_C@_0BK@CFCOFLF@?5Complete?5Object?5Locator?8?$AA@ 004de810     LIBCMTD:undname.obj
 0003:0000c830       ??_C@_0BN@MECKDCOJ@?5Class?5Hierarchy?5Descriptor?8?$AA@ 004de830     LIBCMTD:undname.obj
 0003:0000c854       ??_C@_0BD@LGICGFMM@?5Base?5Class?5Array?8?$AA@ 004de854     LIBCMTD:undname.obj
 0003:0000c86c       ??_C@_0BM@LDKODKLH@?5Base?5Class?5Descriptor?5at?5?$CI?$AA@ 004de86c     LIBCMTD:undname.obj
 0003:0000c890       ??_C@_0BC@DAFEJGAK@?5Type?5Descriptor?8?$AA@ 004de890     LIBCMTD:undname.obj
 0003:0000c8a8       ??_C@_0BM@PMGGMLDN@?$GAlocal?5static?5thread?5guard?8?$AA@ 004de8a8     LIBCMTD:undname.obj
 0003:0000c8cc       ??_C@_0CL@FGIJHLCE@?$GAmanaged?5vector?5copy?5constructor@ 004de8cc     LIBCMTD:undname.obj
 0003:0000c900       ??_C@_0CJ@GJELGAMM@?$GAvector?5vbase?5copy?5constructor?5i@ 004de900     LIBCMTD:undname.obj
 0003:0000c934       ??_C@_0CD@CGAJBKEJ@?$GAvector?5copy?5constructor?5iterato@ 004de934     LIBCMTD:undname.obj
 0003:0000c960       ??_C@_0CB@PDBIFEP@?$GAdynamic?5atexit?5destructor?5for?5?8@ 004de960     LIBCMTD:undname.obj
 0003:0000c988       ??_C@_0BL@CLIPGLGB@?$GAdynamic?5initializer?5for?5?8?$AA@ 004de988     LIBCMTD:undname.obj
 0003:0000c9a8       ??_C@_0CM@FCBBDIGB@?$GAeh?5vector?5vbase?5copy?5constructo@ 004de9a8     LIBCMTD:undname.obj
 0003:0000c9dc       ??_C@_0CG@HLDDJMAG@?$GAeh?5vector?5copy?5constructor?5iter@ 004de9dc     LIBCMTD:undname.obj
 0003:0000ca0c       ??_C@_0CF@IMGKMJNO@?$GAmanaged?5vector?5destructor?5itera@ 004dea0c     LIBCMTD:undname.obj
 0003:0000ca38       ??_C@_0CG@CFDHKGGD@?$GAmanaged?5vector?5constructor?5iter@ 004dea38     LIBCMTD:undname.obj
 0003:0000ca68       ??_C@_0BN@CKNJLHMB@?$GAplacement?5delete?$FL?$FN?5closure?8?$AA@ 004dea68     LIBCMTD:undname.obj
 0003:0000ca8c       ??_C@_0BL@CNOONJFP@?$GAplacement?5delete?5closure?8?$AA@ 004dea8c     LIBCMTD:undname.obj
 0003:0000caac       ??_C@_0P@HJKNJFNN@?$GAomni?5callsig?8?$AA@ 004deaac     LIBCMTD:undname.obj
 0003:0000cac0       ??_C@_09LBNFPBCA@?5delete?$FL?$FN?$AA@ 004deac0     LIBCMTD:undname.obj
 0003:0000cacc       ??_C@_06FHBGPFGH@?5new?$FL?$FN?$AA@ 004deacc     LIBCMTD:undname.obj
 0003:0000cad4       ??_C@_0CE@IIHCMGGL@?$GAlocal?5vftable?5constructor?5closu@ 004dead4     LIBCMTD:undname.obj
 0003:0000cb00       ??_C@_0BA@KKLDJDLB@?$GAlocal?5vftable?8?$AA@ 004deb00     LIBCMTD:undname.obj
 0003:0000cb14       ??_C@_05KHLCHHI@?$GARTTI?$AA@ 004deb14     LIBCMTD:undname.obj
 0003:0000cb1c       ??_C@_03KLGMFNMG@?$GAEH?$AA@ 004deb1c     LIBCMTD:undname.obj
 0003:0000cb20       ??_C@_0BA@KBCDOMBN@?$GAudt?5returning?8?$AA@ 004deb20     LIBCMTD:undname.obj
 0003:0000cb34       ??_C@_0BL@LLKPOHJI@?$GAcopy?5constructor?5closure?8?$AA@ 004deb34     LIBCMTD:undname.obj
 0003:0000cb54       ??_C@_0CH@OOJPLCPH@?$GAeh?5vector?5vbase?5constructor?5ite@ 004deb54     LIBCMTD:undname.obj
 0003:0000cb84       ??_C@_0CA@GCEOPDGL@?$GAeh?5vector?5destructor?5iterator?8?$AA@ 004deb84     LIBCMTD:undname.obj
 0003:0000cbac       ??_C@_0CB@JONCMFFK@?$GAeh?5vector?5constructor?5iterator?8@ 004debac     LIBCMTD:undname.obj
 0003:0000cbd4       ??_C@_0BL@NILFHHPC@?$GAvirtual?5displacement?5map?8?$AA@ 004debd4     LIBCMTD:undname.obj
 0003:0000cbf4       ??_C@_0CE@IKBNEHA@?$GAvector?5vbase?5constructor?5iterat@ 004debf4     LIBCMTD:undname.obj
 0003:0000cc20       ??_C@_0BN@LFPFMEDL@?$GAvector?5destructor?5iterator?8?$AA@ 004dec20     LIBCMTD:undname.obj
 0003:0000cc44       ??_C@_0BO@PFGOCPJJ@?$GAvector?5constructor?5iterator?8?$AA@ 004dec44     LIBCMTD:undname.obj
 0003:0000cc68       ??_C@_0BN@IMDCHIKM@?$GAscalar?5deleting?5destructor?8?$AA@ 004dec68     LIBCMTD:undname.obj
 0003:0000cc8c       ??_C@_0BO@OBMKPJIG@?$GAdefault?5constructor?5closure?8?$AA@ 004dec8c     LIBCMTD:undname.obj
 0003:0000ccb0       ??_C@_0BN@DEGPLNFK@?$GAvector?5deleting?5destructor?8?$AA@ 004decb0     LIBCMTD:undname.obj
 0003:0000ccd4       ??_C@_0BD@JDLKDPAB@?$GAvbase?5destructor?8?$AA@ 004decd4     LIBCMTD:undname.obj
 0003:0000ccec       ??_C@_08OBABFOLI@?$GAstring?8?$AA@ 004decec     LIBCMTD:undname.obj
 0003:0000ccf8       ??_C@_0BF@KDPPACIK@?$GAlocal?5static?5guard?8?$AA@ 004decf8     LIBCMTD:undname.obj
 0003:0000cd14       ??_C@_08LLFFHHDJ@?$GAtypeof?8?$AA@ 004ded14     LIBCMTD:undname.obj
 0003:0000cd20       ??_C@_07FEEIOKP@?$GAvcall?8?$AA@ 004ded20     LIBCMTD:undname.obj
 0003:0000cd2c       ??_C@_09BLBHBJP@?$GAvbtable?8?$AA@ 004ded2c     LIBCMTD:undname.obj
 0003:0000cd38       ??_C@_09IFPLHPGF@?$GAvftable?8?$AA@ 004ded38     LIBCMTD:undname.obj
 0003:0000cd44       ??_C@_02MHEGNOJ@?$FO?$DN?$AA@ 004ded44     LIBCMTD:undname.obj
 0003:0000cd48       ??_C@_02DHLNPPGH@?$HM?$DN?$AA@ 004ded48     LIBCMTD:undname.obj
 0003:0000cd4c       ??_C@_02FGJGFEAB@?$CG?$DN?$AA@ 004ded4c     LIBCMTD:undname.obj
 0003:0000cd50       ??_C@_03CDNPDDLA@?$DM?$DM?$DN?$AA@ 004ded50     LIBCMTD:undname.obj
 0003:0000cd54       ??_C@_03IKFCCPFF@?$DO?$DO?$DN?$AA@ 004ded54     LIBCMTD:undname.obj
 0003:0000cd58       ??_C@_02FENAOKFI@?$CF?$DN?$AA@ 004ded58     LIBCMTD:undname.obj
 0003:0000cd5c       ??_C@_02FJEHGPIO@?1?$DN?$AA@ 004ded5c     LIBCMTD:undname.obj
 0003:0000cd60       ??_C@_02FKMDLLOA@?9?$DN?$AA@ 004ded60     LIBCMTD:undname.obj
 0003:0000cd64       ??_C@_02FOEOMHFC@?$CL?$DN?$AA@ 004ded64     LIBCMTD:undname.obj
 0003:0000cd68       ??_C@_02FPIMKNGF@?$CK?$DN?$AA@ 004ded68     LIBCMTD:undname.obj
 0003:0000cd6c       ??_C@_02NONPIBCD@?$HM?$HM?$AA@ 004ded6c     LIBCMTD:undname.obj
 0003:0000cd70       ??_C@_02PPKAJPJL@?$CG?$CG?$AA@ 004ded70     LIBCMTD:undname.obj
 0003:0000cd74       ??_C@_01DNKMNLPK@?$HM?$AA@ 004ded74     LIBCMTD:undname.obj
 0003:0000cd78       ??_C@_01JKBOJNNK@?$FO?$AA@ 004ded78     LIBCMTD:undname.obj
 0003:0000cd7c       ??_C@_01PJKLJHI@?$HO?$AA@  004ded7c     LIBCMTD:undname.obj
 0003:0000cd80       ??_C@_02HCKGKOFO@?$CI?$CJ?$AA@ 004ded80     LIBCMTD:undname.obj
 0003:0000cd84       ??_C@_01IHBHIGKO@?0?$AA@   004ded84     LIBCMTD:undname.obj
 0003:0000cd88       ??_C@_02EEKDKGMJ@?$DO?$DN?$AA@ 004ded88     LIBCMTD:undname.obj
 0003:0000cd8c       ??_C@_01PPODPGHN@?$DO?$AA@ 004ded8c     LIBCMTD:undname.obj
 0003:0000cd90       ??_C@_02EHCHHCKH@?$DM?$DN?$AA@ 004ded90     LIBCMTD:undname.obj
 0003:0000cd94       ??_C@_01MNNFJEPP@?$DM?$AA@ 004ded94     LIBCMTD:undname.obj
 0003:0000cd98       ??_C@_01FGNFDNOH@?$CF?$AA@ 004ded98     LIBCMTD:undname.obj
 0003:0000cd9c       ??_C@_01KMDKNFGN@?1?$AA@   004ded9c     LIBCMTD:undname.obj
 0003:0000cda0       ??_C@_03MNHNFDLC@?9?$DO?$CK?$AA@ 004deda0     LIBCMTD:undname.obj
 0003:0000cda4       ??_C@_01HNPIGOCE@?$CG?$AA@ 004deda4     LIBCMTD:undname.obj
 0003:0000cda8       ??_C@_01MIFGBAGJ@?$CL?$AA@ 004deda8     LIBCMTD:undname.obj
 0003:0000cdac       ??_C@_01JOAMLHOP@?9?$AA@   004dedac     LIBCMTD:undname.obj
 0003:0000cdb0       ??_C@_02BAABKJLB@?9?9?$AA@ 004dedb0     LIBCMTD:undname.obj
 0003:0000cdb4       ??_C@_02ECNGHCIF@?$CL?$CL?$AA@ 004dedb4     LIBCMTD:undname.obj
 0003:0000cdb8       ??_C@_01NBENCBCI@?$CK?$AA@ 004dedb8     LIBCMTD:undname.obj
 0003:0000cdbc       ??_C@_02HBOOOICD@?9?$DO?$AA@ 004dedbc     LIBCMTD:undname.obj
 0003:0000cdc0       ??_C@_08LHJFAFGD@operator?$AA@ 004dedc0     LIBCMTD:undname.obj
 0003:0000cdcc       ??_C@_02GPECMEKF@?$FL?$FN?$AA@ 004dedcc     LIBCMTD:undname.obj
 0003:0000cdd0       ??_C@_02FDNJECIE@?$CB?$DN?$AA@ 004dedd0     LIBCMTD:undname.obj
 0003:0000cdd4       ??_C@_02EGOFBIJA@?$DN?$DN?$AA@ 004dedd4     LIBCMTD:undname.obj
 0003:0000cdd8       ??_C@_01DCLJPIOD@?$CB?$AA@ 004dedd8     LIBCMTD:undname.obj
 0003:0000cddc       ??_C@_02FODMEDOG@?$DM?$DM?$AA@ 004deddc     LIBCMTD:undname.obj
 0003:0000cde0       ??_C@_02GPIOPFAK@?$DO?$DO?$AA@ 004dede0     LIBCMTD:undname.obj
 0003:0000cde4       ??_C@_07FPCDHGMM@?5delete?$AA@ 004dede4     LIBCMTD:undname.obj
 0003:0000cdf0       ??_C@_04NIHEBCM@?5new?$AA@ 004dedf0     LIBCMTD:undname.obj
 0003:0000cdf8       ??_C@_0M@GFIIJFMG@__unaligned?$AA@ 004dedf8     LIBCMTD:undname.obj
 0003:0000ce08       ??_C@_0L@PILCLIHE@__restrict?$AA@ 004dee08     LIBCMTD:undname.obj
 0003:0000ce18       ??_C@_07JOMMBBKO@__ptr64?$AA@ 004dee18     LIBCMTD:undname.obj
 0003:0000ce24       ??_C@_09HIJEGCPM@__clrcall?$AA@ 004dee24     LIBCMTD:undname.obj
 0003:0000ce30       ??_C@_0L@JMKHOMEK@__fastcall?$AA@ 004dee30     LIBCMTD:undname.obj
 0003:0000ce40       ??_C@_0L@NPHFGOKO@__thiscall?$AA@ 004dee40     LIBCMTD:undname.obj
 0003:0000ce50       ??_C@_09IFJBGAPI@__stdcall?$AA@ 004dee50     LIBCMTD:undname.obj
 0003:0000ce5c       ??_C@_08GHMPAG@__pascal?$AA@ 004dee5c     LIBCMTD:undname.obj
 0003:0000ce68       ??_C@_07KOLFKCDI@__cdecl?$AA@ 004dee68     LIBCMTD:undname.obj
 0003:0000ce74       ??_C@_08EHJDFFNH@__based?$CI?$AA@ 004dee74     LIBCMTD:undname.obj
 0003:0000d04c       ??_C@_04HEJADOOB@CV?3?5?$AA@ 004df04c     LIBCMTD:undname.obj
 0003:0000d054       ??_C@_02MOLJINC@?3?3?$AA@  004df054     LIBCMTD:undname.obj
 0003:0000d058       ??_C@_01GEODFPGF@?8?$AA@   004df058     LIBCMTD:undname.obj
 0003:0000d05c       ??_C@_01NLNLIGKH@?$GA?$AA@ 004df05c     LIBCMTD:undname.obj
 0003:0000d060       ??_C@_0O@KHGCOMHP@generic?9type?9?$AA@ 004df060     LIBCMTD:undname.obj
 0003:0000d070       ??_C@_0BE@JAEOCHPE@template?9parameter?9?$AA@ 004df070     LIBCMTD:undname.obj
 0003:0000d088       ??_C@_02OHHJMEON@?8?8?$AA@ 004df088     LIBCMTD:undname.obj
 0003:0000d08c       ??_C@_0BG@JNJLAMPM@?$GAanonymous?5namespace?8?$AA@ 004df08c     LIBCMTD:undname.obj
 0003:0000d0a8       ??_C@_0BN@IBLMMFAP@?$GAnon?9type?9template?9parameter?$AA@ 004df0a8     LIBCMTD:undname.obj
 0003:0000d0cc       ??_C@_0BE@EODMJLIF@?$GAtemplate?9parameter?$AA@ 004df0cc     LIBCMTD:undname.obj
 0003:0000d0e4       ??_C@_04GKJNKENE@void?$AA@ 004df0e4     LIBCMTD:undname.obj
 0003:0000d0ec       ??_C@_04HIBGFPH@NULL?$AA@  004df0ec     LIBCMTD:undname.obj
 0003:0000d0f4       ??_C@_0M@DHNBOJMP@extern?5?$CCC?$CC?5?$AA@ 004df0f4     LIBCMTD:undname.obj
 0003:0000d104       ??_C@_08KJLFOPNE@?$FLthunk?$FN?3?$AA@ 004df104     LIBCMTD:undname.obj
 0003:0000d110       ??_C@_08GPDDCMKI@public?3?5?$AA@ 004df110     LIBCMTD:undname.obj
 0003:0000d11c       ??_C@_0M@GAIFPFIP@protected?3?5?$AA@ 004df11c     LIBCMTD:undname.obj
 0003:0000d12c       ??_C@_09LAPHOOG@private?3?5?$AA@ 004df12c     LIBCMTD:undname.obj
 0003:0000d138       ??_C@_08NIEOINHE@virtual?5?$AA@ 004df138     LIBCMTD:undname.obj
 0003:0000d144       ??_C@_07PGOEDBHP@static?5?$AA@ 004df144     LIBCMTD:undname.obj
 0003:0000d150       ??_C@_0DA@HGFJFBBE@?$GAtemplate?5static?5data?5member?5des@ 004df150     LIBCMTD:undname.obj
 0003:0000d18c       ??_C@_0DB@ILEFOCIJ@?$GAtemplate?5static?5data?5member?5con@ 004df18c     LIBCMTD:undname.obj
 0003:0000d1c8       ??_C@_0CB@KJDOOODE@?$GAlocal?5static?5destructor?5helper?8@ 004df1c8     LIBCMTD:undname.obj
 0003:0000d1f0       ??_C@_0L@HNGCOGAE@?$GAadjustor?$HL?$AA@ 004df1f0     LIBCMTD:undname.obj
 0003:0000d200       ??_C@_0L@GHPFDFH@?$GAvtordisp?$HL?$AA@ 004df200     LIBCMTD:undname.obj
 0003:0000d210       ??_C@_0N@CBHHHENL@?$GAvtordispex?$HL?$AA@ 004df210     LIBCMTD:undname.obj
 0003:0000d220       ??_C@_01CLKCMJKC@?5?$AA@   004df220     LIBCMTD:undname.obj
 0003:0000d224       ??_C@_02IGFCGPIL@?$HN?8?$AA@ 004df224     LIBCMTD:undname.obj
 0003:0000d228       ??_C@_03OPGICMGF@?$HN?8?5?$AA@ 004df228     LIBCMTD:undname.obj
 0003:0000d22c       ??_C@_02KCKGHPCA@?$CJ?5?$AA@ 004df22c     LIBCMTD:undname.obj
 0003:0000d230       ??_C@_05BEFAKPML@void?5?$AA@ 004df230     LIBCMTD:undname.obj
 0003:0000d238       ??_C@_08PABEKFH@volatile?$AA@ 004df238     LIBCMTD:undname.obj
 0003:0000d244       ??_C@_0M@ELJOJFFH@?0?$DMellipsis?$DO?$AA@ 004df244     LIBCMTD:undname.obj
 0003:0000d254       ??_C@_04EENFHACM@?0?4?4?4?$AA@ 004df254     LIBCMTD:undname.obj
 0003:0000d25c       ??_C@_0L@EGPHHEKN@?$DMellipsis?$DO?$AA@ 004df25c     LIBCMTD:undname.obj
 0003:0000d26c       ??_C@_07HDJPLPEK@?5throw?$CI?$AA@ 004df26c     LIBCMTD:undname.obj
 0003:0000d278       ??_C@_09EFNPDFFP@?5volatile?$AA@ 004df278     LIBCMTD:undname.obj
 0003:0000d284       ??_C@_05BNCCCJPP@const?$AA@ 004df284     LIBCMTD:undname.obj
 0003:0000d28c       ??_C@_07EDHNAJHC@signed?5?$AA@ 004df28c     LIBCMTD:undname.obj
 0003:0000d298       ??_C@_09EBBEKKIH@unsigned?5?$AA@ 004df298     LIBCMTD:undname.obj
 0003:0000d2a4       ??_C@_07NFANNNEC@UNKNOWN?$AA@ 004df2a4     LIBCMTD:undname.obj
 0003:0000d2b0       ??_C@_06GCICPBLB@__w64?5?$AA@ 004df2b0     LIBCMTD:undname.obj
 0003:0000d2b8       ??_C@_07CLGGIAMF@wchar_t?$AA@ 004df2b8     LIBCMTD:undname.obj
 0003:0000d2c4       ??_C@_08GAHOLHEO@__int128?$AA@ 004df2c4     LIBCMTD:undname.obj
 0003:0000d2d0       ??_C@_07LFCOJCAC@__int64?$AA@ 004df2d0     LIBCMTD:undname.obj
 0003:0000d2dc       ??_C@_07OFLPPHGP@__int32?$AA@ 004df2dc     LIBCMTD:undname.obj
 0003:0000d2e8       ??_C@_07ICFHOGAF@__int16?$AA@ 004df2e8     LIBCMTD:undname.obj
 0003:0000d2f4       ??_C@_06EBGKOKIG@__int8?$AA@ 004df2f4     LIBCMTD:undname.obj
 0003:0000d2fc       ??_C@_04DDKJGDCM@bool?$AA@ 004df2fc     LIBCMTD:undname.obj
 0003:0000d304       ??_C@_06BNJCAIGJ@double?$AA@ 004df304     LIBCMTD:undname.obj
 0003:0000d30c       ??_C@_05CJIMAING@long?5?$AA@ 004df30c     LIBCMTD:undname.obj
 0003:0000d314       ??_C@_05KNFBNCOH@float?$AA@ 004df314     LIBCMTD:undname.obj
 0003:0000d31c       ??_C@_04GOKPGOLB@long?$AA@ 004df31c     LIBCMTD:undname.obj
 0003:0000d324       ??_C@_03JBIPMCLC@int?$AA@  004df324     LIBCMTD:undname.obj
 0003:0000d328       ??_C@_05BFKKPKCG@short?$AA@ 004df328     LIBCMTD:undname.obj
 0003:0000d330       ??_C@_04ENMBGAPA@char?$AA@ 004df330     LIBCMTD:undname.obj
 0003:0000d338       ??_C@_05LJGMCFOG@enum?5?$AA@ 004df338     LIBCMTD:undname.obj
 0003:0000d340       ??_C@_0N@DLIEFKNA@cointerface?5?$AA@ 004df340     LIBCMTD:undname.obj
 0003:0000d350       ??_C@_08KOFANOFK@coclass?5?$AA@ 004df350     LIBCMTD:undname.obj
 0003:0000d35c       ??_C@_06LJBABKPM@class?5?$AA@ 004df35c     LIBCMTD:undname.obj
 0003:0000d364       ??_C@_07DIBCDNGL@struct?5?$AA@ 004df364     LIBCMTD:undname.obj
 0003:0000d370       ??_C@_06MOJHIBMG@union?5?$AA@ 004df370     LIBCMTD:undname.obj
 0003:0000d378       ??_C@_0P@GCIFDJCJ@?$GAunknown?5ecsu?8?$AA@ 004df378     LIBCMTD:undname.obj
 0003:0000d38c       ??_C@_04LAHKHJMA@int?5?$AA@ 004df38c     LIBCMTD:undname.obj
 0003:0000d394       ??_C@_06EHJMALKF@short?5?$AA@ 004df394     LIBCMTD:undname.obj
 0003:0000d39c       ??_C@_05CIHEBHNO@char?5?$AA@ 004df39c     LIBCMTD:undname.obj
 0003:0000d3a4       ??_C@_06LIJLOJAG@const?5?$AA@ 004df3a4     LIBCMTD:undname.obj
 0003:0000d3ac       ??_C@_09GAIEOBLP@volatile?5?$AA@ 004df3ac     LIBCMTD:undname.obj
 0003:0000d3b8       ??_C@_0O@GKABPPIF@cli?3?3pin_ptr?$DM?$AA@ 004df3b8     LIBCMTD:undname.obj
 0003:0000d3c8       ??_C@_0M@EALIELKG@cli?3?3array?$DM?$AA@ 004df3c8     LIBCMTD:undname.obj
 0003:0000d3d8       ??_C@_02GOGNNPBN@?$CJ?$FL?$AA@ 004df3d8     LIBCMTD:undname.obj
 0003:0000d3dc       ??_C@_06EEGAIFAK@?$HLflat?$HN?$AA@ 004df3dc     LIBCMTD:undname.obj
 0003:0000d3e4       ??_C@_02MDINNEEG@s?5?$AA@  004df3e4     LIBCMTD:undname.obj
 0003:0000d3e8       ??_C@_05JIBOFOHK@?$HLfor?5?$AA@ 004df3e8     LIBCMTD:undname.obj
 0003:0000d3f4       ??_7DNameNode@@6B@         004df3f4     LIBCMTD:undname.obj
 0003:0000d408       ??_7charNode@@6B@          004df408     LIBCMTD:undname.obj
 0003:0000d41c       ??_7pcharNode@@6B@         004df41c     LIBCMTD:undname.obj
 0003:0000d430       ??_7pDNameNode@@6B@        004df430     LIBCMTD:undname.obj
 0003:0000d444       ??_7DNameStatusNode@@6B@   004df444     LIBCMTD:undname.obj
 0003:0000d454       ??_C@_04OKOHEJBO@?5?$DP?$DP?5?$AA@ 004df454     LIBCMTD:undname.obj
 0003:0000d45c       ??_C@_1CA@LFDHAMEM@?$AA_?$AAs?$AAe?$AAt?$AA_?$AAe?$AAr?$AAr?$AAo?$AAr?$AA_?$AAm?$AAo?$AAd?$AAe?$AA?$AA@ 004df45c     LIBCMTD:errmode.obj
 0003:0000d484       ??_C@_1BE@FFANBHLE@?$AAe?$AAr?$AAr?$AAm?$AAo?$AAd?$AAe?$AA?4?$AAc?$AA?$AA@ 004df484     LIBCMTD:errmode.obj
 0003:0000d49c       ??_C@_1DE@BCNCAIK@?$AA?$CI?$AA?$CC?$AAI?$AAn?$AAv?$AAa?$AAl?$AAi?$AAd?$AA?5?$AAe?$AAr?$AAr?$AAo?$AAr?$AA_?$AAm?$AAo?$AAd?$AAe?$AA?$CC?$AA?0?$AA?5?$AA0?$AA?$CJ?$AA?$AA@ 004df49c     LIBCMTD:errmode.obj
 0003:0000d4dc       ??_C@_0BK@CIDNPOGP@GetUserObjectInformationA?$AA@ 004df4dc     LIBCMTD:crtmbox.obj
 0003:0000d4fc       ??_C@_1CC@MEIOIKJI@?$AA_?$AA_?$AAc?$AAr?$AAt?$AAM?$AAe?$AAs?$AAs?$AAa?$AAg?$AAe?$AAB?$AAo?$AAx?$AAA?$AA?$AA@ 004df4fc     LIBCMTD:crtmbox.obj
 0003:0000d524       ??_C@_1BE@DEODNGG@?$AAc?$AAr?$AAt?$AAm?$AAb?$AAo?$AAx?$AA?4?$AAc?$AA?$AA@ 004df524     LIBCMTD:crtmbox.obj
 0003:0000d53c       ??_C@_0M@CHKKJDAI@MessageBoxA?$AA@ 004df53c     LIBCMTD:crtmbox.obj
 0003:0000d54c       ??_C@_0L@NDEGIDAG@USER32?4DLL?$AA@ 004df54c     LIBCMTD:crtmbox.obj
 0003:0000d55c       ??_C@_1BE@NDMJHJJG@?$AAs?$AAt?$AAr?$AAn?$AAc?$AAp?$AAy?$AA_?$AAs?$AA?$AA@ 004df55c     LIBCMTD:strncpy_s.obj
 0003:0000d578       ??_C@_1GC@BCDEFAEE@?$AAF?$AA?3?$AA?2?$AAR?$AAT?$AAM?$AA?2?$AAv?$AAc?$AAt?$AAo?$AAo?$AAl?$AAs?$AA?2?$AAc?$AAr?$AAt?$AA_?$AAb?$AAl?$AAd?$AA?2?$AAS?$AAE?$AAL?$AAF?$AA_?$AAX?$AA8?$AA6?$AA?2@ 004df578     LIBCMTD:w_loc.obj
 0003:0000d5f0       ??_C@_1FE@KNPCCODH@?$AA?$CI?$AA?$CC?$AAC?$AAo?$AAr?$AAr?$AAu?$AAp?$AAt?$AAe?$AAd?$AA?5?$AAp?$AAo?$AAi?$AAn?$AAt?$AAe?$AAr?$AA?5?$AAp?$AAa?$AAs?$AAs?$AAe?$AAd?$AA?5?$AAt?$AAo?$AA?5?$AA_?$AAf@ 004df5f0     LIBCMTD:w_loc.obj
 0003:0000d654       ??_C@_09MGNHMPHC@osfinfo?4c?$AA@ 004df654     LIBCMTD:osfinfo.obj
 0003:0000d660       ??_C@_1BO@EMBOBGKE@?$AA_?$AAg?$AAe?$AAt?$AA_?$AAo?$AAs?$AAf?$AAh?$AAa?$AAn?$AAd?$AAl?$AAe?$AA?$AA@ 004df660     LIBCMTD:osfinfo.obj
 0003:0000d684       ??_C@_1BE@MIGAHMPD@?$AAo?$AAs?$AAf?$AAi?$AAn?$AAf?$AAo?$AA?4?$AAc?$AA?$AA@ 004df684     LIBCMTD:osfinfo.obj
 0003:0000d69c       ??_C@_1DG@LNNHNFHJ@?$AA?$CI?$AA_?$AAo?$AAs?$AAf?$AAi?$AAl?$AAe?$AA?$CI?$AAf?$AAi?$AAl?$AAe?$AAd?$AAe?$AAs?$AA?$CJ?$AA?5?$AA?$CG?$AA?5?$AAF?$AAO?$AAP?$AAE?$AAN?$AA?$CJ?$AA?$AA@ 004df69c     LIBCMTD:commit.obj
 0003:0000d6dc       ??_C@_1BA@FLNMBBIM@?$AA_?$AAc?$AAo?$AAm?$AAm?$AAi?$AAt?$AA?$AA@ 004df6dc     LIBCMTD:commit.obj
 0003:0000d6f0       ??_C@_1BC@LOAFNBNC@?$AAc?$AAo?$AAm?$AAm?$AAi?$AAt?$AA?4?$AAc?$AA?$AA@ 004df6f0     LIBCMTD:commit.obj
 0003:0000d708       ??_C@_1HC@KFLBHHBC@?$AA?$CI?$AAf?$AAi?$AAl?$AAe?$AAd?$AAe?$AAs?$AA?5?$AA?$DO?$AA?$DN?$AA?5?$AA0?$AA?5?$AA?$CG?$AA?$CG?$AA?5?$AA?$CI?$AAu?$AAn?$AAs?$AAi?$AAg?$AAn?$AAe?$AAd?$AA?$CJ?$AAf?$AAi?$AAl?$AAe?$AAd@ 004df708     LIBCMTD:commit.obj
 0003:0000d790       ??_C@_1O@KOFKDHPL@?$AA_?$AAw?$AAr?$AAi?$AAt?$AAe?$AA?$AA@ 004df790     LIBCMTD:write.obj
 0003:0000d7a0       ??_C@_1BA@PMLNGJCB@?$AAw?$AAr?$AAi?$AAt?$AAe?$AA?4?$AAc?$AA?$AA@ 004df7a0     LIBCMTD:write.obj
 0003:0000d7b4       ??_C@_1CC@EEOLPHGO@?$AA?$CI?$AA?$CI?$AAc?$AAn?$AAt?$AA?5?$AA?$CG?$AA?5?$AA1?$AA?$CJ?$AA?5?$AA?$DN?$AA?$DN?$AA?5?$AA0?$AA?$CJ?$AA?$AA@ 004df7b4     LIBCMTD:write.obj
 0003:0000d7dc       ??_C@_1BM@NCANHCIP@?$AA_?$AAw?$AAr?$AAi?$AAt?$AAe?$AA_?$AAn?$AAo?$AAl?$AAo?$AAc?$AAk?$AA?$AA@ 004df7dc     LIBCMTD:write.obj
 0003:0000d800       ??_C@_1BM@KFJLMBPG@?$AA?$CI?$AAb?$AAu?$AAf?$AA?5?$AA?$CB?$AA?$DN?$AA?5?$AAN?$AAU?$AAL?$AAL?$AA?$CJ?$AA?$AA@ 004df800     LIBCMTD:write.obj
 0003:0000d824       ??_C@_1BC@MFKEFFNI@?$AAm?$AAb?$AAt?$AAo?$AAw?$AAc?$AA?4?$AAc?$AA?$AA@ 004df824     LIBCMTD:mbtowc.obj
 0003:0000d840       ??_C@_1NC@EINCOKCO@?$AA_?$AAl?$AAo?$AAc?$AA_?$AAu?$AAp?$AAd?$AAa?$AAt?$AAe?$AA?4?$AAG?$AAe?$AAt?$AAL?$AAo?$AAc?$AAa?$AAl?$AAe?$AAT?$AA?$CI?$AA?$CJ?$AA?9?$AA?$DO?$AAl?$AAo?$AAc?$AAi?$AAn?$AAf@ 004df840     LIBCMTD:mbtowc.obj
 0003:0000d93c       ??_C@_1BA@IIKEPOGH@?$AA_?$AAf?$AAi?$AAl?$AAb?$AAu?$AAf?$AA?$AA@ 004df93c     LIBCMTD:_filbuf.obj
 0003:0000d950       ??_C@_1BE@CEJGNPDE@?$AA_?$AAf?$AAi?$AAl?$AAb?$AAu?$AAf?$AA?4?$AAc?$AA?$AA@ 004df950     LIBCMTD:_filbuf.obj
 0003:0000d968       ??_C@_1O@JDPLECOK@?$AAu?$AAn?$AAg?$AAe?$AAt?$AAc?$AA?$AA@ 004df968     LIBCMTD:ungetc.obj
 0003:0000d978       ??_C@_1BC@EAKHDONB@?$AAu?$AAn?$AAg?$AAe?$AAt?$AAc?$AA?4?$AAc?$AA?$AA@ 004df978     LIBCMTD:ungetc.obj
 0003:0000d990       ??_C@_1BO@OLMLKKEA@?$AA_?$AAu?$AAn?$AAg?$AAe?$AAt?$AAc?$AA_?$AAn?$AAo?$AAl?$AAo?$AAc?$AAk?$AA?$AA@ 004df990     LIBCMTD:ungetc.obj
 0003:0000d9b8       ??_C@_1HE@KGDEDLLB@?$AAF?$AA?3?$AA?2?$AAR?$AAT?$AAM?$AA?2?$AAv?$AAc?$AAt?$AAo?$AAo?$AAl?$AAs?$AA?2?$AAc?$AAr?$AAt?$AA_?$AAb?$AAl?$AAd?$AA?2?$AAS?$AAE?$AAL?$AAF?$AA_?$AAX?$AA8?$AA6?$AA?2@ 004df9b8     LIBCMTD:ungetc.obj
 0003:0000da44       ??_C@_1M@MFLJCMFJ@?$AA_?$AAo?$AAp?$AAe?$AAn?$AA?$AA@ 004dfa44     LIBCMTD:open.obj
 0003:0000da54       ??_C@_1O@DGNNHNAF@?$AAo?$AAp?$AAe?$AAn?$AA?4?$AAc?$AA?$AA@ 004dfa54     LIBCMTD:open.obj
 0003:0000da64       ??_C@_1BO@DPAOGEII@?$AA?$CI?$AAp?$AAa?$AAt?$AAh?$AA?5?$AA?$CB?$AA?$DN?$AA?5?$AAN?$AAU?$AAL?$AAL?$AA?$CJ?$AA?$AA@ 004dfa64     LIBCMTD:open.obj
 0003:0000da88       ??_C@_1FG@NFINBJCM@?$AA?$CI?$AA?$CI?$AAp?$AAm?$AAo?$AAd?$AAe?$AA?5?$AA?$CG?$AA?5?$AA?$CI?$AA?$HO?$AA?$CI?$AA_?$AAS?$AA_?$AAI?$AAR?$AAE?$AAA?$AAD?$AA?5?$AA?$HM?$AA?5?$AA_?$AAS?$AA_?$AAI?$AAW?$AAR?$AAI?$AAT@ 004dfa88     LIBCMTD:open.obj
 0003:0000daf0       ??_C@_1BM@IOBAMMHO@?$AA_?$AAs?$AAo?$AAp?$AAe?$AAn?$AA_?$AAh?$AAe?$AAl?$AAp?$AAe?$AAr?$AA?$AA@ 004dfaf0     LIBCMTD:open.obj
 0003:0000db14       ??_C@_1BM@PGEEHLHE@?$AA?$CI?$AAp?$AAf?$AAh?$AA?5?$AA?$CB?$AA?$DN?$AA?5?$AAN?$AAU?$AAL?$AAL?$AA?$CJ?$AA?$AA@ 004dfb14     LIBCMTD:open.obj
 0003:0000db38       ??_C@_1IA@IENOJNJF@?$AA0?$AA?5?$AA?$CG?$AA?$CG?$AA?5?$AA?$CC?$AAO?$AAn?$AAl?$AAy?$AA?5?$AAU?$AAT?$AAF?$AA?9?$AA1?$AA6?$AA?5?$AAl?$AAi?$AAt?$AAt?$AAl?$AAe?$AA?5?$AAe?$AAn?$AAd?$AAi?$AAa?$AAn?$AA?5@ 004dfb38     LIBCMTD:open.obj
 0003:0000dbd4       ??_C@_1CM@IDLMKMPG@?$AA0?$AA?5?$AA?$CG?$AA?$CG?$AA?5?$AA?$CC?$AAI?$AAn?$AAt?$AAe?$AAr?$AAn?$AAa?$AAl?$AA?5?$AAE?$AAr?$AAr?$AAo?$AAr?$AA?$CC?$AA?$AA@ 004dfbd4     LIBCMTD:open.obj
 0003:0000dc08       ??_C@_1GE@GKLINCPN@?$AA?$CI?$AAo?$AAf?$AAl?$AAa?$AAg?$AA?5?$AA?$CG?$AA?5?$AA?$CI?$AA_?$AAO?$AA_?$AAB?$AAI?$AAN?$AAA?$AAR?$AAY?$AA?$CJ?$AA?5?$AA?$CJ?$AA?5?$AA?$DN?$AA?$DN?$AA?5?$AA0?$AA?5?$AA?$CG?$AA?$CG?$AA?5?$AAf@ 004dfc08     LIBCMTD:open.obj
 0003:0000dc80       ??_C@_1DO@PJLMOANO@?$AA?$CI?$AA?5?$AA?$CC?$AAI?$AAn?$AAv?$AAa?$AAl?$AAi?$AAd?$AA?5?$AAs?$AAh?$AAa?$AAr?$AAi?$AAn?$AAg?$AA?5?$AAf?$AAl?$AAa?$AAg?$AA?$CC?$AA?5?$AA?0?$AA?5?$AA0?$AA?5?$AA?$CJ?$AA?$AA@ 004dfc80     LIBCMTD:open.obj
 0003:0000dccc       ??_C@_1DI@DGKIFCCE@?$AA?$CI?$AA?5?$AA?$CC?$AAI?$AAn?$AAv?$AAa?$AAl?$AAi?$AAd?$AA?5?$AAo?$AAp?$AAe?$AAn?$AA?5?$AAf?$AAl?$AAa?$AAg?$AA?$CC?$AA?5?$AA?0?$AA?5?$AA0?$AA?5?$AA?$CJ?$AA?$AA@ 004dfccc     LIBCMTD:open.obj
 0003:0000dd10       ??_C@_1CG@ICBEBDJJ@?$AA_?$AAg?$AAe?$AAt?$AA_?$AAf?$AAm?$AAo?$AAd?$AAe?$AA?$CI?$AA?$CG?$AAf?$AAm?$AAo?$AAd?$AAe?$AA?$CJ?$AA?$AA@ 004dfd10     LIBCMTD:open.obj
 0003:0000dd40       ??_C@_1BO@JOPFMPGH@?$AA_?$AAt?$AAs?$AAo?$AAp?$AAe?$AAn?$AA_?$AAn?$AAo?$AAl?$AAo?$AAc?$AAk?$AA?$AA@ 004dfd40     LIBCMTD:open.obj
 0003:0000dd64       ??_C@_1BG@GBJNMPFA@?$AAs?$AA2?$AA?5?$AA?$CB?$AA?$DN?$AA?5?$AAN?$AAU?$AAL?$AAL?$AA?$AA@ 004dfd64     LIBCMTD:mbsicmp.obj
 0003:0000dd80       ??_C@_1BG@BMDHEPAJ@?$AA_?$AAm?$AAb?$AAs?$AAi?$AAc?$AAm?$AAp?$AA_?$AAl?$AA?$AA@ 004dfd80     LIBCMTD:mbsicmp.obj
 0003:0000dd9c       ??_C@_1BE@JMPFNKJA@?$AAm?$AAb?$AAs?$AAi?$AAc?$AAm?$AAp?$AA?4?$AAc?$AA?$AA@ 004dfd9c     LIBCMTD:mbsicmp.obj
 0003:0000ddb4       ??_C@_1BG@MODEICJK@?$AAs?$AA1?$AA?5?$AA?$CB?$AA?$DN?$AA?5?$AAN?$AAU?$AAL?$AAL?$AA?$AA@ 004dfdb4     LIBCMTD:mbsicmp.obj
 0003:0000ddd0       ??_C@_1BI@LPHOHGHI@?$AA_?$AAm?$AAb?$AAs?$AAn?$AAb?$AAc?$AAm?$AAp?$AA_?$AAl?$AA?$AA@ 004dfdd0     LIBCMTD:mbsnbcmp.obj
 0003:0000ddec       ??_C@_1BG@JGCJENML@?$AAm?$AAb?$AAs?$AAn?$AAb?$AAc?$AAm?$AAp?$AA?4?$AAc?$AA?$AA@ 004dfdec     LIBCMTD:mbsnbcmp.obj
 0003:0000de08       ??_C@_1BK@CDOALEA@?$AA_?$AAc?$AAo?$AAn?$AAt?$AAr?$AAo?$AAl?$AAf?$AAp?$AA_?$AAs?$AA?$AA@ 004dfe08     LIBCMTD:contrlfp.obj
 0003:0000de28       ??_C@_1BG@MIJAHIEN@?$AAc?$AAo?$AAn?$AAt?$AAr?$AAl?$AAf?$AAp?$AA?4?$AAc?$AA?$AA@ 004dfe28     LIBCMTD:contrlfp.obj
 0003:0000de44       ??_C@_1DG@JNDMIEJL@?$AA?$CI?$AA?$CC?$AAI?$AAn?$AAv?$AAa?$AAl?$AAi?$AAd?$AA?5?$AAi?$AAn?$AAp?$AAu?$AAt?$AA?5?$AAv?$AAa?$AAl?$AAu?$AAe?$AA?$CC?$AA?0?$AA?5?$AA0?$AA?$CJ?$AA?$AA@ 004dfe44     LIBCMTD:contrlfp.obj
 0003:0000de84       ??_C@_1BK@CLIEHFDF@?$AAp?$AAf?$AAl?$AAt?$AA?5?$AA?$CB?$AA?$DN?$AA?5?$AAN?$AAU?$AAL?$AAL?$AA?$AA@ 004dfe84     LIBCMTD:_fptostr.obj
 0003:0000dea8       ??_C@_1GM@CEDLGDDI@?$AAs?$AAi?$AAz?$AAe?$AAI?$AAn?$AAB?$AAy?$AAt?$AAe?$AAs?$AA?5?$AA?$DO?$AA?5?$AA?$CI?$AAs?$AAi?$AAz?$AAe?$AA_?$AAt?$AA?$CJ?$AA?$CI?$AA?$CI?$AAd?$AAi?$AAg?$AAi?$AAt?$AAs?$AA?5?$AA?$DO@ 004dfea8     LIBCMTD:_fptostr.obj
 0003:0000df2c       ??_C@_1BC@OPALLEB@?$AA_?$AAf?$AAp?$AAt?$AAo?$AAs?$AAt?$AAr?$AA?$AA@ 004dff2c     LIBCMTD:_fptostr.obj
 0003:0000df44       ??_C@_1BG@NJCNOLI@?$AA_?$AAf?$AAp?$AAt?$AAo?$AAs?$AAt?$AAr?$AA?4?$AAc?$AA?$AA@ 004dff44     LIBCMTD:_fptostr.obj
 0003:0000df60       ??_C@_1FK@KODCOBKF@?$AAs?$AAt?$AAr?$AAc?$AAp?$AAy?$AA_?$AAs?$AA?$CI?$AAr?$AAe?$AAs?$AAu?$AAl?$AAt?$AAs?$AAt?$AAr?$AA?0?$AA?5?$AAr?$AAe?$AAs?$AAu?$AAl?$AAt?$AAs?$AAi?$AAz?$AAe?$AA?0?$AA?5@ 004dff60     LIBCMTD:cfout.obj
 0003:0000dfcc       ??_C@_1BC@BPMMEHLK@?$AA_?$AAf?$AAl?$AAt?$AAo?$AAu?$AAt?$AA2?$AA?$AA@ 004dffcc     LIBCMTD:cfout.obj
 0003:0000dfe4       ??_C@_1BA@BFLFHCE@?$AAc?$AAf?$AAo?$AAu?$AAt?$AA?4?$AAc?$AA?$AA@ 004dffe4     LIBCMTD:cfout.obj
 0003:0000dff8       ??_C@_1CG@EBJECAJM@?$AA_?$AAs?$AAe?$AAt?$AA_?$AAo?$AAu?$AAt?$AAp?$AAu?$AAt?$AA_?$AAf?$AAo?$AAr?$AAm?$AAa?$AAt?$AA?$AA@ 004dfff8     LIBCMTD:outputformat.obj
 0003:0000e028       ??_C@_1BO@GAIJFBKM@?$AAo?$AAu?$AAt?$AAp?$AAu?$AAt?$AAf?$AAo?$AAr?$AAm?$AAa?$AAt?$AA?4?$AAc?$AA?$AA@ 004e0028     LIBCMTD:outputformat.obj
 0003:0000e050       ??_C@_1EM@EGEEBJLG@?$AA?$CI?$AAo?$AAp?$AAt?$AAi?$AAo?$AAn?$AAs?$AA?5?$AA?$CG?$AA?5?$AA?$HO?$AA_?$AAT?$AAW?$AAO?$AA_?$AAD?$AAI?$AAG?$AAI?$AAT?$AA_?$AAE?$AAX?$AAP?$AAO?$AAN?$AAE?$AAN?$AAT?$AA?$CJ@ 004e0050     LIBCMTD:outputformat.obj
 0003:0000e0ac       ??_C@_1CG@JEHFHLNG@?$AA_?$AAm?$AAb?$AAs?$AAt?$AAo?$AAw?$AAc?$AAs?$AA_?$AAl?$AA_?$AAh?$AAe?$AAl?$AAp?$AAe?$AAr?$AA?$AA@ 004e00ac     LIBCMTD:mbstowcs.obj
 0003:0000e0dc       ??_C@_1BG@KMBPFIPB@?$AAm?$AAb?$AAs?$AAt?$AAo?$AAw?$AAc?$AAs?$AA?4?$AAc?$AA?$AA@ 004e00dc     LIBCMTD:mbstowcs.obj
 0003:0000e0f8       ??_C@_1BE@EEKACIGI@?$AAs?$AA?5?$AA?$CB?$AA?$DN?$AA?5?$AAN?$AAU?$AAL?$AAL?$AA?$AA@ 004e00f8     LIBCMTD:mbstowcs.obj
 0003:0000e110       ??_C@_1CO@JNPEPJAL@?$AAr?$AAe?$AAt?$AAs?$AAi?$AAz?$AAe?$AA?5?$AA?$DM?$AA?$DN?$AA?5?$AAs?$AAi?$AAz?$AAe?$AAI?$AAn?$AAW?$AAo?$AAr?$AAd?$AAs?$AA?$AA@ 004e0110     LIBCMTD:mbstowcs.obj
 0003:0000e148       ??_C@_1BM@PHENIGHD@?$AA_?$AAm?$AAb?$AAs?$AAt?$AAo?$AAw?$AAc?$AAs?$AA_?$AAs?$AA_?$AAl?$AA?$AA@ 004e0148     LIBCMTD:mbstowcs.obj
 0003:0000e170       ??_C@_1JA@JKDFMOPO@?$AA?$CI?$AAp?$AAw?$AAc?$AAs?$AA?5?$AA?$DN?$AA?$DN?$AA?5?$AAN?$AAU?$AAL?$AAL?$AA?5?$AA?$CG?$AA?$CG?$AA?5?$AAs?$AAi?$AAz?$AAe?$AAI?$AAn?$AAW?$AAo?$AAr?$AAd?$AAs?$AA?5?$AA?$DN?$AA?$DN?$AA?5@ 004e0170     LIBCMTD:mbstowcs.obj
 0003:0000e220       ??_C@_1EC@FABAOFFO@?$AA?$CI?$AAc?$AAo?$AAu?$AAn?$AAt?$AA?5?$AA?$DN?$AA?$DN?$AA?5?$AA0?$AA?$CJ?$AA?5?$AA?$HM?$AA?$HM?$AA?5?$AA?$CI?$AAs?$AAt?$AAr?$AAi?$AAn?$AAg?$AA?5?$AA?$CB?$AA?$DN?$AA?5?$AAN?$AAU?$AAL?$AAL?$AA?$CJ@ 004e0220     LIBCMTD:vsnprnc.obj
 0003:0000e270       ??_C@_1CE@PCFPEIFI@?$AA_?$AAv?$AAs?$AAn?$AAp?$AAr?$AAi?$AAn?$AAt?$AAf?$AA_?$AAh?$AAe?$AAl?$AAp?$AAe?$AAr?$AA?$AA@ 004e0270     LIBCMTD:vsnprnc.obj
 0003:0000e2a0       ??_C@_1GG@MADCPNLD@?$AAf?$AA?3?$AA?2?$AAr?$AAt?$AAm?$AA?2?$AAv?$AAc?$AAt?$AAo?$AAo?$AAl?$AAs?$AA?2?$AAc?$AAr?$AAt?$AA_?$AAb?$AAl?$AAd?$AA?2?$AAs?$AAe?$AAl?$AAf?$AA_?$AAx?$AA8?$AA6?$AA?2@ 004e02a0     LIBCMTD:vsnprnc.obj
 0003:0000e31c       ??_C@_1DA@HPBFKMEB@?$AA?$CI?$AA?$CC?$AAB?$AAu?$AAf?$AAf?$AAe?$AAr?$AA?5?$AAt?$AAo?$AAo?$AA?5?$AAs?$AAm?$AAa?$AAl?$AAl?$AA?$CC?$AA?0?$AA?5?$AA0?$AA?$CJ?$AA?$AA@ 004e031c     LIBCMTD:vsnprnc.obj
 0003:0000e358       ??_C@_1EE@OKCKIGFK@?$AAs?$AAt?$AAr?$AAi?$AAn?$AAg?$AA?5?$AA?$CB?$AA?$DN?$AA?5?$AAN?$AAU?$AAL?$AAL?$AA?5?$AA?$CG?$AA?$CG?$AA?5?$AAs?$AAi?$AAz?$AAe?$AAI?$AAn?$AAB?$AAy?$AAt?$AAe?$AAs?$AA?5?$AA?$DO?$AA?5@ 004e0358     LIBCMTD:vsnprnc.obj
 0003:0000e3ac       ??_C@_1BM@BLJALHEF@?$AA_?$AAv?$AAs?$AAp?$AAr?$AAi?$AAn?$AAt?$AAf?$AA_?$AAs?$AA_?$AAl?$AA?$AA@ 004e03ac     LIBCMTD:vsnprnc.obj
 0003:0000e3d0       ??_C@_1BO@MLMCMBKN@?$AAf?$AAo?$AAr?$AAm?$AAa?$AAt?$AA?5?$AA?$CB?$AA?$DN?$AA?5?$AAN?$AAU?$AAL?$AAL?$AA?$AA@ 004e03d0     LIBCMTD:vsnprnc.obj
 0003:0000e3f4       ??_C@_1BO@MMPELNIM@?$AA_?$AAv?$AAs?$AAn?$AAp?$AAr?$AAi?$AAn?$AAt?$AAf?$AA_?$AAs?$AA_?$AAl?$AA?$AA@ 004e03f4     LIBCMTD:vsnprnc.obj
 0003:0000e418       ??_C@_1CM@HABGDNLJ@?$AAl?$AAe?$AAn?$AAg?$AAt?$AAh?$AA?5?$AA?$DM?$AA?5?$AAs?$AAi?$AAz?$AAe?$AAI?$AAn?$AAT?$AAC?$AAh?$AAa?$AAr?$AAs?$AA?$AA@ 004e0418     LIBCMTD:xtoas.obj
 0003:0000e44c       ??_C@_1DE@PCJGDBBD@?$AA2?$AA?5?$AA?$DM?$AA?$DN?$AA?5?$AAr?$AAa?$AAd?$AAi?$AAx?$AA?5?$AA?$CG?$AA?$CG?$AA?5?$AAr?$AAa?$AAd?$AAi?$AAx?$AA?5?$AA?$DM?$AA?$DN?$AA?5?$AA3?$AA6?$AA?$AA@ 004e044c     LIBCMTD:xtoas.obj
 0003:0000e490       ??_C@_1FA@MKGGAGEI@?$AAs?$AAi?$AAz?$AAe?$AAI?$AAn?$AAT?$AAC?$AAh?$AAa?$AAr?$AAs?$AA?5?$AA?$DO?$AA?5?$AA?$CI?$AAs?$AAi?$AAz?$AAe?$AA_?$AAt?$AA?$CJ?$AA?$CI?$AAi?$AAs?$AA_?$AAn?$AAe?$AAg?$AA?5?$AA?$DP@ 004e0490     LIBCMTD:xtoas.obj
 0003:0000e4f0       ??_C@_1CC@JNJFIMGE@?$AAs?$AAi?$AAz?$AAe?$AAI?$AAn?$AAT?$AAC?$AAh?$AAa?$AAr?$AAs?$AA?5?$AA?$DO?$AA?5?$AA0?$AA?$AA@ 004e04f0     LIBCMTD:xtoas.obj
 0003:0000e518       ??_C@_1O@GIMBNLEI@?$AAx?$AAt?$AAo?$AAa?$AA_?$AAs?$AA?$AA@ 004e0518     LIBCMTD:xtoas.obj
 0003:0000e528       ??_C@_1FO@FKHEBPLJ@?$AAf?$AA?3?$AA?2?$AAr?$AAt?$AAm?$AA?2?$AAv?$AAc?$AAt?$AAo?$AAo?$AAl?$AAs?$AA?2?$AAc?$AAr?$AAt?$AA_?$AAb?$AAl?$AAd?$AA?2?$AAs?$AAe?$AAl?$AAf?$AA_?$AAx?$AA8?$AA6?$AA?2@ 004e0528     LIBCMTD:xtoas.obj
 0003:0000e598       ??_C@_1BC@MJJNBNFN@?$AAx?$AA6?$AA4?$AAt?$AAo?$AAa?$AA_?$AAs?$AA?$AA@ 004e0598     LIBCMTD:xtoas.obj
 0003:0000e5b0       ??_C@_1BC@PLIEPKPJ@?$AAw?$AAc?$AAs?$AAc?$AAa?$AAt?$AA_?$AAs?$AA?$AA@ 004e05b0     LIBCMTD:wcscat_s.obj
 0003:0000e5c8       ??_C@_1CE@IGKFIJFD@?$AA_?$AAv?$AAs?$AAw?$AAp?$AAr?$AAi?$AAn?$AAt?$AAf?$AA_?$AAh?$AAe?$AAl?$AAp?$AAe?$AAr?$AA?$AA@ 004e05c8     LIBCMTD:vswprnc.obj
 0003:0000e5f8       ??_C@_1GG@PFLMBLMN@?$AAf?$AA?3?$AA?2?$AAr?$AAt?$AAm?$AA?2?$AAv?$AAc?$AAt?$AAo?$AAo?$AAl?$AAs?$AA?2?$AAc?$AAr?$AAt?$AA_?$AAb?$AAl?$AAd?$AA?2?$AAs?$AAe?$AAl?$AAf?$AA_?$AAx?$AA8?$AA6?$AA?2@ 004e05f8     LIBCMTD:vswprnc.obj
 0003:0000e678       ??_C@_1EE@MPCHJFGP@?$AAs?$AAt?$AAr?$AAi?$AAn?$AAg?$AA?5?$AA?$CB?$AA?$DN?$AA?5?$AAN?$AAU?$AAL?$AAL?$AA?5?$AA?$CG?$AA?$CG?$AA?5?$AAs?$AAi?$AAz?$AAe?$AAI?$AAn?$AAW?$AAo?$AAr?$AAd?$AAs?$AA?5?$AA?$DO?$AA?5@ 004e0678     LIBCMTD:vswprnc.obj
 0003:0000e6cc       ??_C@_1BO@OALHJLCI@?$AA_?$AAv?$AAs?$AAw?$AAp?$AAr?$AAi?$AAn?$AAt?$AAf?$AA_?$AAs?$AA_?$AAl?$AA?$AA@ 004e06cc     LIBCMTD:vswprnc.obj
 0003:0000e6f0       ??_C@_1CA@BKFKMJFF@?$AA_?$AAv?$AAs?$AAn?$AAw?$AAp?$AAr?$AAi?$AAn?$AAt?$AAf?$AA_?$AAs?$AA_?$AAl?$AA?$AA@ 004e06f0     LIBCMTD:vswprnc.obj
 0003:0000e718       ??_C@_1O@NCBFODOE@?$AAx?$AAt?$AAo?$AAw?$AA_?$AAs?$AA?$AA@ 004e0718     LIBCMTD:xtows.obj
 0003:0000e728       ??_C@_1BC@HDEJCFPB@?$AAx?$AA6?$AA4?$AAt?$AAo?$AAw?$AA_?$AAs?$AA?$AA@ 004e0728     LIBCMTD:xtows.obj
 0003:0000e740       ??_C@_1HO@MLMGPAFH@?$AA?$CI?$AA?$CC?$AAi?$AAn?$AAc?$AAo?$AAn?$AAs?$AAi?$AAs?$AAt?$AAe?$AAn?$AAt?$AA?5?$AAI?$AAO?$AAB?$AA?5?$AAf?$AAi?$AAe?$AAl?$AAd?$AAs?$AA?$CC?$AA?0?$AA?5?$AAs?$AAt?$AAr?$AAe@ 004e0740     LIBCMTD:_flsbuf.obj
 0003:0000e7d8       ??_C@_1BE@GOOJIKLI@?$AA_?$AAf?$AAl?$AAs?$AAb?$AAu?$AAf?$AA?4?$AAc?$AA?$AA@ 004e07d8     LIBCMTD:_flsbuf.obj
 0003:0000e7f0       ??_C@_0DB@FNNAMKJO@f?3?2rtm?2vctools?2crt_bld?2self_x86?2@ 004e07f0     LIBCMTD:woutput.obj
 0003:0000e830       ??_C@_1EK@PNGFDECN@?$AA?$CI?$AA?$CC?$AA?8?$AAn?$AA?8?$AA?5?$AAf?$AAo?$AAr?$AAm?$AAa?$AAt?$AA?5?$AAs?$AAp?$AAe?$AAc?$AAi?$AAf?$AAi?$AAe?$AAr?$AA?5?$AAd?$AAi?$AAs?$AAa?$AAb?$AAl?$AAe?$AAd?$AA?$CC@ 004e0830     LIBCMTD:woutput.obj
 0003:0000e888       ??_C@_1BG@BBCDFOMA@?$AA_?$AAw?$AAo?$AAu?$AAt?$AAp?$AAu?$AAt?$AA_?$AAl?$AA?$AA@ 004e0888     LIBCMTD:woutput.obj
 0003:0000e8a8       ??_C@_1GC@ELIAPJJM@?$AAf?$AA?3?$AA?2?$AAr?$AAt?$AAm?$AA?2?$AAv?$AAc?$AAt?$AAo?$AAo?$AAl?$AAs?$AA?2?$AAc?$AAr?$AAt?$AA_?$AAb?$AAl?$AAd?$AA?2?$AAs?$AAe?$AAl?$AAf?$AA_?$AAx?$AA8?$AA6?$AA?2@ 004e08a8     LIBCMTD:woutput.obj
 0003:0000e920       ??_C@_1BK@EPLNBKAK@?$AA_?$AAv?$AAs?$AAw?$AAp?$AAr?$AAi?$AAn?$AAt?$AAf?$AA_?$AAl?$AA?$AA@ 004e0920     LIBCMTD:vswprint.obj
 0003:0000e940       ??_C@_1BG@BELBGCGO@?$AAv?$AAs?$AAw?$AAp?$AAr?$AAi?$AAn?$AAt?$AA?4?$AAc?$AA?$AA@ 004e0940     LIBCMTD:vswprint.obj
 0003:0000e95c       ??_C@_1CG@IMMIEPNA@?$AA_?$AAv?$AAs?$AAc?$AAw?$AAp?$AAr?$AAi?$AAn?$AAt?$AAf?$AA_?$AAh?$AAe?$AAl?$AAp?$AAe?$AAr?$AA?$AA@ 004e095c     LIBCMTD:vswprint.obj
 0003:0000e98c       ??_C@_13NOLLCAOD@?$AA?$AA?$AA?$AA@ 004e098c     LIBCMTD:a_map.obj
 0003:0000e990       ___newctype                004e0990     LIBCMTD:ctype.obj
 0003:0000ec90       __wctype                   004e0c90     LIBCMTD:ctype.obj
 0003:0000ee98       ___newclmap                004e0e98     LIBCMTD:ctype.obj
 0003:0000f018       ___newcumap                004e1018     LIBCMTD:ctype.obj
 0003:0000f334       ??_C@_1BG@HHBAFOPB@?$AAi?$AAn?$AAi?$AAt?$AAt?$AAi?$AAm?$AAe?$AA?4?$AAc?$AA?$AA@ 004e1334     LIBCMTD:inittime.obj
 0003:0000f350       ??_C@_1EE@FDHCFDHN@?$AAp?$AAl?$AAo?$AAc?$AAi?$AA?9?$AA?$DO?$AAl?$AAc?$AA_?$AAt?$AAi?$AAm?$AAe?$AA_?$AAc?$AAu?$AAr?$AAr?$AA?9?$AA?$DO?$AAr?$AAe?$AAf?$AAc?$AAo?$AAu?$AAn?$AAt?$AA?5?$AA?$DO?$AA?5@ 004e1350     LIBCMTD:inittime.obj
 0003:0000f3a4       ??_C@_0L@IOJADHBB@inittime?4c?$AA@ 004e13a4     LIBCMTD:inittime.obj
 0003:0000f3b4       ??_C@_1BE@EAFFGEEO@?$AAi?$AAn?$AAi?$AAt?$AAn?$AAu?$AAm?$AA?4?$AAc?$AA?$AA@ 004e13b4     LIBCMTD:initnum.obj
 0003:0000f3cc       ??_C@_1DM@IFKAINNE@?$AAp?$AAl?$AAo?$AAc?$AAi?$AA?9?$AA?$DO?$AAl?$AAc?$AAo?$AAn?$AAv?$AA_?$AAn?$AAu?$AAm?$AA_?$AAr?$AAe?$AAf?$AAc?$AAo?$AAu?$AAn?$AAt?$AA?5?$AA?$DO?$AA?5?$AA0?$AA?$AA@ 004e13cc     LIBCMTD:initnum.obj
 0003:0000f414       ??_C@_09MECGNAGI@initnum?4c?$AA@ 004e1414     LIBCMTD:initnum.obj
 0003:0000f420       ??_C@_1BE@IJMIKAHM@?$AAi?$AAn?$AAi?$AAt?$AAm?$AAo?$AAn?$AA?4?$AAc?$AA?$AA@ 004e1420     LIBCMTD:initmon.obj
 0003:0000f438       ??_C@_1DM@GKAPAMDO@?$AAp?$AAl?$AAo?$AAc?$AAi?$AA?9?$AA?$DO?$AAl?$AAc?$AAo?$AAn?$AAv?$AA_?$AAm?$AAo?$AAn?$AA_?$AAr?$AAe?$AAf?$AAc?$AAo?$AAu?$AAn?$AAt?$AA?5?$AA?$DO?$AA?5?$AA0?$AA?$AA@ 004e1438     LIBCMTD:initmon.obj
 0003:0000f480       ??_C@_09HKFHICAL@initmon?4c?$AA@ 004e1480     LIBCMTD:initmon.obj
 0003:0000f48c       ??_C@_1DG@NMBGBDM@?$AAp?$AAl?$AAo?$AAc?$AAi?$AA?9?$AA?$DO?$AAc?$AAt?$AAy?$AAp?$AAe?$AA1?$AA_?$AAr?$AAe?$AAf?$AAc?$AAo?$AAu?$AAn?$AAt?$AA?5?$AA?$DO?$AA?5?$AA0?$AA?$AA@ 004e148c     LIBCMTD:initctyp.obj
 0003:0000f4cc       ??_C@_1BG@PMMGDKJC@?$AAi?$AAn?$AAi?$AAt?$AAc?$AAt?$AAy?$AAp?$AA?4?$AAc?$AA?$AA@ 004e14cc     LIBCMTD:initctyp.obj
 0003:0000f4e8       ??_C@_0L@GBAGBCPL@initctyp?4c?$AA@ 004e14e8     LIBCMTD:initctyp.obj
 0003:0000f4f8       ??_C@_08JCCMCCIL@HH?3mm?3ss?$AA@ 004e14f8     LIBCMTD:strftime.obj
 0003:0000f504       ??_C@_0BE@CKGJFCPC@dddd?0?5MMMM?5dd?0?5yyyy?$AA@ 004e1504     LIBCMTD:strftime.obj
 0003:0000f51c       ??_C@_08BPBNCDIB@MM?1dd?1yy?$AA@ 004e151c     LIBCMTD:strftime.obj
 0003:0000f528       ??_C@_02CJNFDJBF@PM?$AA@   004e1528     LIBCMTD:strftime.obj
 0003:0000f52c       ??_C@_02DEDBPAFC@AM?$AA@   004e152c     LIBCMTD:strftime.obj
 0003:0000f530       ??_C@_08EDHMEBNP@December?$AA@ 004e1530     LIBCMTD:strftime.obj
 0003:0000f53c       ??_C@_08HCHEGEOA@November?$AA@ 004e153c     LIBCMTD:strftime.obj
 0003:0000f548       ??_C@_07JJNFCEND@October?$AA@ 004e1548     LIBCMTD:strftime.obj
 0003:0000f554       ??_C@_09BHHEALKD@September?$AA@ 004e1554     LIBCMTD:strftime.obj
 0003:0000f560       ??_C@_06LBBHFDDG@August?$AA@ 004e1560     LIBCMTD:strftime.obj
 0003:0000f568       ??_C@_04MIEPOIFP@July?$AA@ 004e1568     LIBCMTD:strftime.obj
 0003:0000f570       ??_C@_04CNLMGBGM@June?$AA@ 004e1570     LIBCMTD:strftime.obj
 0003:0000f578       ??_C@_05DMJDNLEJ@April?$AA@ 004e1578     LIBCMTD:strftime.obj
 0003:0000f580       ??_C@_05HPCKOFNC@March?$AA@ 004e1580     LIBCMTD:strftime.obj
 0003:0000f588       ??_C@_08GNJGEPFN@February?$AA@ 004e1588     LIBCMTD:strftime.obj
 0003:0000f594       ??_C@_07CGJPFGJA@January?$AA@ 004e1594     LIBCMTD:strftime.obj
 0003:0000f5a0       ??_C@_03MKABNOCG@Dec?$AA@  004e15a0     LIBCMTD:strftime.obj
 0003:0000f5a4       ??_C@_03JPJOFNIA@Nov?$AA@  004e15a4     LIBCMTD:strftime.obj
 0003:0000f5a8       ??_C@_03BMAOKBAD@Oct?$AA@  004e15a8     LIBCMTD:strftime.obj
 0003:0000f5ac       ??_C@_03GGCAPAJC@Sep?$AA@  004e15ac     LIBCMTD:strftime.obj
 0003:0000f5b0       ??_C@_03IFJFEIGA@Aug?$AA@  004e15b0     LIBCMTD:strftime.obj
 0003:0000f5b4       ??_C@_03LBGABGKK@Jul?$AA@  004e15b4     LIBCMTD:strftime.obj
 0003:0000f5b8       ??_C@_03IDFGHECI@Jun?$AA@  004e15b8     LIBCMTD:strftime.obj
 0003:0000f5bc       ??_C@_03CNMDKL@May?$AA@    004e15bc     LIBCMTD:strftime.obj
 0003:0000f5c0       ??_C@_03LEOLGMJP@Apr?$AA@  004e15c0     LIBCMTD:strftime.obj
 0003:0000f5c4       ??_C@_03ODNJBKGA@Mar?$AA@  004e15c4     LIBCMTD:strftime.obj
 0003:0000f5c8       ??_C@_03HJBDCHOM@Feb?$AA@  004e15c8     LIBCMTD:strftime.obj
 0003:0000f5cc       ??_C@_03JIHJHPIE@Jan?$AA@  004e15cc     LIBCMTD:strftime.obj
 0003:0000f5d0       ??_C@_08INBOOONO@Saturday?$AA@ 004e15d0     LIBCMTD:strftime.obj
 0003:0000f5dc       ??_C@_06JECMNKMI@Friday?$AA@ 004e15dc     LIBCMTD:strftime.obj
 0003:0000f5e4       ??_C@_08HACCIKIA@Thursday?$AA@ 004e15e4     LIBCMTD:strftime.obj
 0003:0000f5f0       ??_C@_09DLIGFAKA@Wednesday?$AA@ 004e15f0     LIBCMTD:strftime.obj
 0003:0000f5fc       ??_C@_07BAAGCFCM@Tuesday?$AA@ 004e15fc     LIBCMTD:strftime.obj
 0003:0000f608       ??_C@_06JLEDEDGH@Monday?$AA@ 004e1608     LIBCMTD:strftime.obj
 0003:0000f610       ??_C@_06OOPIFAJ@Sunday?$AA@ 004e1610     LIBCMTD:strftime.obj
 0003:0000f618       ??_C@_03FEFJNEK@Sat?$AA@   004e1618     LIBCMTD:strftime.obj
 0003:0000f61c       ??_C@_03IDIOELNC@Fri?$AA@  004e161c     LIBCMTD:strftime.obj
 0003:0000f620       ??_C@_03IOFIKPDN@Thu?$AA@  004e1620     LIBCMTD:strftime.obj
 0003:0000f624       ??_C@_03MHOMLAJA@Wed?$AA@  004e1624     LIBCMTD:strftime.obj
 0003:0000f628       ??_C@_03NAGEINEP@Tue?$AA@  004e1628     LIBCMTD:strftime.obj
 0003:0000f62c       ??_C@_03PDAGKDH@Mon?$AA@   004e162c     LIBCMTD:strftime.obj
 0003:0000f630       ??_C@_03KOEHGMDN@Sun?$AA@  004e1630     LIBCMTD:strftime.obj
 0003:0000f638       ??_C@_1FM@LPEPDBJF@?$AAs?$AAt?$AAr?$AAc?$AAp?$AAy?$AA_?$AAs?$AA?$CI?$AAs?$AA?0?$AA?5?$AA?$CI?$AAl?$AAe?$AAn?$AA?5?$AA?$CL?$AA?5?$AA1?$AA?$CJ?$AA?5?$AA?9?$AA?5?$AA?$CI?$AAs?$AA?5?$AA?9?$AA?5?$AAp?$AA?$CJ?$AA?0@ 004e1638     LIBCMTD:strftime.obj
 0003:0000f6a8       ??_C@_1GG@NAGHPCAA@?$AAs?$AAt?$AAr?$AAc?$AAp?$AAy?$AA_?$AAs?$AA?$CI?$AAs?$AA?0?$AA?5?$AA?$CI?$AAl?$AAe?$AAn?$AA?5?$AA?$CL?$AA?5?$AA1?$AA?$CJ?$AA?5?$AA?9?$AA?5?$AA?$CI?$AAs?$AA?5?$AA?9?$AA?5?$AAp?$AA?$CJ?$AA?0@ 004e16a8     LIBCMTD:strftime.obj
 0003:0000f724       ??_C@_1BG@LGACIFJI@?$AA_?$AAG?$AAe?$AAt?$AAd?$AAa?$AAy?$AAs?$AA_?$AAl?$AA?$AA@ 004e1724     LIBCMTD:strftime.obj
 0003:0000f740       ??_C@_1BG@EMNEMEKA@?$AAs?$AAt?$AAr?$AAf?$AAt?$AAi?$AAm?$AAe?$AA?4?$AAc?$AA?$AA@ 004e1740     LIBCMTD:strftime.obj
 0003:0000f75c       ??_C@_0L@OCEOFAIF@strftime?4c?$AA@ 004e175c     LIBCMTD:strftime.obj
 0003:0000f770       ??_C@_1FO@IFFKPIEL@?$AAs?$AAt?$AAr?$AAc?$AAp?$AAy?$AA_?$AAs?$AA?$CI?$AAs?$AA?0?$AA?5?$AA?$CI?$AAl?$AAe?$AAn?$AA?5?$AA?$CL?$AA?5?$AA1?$AA?$CJ?$AA?5?$AA?9?$AA?5?$AA?$CI?$AAs?$AA?5?$AA?9?$AA?5?$AAp?$AA?$CJ?$AA?0@ 004e1770     LIBCMTD:strftime.obj
 0003:0000f7e0       ??_C@_1GI@LNJDDNLK@?$AAs?$AAt?$AAr?$AAc?$AAp?$AAy?$AA_?$AAs?$AA?$CI?$AAs?$AA?0?$AA?5?$AA?$CI?$AAl?$AAe?$AAn?$AA?5?$AA?$CL?$AA?5?$AA1?$AA?$CJ?$AA?5?$AA?9?$AA?5?$AA?$CI?$AAs?$AA?5?$AA?9?$AA?5?$AAp?$AA?$CJ?$AA?0@ 004e17e0     LIBCMTD:strftime.obj
 0003:0000f85c       ??_C@_1BK@IDMELNCB@?$AA_?$AAG?$AAe?$AAt?$AAm?$AAo?$AAn?$AAt?$AAh?$AAs?$AA_?$AAl?$AA?$AA@ 004e185c     LIBCMTD:strftime.obj
 0003:0000f880       ??_C@_1FG@CJBIADLJ@?$AAs?$AAt?$AAr?$AAc?$AAp?$AAy?$AA_?$AAs?$AA?$CI?$AAs?$AA?0?$AA?5?$AAl?$AAe?$AAn?$AA?5?$AA?9?$AA?5?$AA?$CI?$AAs?$AA?5?$AA?9?$AA?5?$AAp?$AA?$CJ?$AA?0?$AA?5?$AAp?$AAt?$AA?9?$AA?$DO?$AAw@ 004e1880     LIBCMTD:strftime.obj
 0003:0000f8e8       ??_C@_1FI@PPIHCJGH@?$AAs?$AAt?$AAr?$AAc?$AAp?$AAy?$AA_?$AAs?$AA?$CI?$AAs?$AA?0?$AA?5?$AAl?$AAe?$AAn?$AA?5?$AA?9?$AA?5?$AA?$CI?$AAs?$AA?5?$AA?9?$AA?5?$AAp?$AA?$CJ?$AA?0?$AA?5?$AAp?$AAt?$AA?9?$AA?$DO?$AAw@ 004e18e8     LIBCMTD:strftime.obj
 0003:0000f958       ??_C@_1FI@GDNOPCGD@?$AAs?$AAt?$AAr?$AAc?$AAp?$AAy?$AA_?$AAs?$AA?$CI?$AAs?$AA?0?$AA?5?$AAl?$AAe?$AAn?$AA?5?$AA?9?$AA?5?$AA?$CI?$AAs?$AA?5?$AA?9?$AA?5?$AAp?$AA?$CJ?$AA?0?$AA?5?$AAp?$AAt?$AA?9?$AA?$DO?$AAw@ 004e1958     LIBCMTD:strftime.obj
 0003:0000f9c8       ??_C@_1FA@MEHIJEIL@?$AAs?$AAt?$AAr?$AAc?$AAp?$AAy?$AA_?$AAs?$AA?$CI?$AAs?$AA?0?$AA?5?$AAl?$AAe?$AAn?$AA?5?$AA?9?$AA?5?$AA?$CI?$AAs?$AA?5?$AA?9?$AA?5?$AAp?$AA?$CJ?$AA?0?$AA?5?$AAp?$AAt?$AA?9?$AA?$DO?$AAa@ 004e19c8     LIBCMTD:strftime.obj
 0003:0000fa28       ??_C@_1FA@INCJEBF@?$AAs?$AAt?$AAr?$AAc?$AAp?$AAy?$AA_?$AAs?$AA?$CI?$AAs?$AA?0?$AA?5?$AAl?$AAe?$AAn?$AA?5?$AA?9?$AA?5?$AA?$CI?$AAs?$AA?5?$AA?9?$AA?5?$AAp?$AA?$CJ?$AA?0?$AA?5?$AAp?$AAt?$AA?9?$AA?$DO?$AAa@ 004e1a28     LIBCMTD:strftime.obj
 0003:0000fa88       ??_C@_1FC@BEAPAEGE@?$AAs?$AAt?$AAr?$AAc?$AAp?$AAy?$AA_?$AAs?$AA?$CI?$AAs?$AA?0?$AA?5?$AAl?$AAe?$AAn?$AA?5?$AA?9?$AA?5?$AA?$CI?$AAs?$AA?5?$AA?9?$AA?5?$AAp?$AA?$CJ?$AA?0?$AA?5?$AAp?$AAt?$AA?9?$AA?$DO?$AAm@ 004e1a88     LIBCMTD:strftime.obj
 0003:0000faf0       ??_C@_1FM@CHHONFED@?$AAs?$AAt?$AAr?$AAc?$AAp?$AAy?$AA_?$AAs?$AA?$CI?$AAs?$AA?0?$AA?5?$AAl?$AAe?$AAn?$AA?5?$AA?9?$AA?5?$AA?$CI?$AAs?$AA?5?$AA?9?$AA?5?$AAp?$AA?$CJ?$AA?0?$AA?5?$AAp?$AAt?$AA?9?$AA?$DO?$AAm@ 004e1af0     LIBCMTD:strftime.obj
 0003:0000fb60       ??_C@_1FA@EBHJJADL@?$AAs?$AAt?$AAr?$AAc?$AAp?$AAy?$AA_?$AAs?$AA?$CI?$AAs?$AA?0?$AA?5?$AAl?$AAe?$AAn?$AA?5?$AA?9?$AA?5?$AA?$CI?$AAs?$AA?5?$AA?9?$AA?5?$AAp?$AA?$CJ?$AA?0?$AA?5?$AAp?$AAt?$AA?9?$AA?$DO?$AAw@ 004e1b60     LIBCMTD:strftime.obj
 0003:0000fbc0       ??_C@_1FK@ODMKEFLD@?$AAs?$AAt?$AAr?$AAc?$AAp?$AAy?$AA_?$AAs?$AA?$CI?$AAs?$AA?0?$AA?5?$AAl?$AAe?$AAn?$AA?5?$AA?9?$AA?5?$AA?$CI?$AAs?$AA?5?$AA?9?$AA?5?$AAp?$AA?$CJ?$AA?0?$AA?5?$AAp?$AAt?$AA?9?$AA?$DO?$AAw@ 004e1bc0     LIBCMTD:strftime.obj
 0003:0000fc2c       ??_C@_1BK@MJNHIAGO@?$AA_?$AAG?$AAe?$AAt?$AAt?$AAn?$AAa?$AAm?$AAe?$AAs?$AA_?$AAl?$AA?$AA@ 004e1c2c     LIBCMTD:strftime.obj
 0003:0000fc4c       ??_C@_1M@HCOOECOK@?$AAF?$AAA?$AAL?$AAS?$AAE?$AA?$AA@ 004e1c4c     LIBCMTD:strftime.obj
 0003:0000fc60       ??_C@_1HC@JGDOBCNK@?$AA?$CI?$AA?$CC?$AAI?$AAn?$AAv?$AAa?$AAl?$AAi?$AAd?$AA?5?$AAM?$AAB?$AAC?$AAS?$AA?5?$AAc?$AAh?$AAa?$AAr?$AAa?$AAc?$AAt?$AAe?$AAr?$AA?5?$AAs?$AAe?$AAq?$AAu?$AAe?$AAn?$AAc@ 004e1c60     LIBCMTD:strftime.obj
 0003:0000fce8       ??_C@_1BG@CCBNLOOI@?$AAt?$AAi?$AAm?$AAe?$AAp?$AAt?$AAr?$AA?$CB?$AA?$DN?$AA0?$AA?$AA@ 004e1ce8     LIBCMTD:strftime.obj
 0003:0000fd04       ??_C@_1CG@MHIOFJLE@?$AA?$CI?$AA?5?$AAf?$AAo?$AAr?$AAm?$AAa?$AAt?$AA?5?$AA?$CB?$AA?$DN?$AA?5?$AAN?$AAU?$AAL?$AAL?$AA?5?$AA?$CJ?$AA?$AA@ 004e1d04     LIBCMTD:strftime.obj
 0003:0000fd34       ??_C@_1CC@IHEJKGMG@?$AA?$CI?$AA?5?$AAm?$AAa?$AAx?$AAs?$AAi?$AAz?$AAe?$AA?5?$AA?$CB?$AA?$DN?$AA?5?$AA0?$AA?5?$AA?$CJ?$AA?$AA@ 004e1d34     LIBCMTD:strftime.obj
 0003:0000fd5c       ??_C@_1BI@ONBMGNNA@?$AA_?$AAS?$AAt?$AAr?$AAf?$AAt?$AAi?$AAm?$AAe?$AA_?$AAl?$AA?$AA@ 004e1d5c     LIBCMTD:strftime.obj
 0003:0000fd78       ??_C@_1CG@MPKJHDAA@?$AA?$CI?$AA?5?$AAs?$AAt?$AAr?$AAi?$AAn?$AAg?$AA?5?$AA?$CB?$AA?$DN?$AA?5?$AAN?$AAU?$AAL?$AAL?$AA?5?$AA?$CJ?$AA?$AA@ 004e1d78     LIBCMTD:strftime.obj
 0003:0000fda8       ??_C@_1EG@JNJKHKFI@?$AA?$CI?$AA?5?$AA?$CC?$AAI?$AAn?$AAv?$AAa?$AAl?$AAi?$AAd?$AA?5?$AAf?$AAo?$AAr?$AAm?$AAa?$AAt?$AA?5?$AAd?$AAi?$AAr?$AAe?$AAc?$AAt?$AAi?$AAv?$AAe?$AA?$CC?$AA?5?$AA?0?$AA?5?$AA0@ 004e1da8     LIBCMTD:strftime.obj
 0003:0000fdfc       ??_C@_1DC@NMCFBMJP@?$AA?$CI?$AA?5?$AAt?$AAi?$AAm?$AAe?$AAp?$AAt?$AAr?$AA?9?$AA?$DO?$AAt?$AAm?$AA_?$AAy?$AAe?$AAa?$AAr?$AA?5?$AA?$DO?$AA?$DN?$AA0?$AA?5?$AA?$CJ?$AA?$AA@ 004e1dfc     LIBCMTD:strftime.obj
 0003:0000fe38       ??_C@_1HC@HLKHIKOB@?$AA?$CI?$AA?5?$AA?$CI?$AA?5?$AAt?$AAi?$AAm?$AAe?$AAp?$AAt?$AAr?$AA?9?$AA?$DO?$AAt?$AAm?$AA_?$AAs?$AAe?$AAc?$AA?5?$AA?$DO?$AA?$DN?$AA0?$AA?5?$AA?$CJ?$AA?5?$AA?$CG?$AA?$CG?$AA?5?$AA?$CI?$AA?5?$AAt@ 004e1e38     LIBCMTD:strftime.obj
 0003:0000fec0       ??_C@_1HC@IGKDPPHL@?$AA?$CI?$AA?5?$AA?$CI?$AA?5?$AAt?$AAi?$AAm?$AAe?$AAp?$AAt?$AAr?$AA?9?$AA?$DO?$AAt?$AAm?$AA_?$AAm?$AAi?$AAn?$AA?5?$AA?$DO?$AA?$DN?$AA0?$AA?5?$AA?$CJ?$AA?5?$AA?$CG?$AA?$CG?$AA?5?$AA?$CI?$AA?5?$AAt@ 004e1ec0     LIBCMTD:strftime.obj
 0003:0000ff48       ??_C@_1HI@HHCJCPE@?$AA?$CI?$AA?5?$AA?$CI?$AA?5?$AAt?$AAi?$AAm?$AAe?$AAp?$AAt?$AAr?$AA?9?$AA?$DO?$AAt?$AAm?$AA_?$AAy?$AAd?$AAa?$AAy?$AA?5?$AA?$DO?$AA?$DN?$AA0?$AA?5?$AA?$CJ?$AA?5?$AA?$CG?$AA?$CG?$AA?5?$AA?$CI?$AA?5@ 004e1f48     LIBCMTD:strftime.obj
 0003:0000ffd8       ??_C@_1HG@KCGGFLNI@?$AA?$CI?$AA?5?$AA?$CI?$AA?5?$AAt?$AAi?$AAm?$AAe?$AAp?$AAt?$AAr?$AA?9?$AA?$DO?$AAt?$AAm?$AA_?$AAh?$AAo?$AAu?$AAr?$AA?5?$AA?$DO?$AA?$DN?$AA0?$AA?5?$AA?$CJ?$AA?5?$AA?$CG?$AA?$CG?$AA?5?$AA?$CI?$AA?5@ 004e1fd8     LIBCMTD:strftime.obj
 0003:00010068       ??_C@_1HG@NFHHOAD@?$AA?$CI?$AA?5?$AA?$CI?$AA?5?$AAt?$AAi?$AAm?$AAe?$AAp?$AAt?$AAr?$AA?9?$AA?$DO?$AAt?$AAm?$AA_?$AAm?$AAd?$AAa?$AAy?$AA?5?$AA?$DO?$AA?$DN?$AA1?$AA?5?$AA?$CJ?$AA?5?$AA?$CG?$AA?$CG?$AA?5?$AA?$CI?$AA?5@ 004e2068     LIBCMTD:strftime.obj
 0003:000100f8       ??_C@_1HC@OOAMILFB@?$AA?$CI?$AA?5?$AA?$CI?$AA?5?$AAt?$AAi?$AAm?$AAe?$AAp?$AAt?$AAr?$AA?9?$AA?$DO?$AAt?$AAm?$AA_?$AAm?$AAo?$AAn?$AA?5?$AA?$DO?$AA?$DN?$AA0?$AA?5?$AA?$CJ?$AA?5?$AA?$CG?$AA?$CG?$AA?5?$AA?$CI?$AA?5?$AAt@ 004e20f8     LIBCMTD:strftime.obj
 0003:00010180       ??_C@_1BI@HBKPAJH@?$AA_?$AAe?$AAx?$AAp?$AAa?$AAn?$AAd?$AAt?$AAi?$AAm?$AAe?$AA?$AA@ 004e2180     LIBCMTD:strftime.obj
 0003:000101a0       ??_C@_1HE@BFLEOKFO@?$AA?$CI?$AA?5?$AA?$CI?$AA?5?$AAt?$AAi?$AAm?$AAe?$AAp?$AAt?$AAr?$AA?9?$AA?$DO?$AAt?$AAm?$AA_?$AAw?$AAd?$AAa?$AAy?$AA?5?$AA?$DO?$AA?$DN?$AA0?$AA?5?$AA?$CJ?$AA?5?$AA?$CG?$AA?$CG?$AA?5?$AA?$CI?$AA?5@ 004e21a0     LIBCMTD:strftime.obj
 0003:00010230       ??_C@_1HG@PAEENAPO@?$AA?$CI?$AA?$CC?$AAI?$AAn?$AAv?$AAa?$AAl?$AAi?$AAd?$AA?5?$AAM?$AAB?$AAC?$AAS?$AA?5?$AAc?$AAh?$AAa?$AAr?$AAa?$AAc?$AAt?$AAe?$AAr?$AA?5?$AAs?$AAe?$AAq?$AAu?$AAe?$AAn?$AAc@ 004e2230     LIBCMTD:strftime.obj
 0003:000102c0       ??_C@_1IE@EIDABBDG@?$AA?$CI?$AA?$CC?$AAI?$AAn?$AAv?$AAa?$AAl?$AAi?$AAd?$AA?5?$AAM?$AAB?$AAC?$AAS?$AA?5?$AAc?$AAh?$AAa?$AAr?$AAa?$AAc?$AAt?$AAe?$AAr?$AA?5?$AAs?$AAe?$AAq?$AAu?$AAe?$AAn?$AAc@ 004e22c0     LIBCMTD:strftime.obj
 0003:00010360       ??_C@_03EBAPMIKO@a?1p?$AA@ 004e2360     LIBCMTD:strftime.obj
 0003:00010364       ??_C@_05JAMEPDIN@am?1pm?$AA@ 004e2364     LIBCMTD:strftime.obj
 0003:00010370       ??_C@_1BKC@GNMHAJKJ@?$AA?$CI?$AA?5?$AA?$CI?$AA?5?$AAt?$AAm?$AAp?$AAt?$AAr?$AA?9?$AA?$DO?$AAt?$AAm?$AA_?$AAm?$AAd?$AAa?$AAy?$AA?5?$AA?$DO?$AA?$DN?$AA?5?$AA1?$AA?5?$AA?$CJ?$AA?5?$AA?$CG?$AA?$CG?$AA?5?$AA?$CI?$AA?5?$AA?$CI@ 004e2370     LIBCMTD:strftime.obj
 0003:00010568       ??_C@_1GM@ODJADGLF@?$AA?$CI?$AA?5?$AA?$CI?$AA?5?$AAt?$AAm?$AAp?$AAt?$AAr?$AA?9?$AA?$DO?$AAt?$AAm?$AA_?$AAs?$AAe?$AAc?$AA?5?$AA?$DO?$AA?$DN?$AA?5?$AA0?$AA?5?$AA?$CJ?$AA?5?$AA?$CG?$AA?$CG?$AA?5?$AA?$CI?$AA?5?$AAt?$AAm@ 004e2568     LIBCMTD:strftime.obj
 0003:000105f0       ??_C@_1GM@LGPAHFOJ@?$AA?$CI?$AA?5?$AA?$CI?$AA?5?$AAt?$AAm?$AAp?$AAt?$AAr?$AA?9?$AA?$DO?$AAt?$AAm?$AA_?$AAm?$AAi?$AAn?$AA?5?$AA?$DO?$AA?$DN?$AA?5?$AA0?$AA?5?$AA?$CJ?$AA?5?$AA?$CG?$AA?$CG?$AA?5?$AA?$CI?$AA?5?$AAt?$AAm@ 004e25f0     LIBCMTD:strftime.obj
 0003:00010678       ??_C@_1HA@HFAMHJOB@?$AA?$CI?$AA?5?$AA?$CI?$AA?5?$AAt?$AAm?$AAp?$AAt?$AAr?$AA?9?$AA?$DO?$AAt?$AAm?$AA_?$AAh?$AAo?$AAu?$AAr?$AA?5?$AA?$DO?$AA?$DN?$AA?5?$AA0?$AA?5?$AA?$CJ?$AA?5?$AA?$CG?$AA?$CG?$AA?5?$AA?$CI?$AA?5?$AAt@ 004e2678     LIBCMTD:strftime.obj
 0003:00010700       ??_C@_1GM@PGNHCPKA@?$AA?$CI?$AA?5?$AA?$CI?$AA?5?$AAt?$AAm?$AAp?$AAt?$AAr?$AA?9?$AA?$DO?$AAt?$AAm?$AA_?$AAm?$AAo?$AAn?$AA?5?$AA?$DO?$AA?$DN?$AA?5?$AA0?$AA?5?$AA?$CJ?$AA?5?$AA?$CG?$AA?$CG?$AA?5?$AA?$CI?$AA?5?$AAt?$AAm@ 004e2700     LIBCMTD:strftime.obj
 0003:00010784       ??_C@_1BO@CFDLGFLB@?$AA_?$AAs?$AAt?$AAo?$AAr?$AAe?$AA_?$AAw?$AAi?$AAn?$AAw?$AAo?$AAr?$AAd?$AA?$AA@ 004e2784     LIBCMTD:strftime.obj
 0003:000107a8       ??_C@_1DA@DFCEAJHI@?$AA?$CI?$AA?5?$AAt?$AAm?$AAp?$AAt?$AAr?$AA?9?$AA?$DO?$AAt?$AAm?$AA_?$AAy?$AAe?$AAa?$AAr?$AA?5?$AA?$DO?$AA?$DN?$AA?5?$AA0?$AA?5?$AA?$CJ?$AA?$AA@ 004e27a8     LIBCMTD:strftime.obj
 0003:000107e4       ??_C@_0O@FMJNFNKE@united?9states?$AA@ 004e27e4     LIBCMTD:getqloc.obj
 0003:000107f4       ??_C@_0P@NDHFFKCA@united?9kingdom?$AA@ 004e27f4     LIBCMTD:getqloc.obj
 0003:00010808       ??_C@_0BC@HHDADLGF@trinidad?5?$CG?5tobago?$AA@ 004e2808     LIBCMTD:getqloc.obj
 0003:00010820       ??_C@_0M@IOAEBDAC@south?9korea?$AA@ 004e2820     LIBCMTD:getqloc.obj
 0003:00010830       ??_C@_0N@FIELFKIJ@south?9africa?$AA@ 004e2830     LIBCMTD:getqloc.obj
 0003:00010840       ??_C@_0M@OPNDHCMC@south?5korea?$AA@ 004e2840     LIBCMTD:getqloc.obj
 0003:00010850       ??_C@_0N@MDEOEPFI@south?5africa?$AA@ 004e2850     LIBCMTD:getqloc.obj
 0003:00010860       ??_C@_06FKAPCJLB@slovak?$AA@ 004e2860     LIBCMTD:getqloc.obj
 0003:00010868       ??_C@_0M@EFJANOAL@puerto?9rico?$AA@ 004e2868     LIBCMTD:getqloc.obj
 0003:00010878       ??_C@_08PGOJKDAI@pr?9china?$AA@ 004e2878     LIBCMTD:getqloc.obj
 0003:00010884       ??_C@_08JHDOMCMI@pr?5china?$AA@ 004e2884     LIBCMTD:getqloc.obj
 0003:00010890       ??_C@_02JHCHFBLL@nz?$AA@   004e2890     LIBCMTD:getqloc.obj
 0003:00010894       ??_C@_0M@LINHDHKP@new?9zealand?$AA@ 004e2894     LIBCMTD:getqloc.obj
 0003:000108a4       ??_C@_09IIIPPBDB@hong?9kong?$AA@ 004e28a4     LIBCMTD:getqloc.obj
 0003:000108b0       ??_C@_07HJLCKBG@holland?$AA@ 004e28b0     LIBCMTD:getqloc.obj
 0003:000108bc       ??_C@_0O@LEHGMHAG@great?5britain?$AA@ 004e28bc     LIBCMTD:getqloc.obj
 0003:000108cc       ??_C@_07FACOMELA@england?$AA@ 004e28cc     LIBCMTD:getqloc.obj
 0003:000108d8       ??_C@_05JIHCEICB@czech?$AA@ 004e28d8     LIBCMTD:getqloc.obj
 0003:000108e0       ??_C@_05BBJOBLGB@china?$AA@ 004e28e0     LIBCMTD:getqloc.obj
 0003:000108e8       ??_C@_07GPKPHICP@britain?$AA@ 004e28e8     LIBCMTD:getqloc.obj
 0003:000108f4       ??_C@_07MHIPBHMG@america?$AA@ 004e28f4     LIBCMTD:getqloc.obj
 0003:00010900       ??_C@_03KIALPMKC@usa?$AA@  004e2900     LIBCMTD:getqloc.obj
 0003:00010904       ??_C@_02FGJGKGGD@us?$AA@   004e2904     LIBCMTD:getqloc.obj
 0003:00010908       ??_C@_02NEINDODK@uk?$AA@   004e2908     LIBCMTD:getqloc.obj
 0003:0001090c       ??_C@_05JMPCFJFJ@swiss?$AA@ 004e290c     LIBCMTD:getqloc.obj
 0003:00010914       ??_C@_0BA@HLOCPIOD@swedish?9finland?$AA@ 004e2914     LIBCMTD:getqloc.obj
 0003:00010928       ??_C@_0BC@PKCNIABK@spanish?9venezuela?$AA@ 004e2928     LIBCMTD:getqloc.obj
 0003:00010940       ??_C@_0BA@GBHHMIJI@spanish?9uruguay?$AA@ 004e2940     LIBCMTD:getqloc.obj
 0003:00010954       ??_C@_0BE@BHDOHPMC@spanish?9puerto?5rico?$AA@ 004e2954     LIBCMTD:getqloc.obj
 0003:0001096c       ??_C@_0N@KMOIDGGN@spanish?9peru?$AA@ 004e296c     LIBCMTD:getqloc.obj
 0003:0001097c       ??_C@_0BB@HMHLPGPH@spanish?9paraguay?$AA@ 004e297c     LIBCMTD:getqloc.obj
 0003:00010990       ??_C@_0P@MCPKNGFD@spanish?9panama?$AA@ 004e2990     LIBCMTD:getqloc.obj
 0003:000109a4       ??_C@_0BC@IHOHGAIL@spanish?9nicaragua?$AA@ 004e29a4     LIBCMTD:getqloc.obj
 0003:000109bc       ??_C@_0P@KLMJDNFJ@spanish?9modern?$AA@ 004e29bc     LIBCMTD:getqloc.obj
 0003:000109d0       ??_C@_0BA@BPAPGBCM@spanish?9mexican?$AA@ 004e29d0     LIBCMTD:getqloc.obj
 0003:000109e4       ??_C@_0BB@PDECHHHE@spanish?9honduras?$AA@ 004e29e4     LIBCMTD:getqloc.obj
 0003:000109f8       ??_C@_0BC@KLHKFGDB@spanish?9guatemala?$AA@ 004e29f8     LIBCMTD:getqloc.obj
 0003:00010a10       ??_C@_0BE@MFOOKJAI@spanish?9el?5salvador?$AA@ 004e2a10     LIBCMTD:getqloc.obj
 0003:00010a28       ??_C@_0BA@FCOKFPFC@spanish?9ecuador?$AA@ 004e2a28     LIBCMTD:getqloc.obj
 0003:00010a3c       ??_C@_0BL@PLMGIMOO@spanish?9dominican?5republic?$AA@ 004e2a3c     LIBCMTD:getqloc.obj
 0003:00010a5c       ??_C@_0BD@HLGDNMHB@spanish?9costa?5rica?$AA@ 004e2a5c     LIBCMTD:getqloc.obj
 0003:00010a74       ??_C@_0BB@PKCBKCPE@spanish?9colombia?$AA@ 004e2a74     LIBCMTD:getqloc.obj
 0003:00010a88       ??_C@_0O@MCBIJGNE@spanish?9chile?$AA@ 004e2a88     LIBCMTD:getqloc.obj
 0003:00010a98       ??_C@_0BA@BEFEIGJJ@spanish?9bolivia?$AA@ 004e2a98     LIBCMTD:getqloc.obj
 0003:00010aac       ??_C@_0BC@EMECMPD@spanish?9argentina?$AA@ 004e2aac     LIBCMTD:getqloc.obj
 0003:00010ac4       ??_C@_0BF@EALFLENP@portuguese?9brazilian?$AA@ 004e2ac4     LIBCMTD:getqloc.obj
 0003:00010ae0       ??_C@_0BC@HBLEBLNN@norwegian?9nynorsk?$AA@ 004e2ae0     LIBCMTD:getqloc.obj
 0003:00010af8       ??_C@_0BB@HMACDDCK@norwegian?9bokmal?$AA@ 004e2af8     LIBCMTD:getqloc.obj
 0003:00010b0c       ??_C@_09BAFFPPHE@norwegian?$AA@ 004e2b0c     LIBCMTD:getqloc.obj
 0003:00010b18       ??_C@_0O@EAJFJDFG@italian?9swiss?$AA@ 004e2b18     LIBCMTD:getqloc.obj
 0003:00010b28       ??_C@_0O@CNOMPGD@irish?9english?$AA@ 004e2b28     LIBCMTD:getqloc.obj
 0003:00010b38       ??_C@_0N@EDHBGCKG@german?9swiss?$AA@ 004e2b38     LIBCMTD:getqloc.obj
 0003:00010b48       ??_C@_0BC@JACMHNBP@german?9luxembourg?$AA@ 004e2b48     LIBCMTD:getqloc.obj
 0003:00010b60       ??_C@_0BE@HBGMGFEG@german?9lichtenstein?$AA@ 004e2b60     LIBCMTD:getqloc.obj
 0003:00010b78       ??_C@_0BA@HKKBIBKL@german?9austrian?$AA@ 004e2b78     LIBCMTD:getqloc.obj
 0003:00010b8c       ??_C@_0N@GCAEPEBK@french?9swiss?$AA@ 004e2b8c     LIBCMTD:getqloc.obj
 0003:00010b9c       ??_C@_0BC@DJFJJCK@french?9luxembourg?$AA@ 004e2b9c     LIBCMTD:getqloc.obj
 0003:00010bb4       ??_C@_0BA@NNCEDFIC@french?9canadian?$AA@ 004e2bb4     LIBCMTD:getqloc.obj
 0003:00010bc8       ??_C@_0P@CMPOCLM@french?9belgian?$AA@ 004e2bc8     LIBCMTD:getqloc.obj
 0003:00010bdc       ??_C@_0M@GHHDJOK@english?9usa?$AA@ 004e2bdc     LIBCMTD:getqloc.obj
 0003:00010bec       ??_C@_0L@PLDJKEIL@english?9us?$AA@ 004e2bec     LIBCMTD:getqloc.obj
 0003:00010bfc       ??_C@_0L@HJCCDMNC@english?9uk?$AA@ 004e2bfc     LIBCMTD:getqloc.obj
 0003:00010c0c       ??_C@_0BK@CKLIAGJB@english?9trinidad?5y?5tobago?$AA@ 004e2c0c     LIBCMTD:getqloc.obj
 0003:00010c2c       ??_C@_0BF@JMJMGNNF@english?9south?5africa?$AA@ 004e2c2c     LIBCMTD:getqloc.obj
 0003:00010c48       ??_C@_0L@DKIIFDFD@english?9nz?$AA@ 004e2c48     LIBCMTD:getqloc.obj
 0003:00010c58       ??_C@_0BA@ONHGJCLH@english?9jamaica?$AA@ 004e2c58     LIBCMTD:getqloc.obj
 0003:00010c6c       ??_C@_0M@HJBGHOPO@english?9ire?$AA@ 004e2c6c     LIBCMTD:getqloc.obj
 0003:00010c7c       ??_C@_0BC@LFEKMIFB@english?9caribbean?$AA@ 004e2c7c     LIBCMTD:getqloc.obj
 0003:00010c94       ??_C@_0M@OLDPFKHI@english?9can?$AA@ 004e2c94     LIBCMTD:getqloc.obj
 0003:00010ca4       ??_C@_0P@OMDEHBMP@english?9belize?$AA@ 004e2ca4     LIBCMTD:getqloc.obj
 0003:00010cb8       ??_C@_0M@KFHFPFED@english?9aus?$AA@ 004e2cb8     LIBCMTD:getqloc.obj
 0003:00010cc8       ??_C@_0BB@MNMBKDFE@english?9american?$AA@ 004e2cc8     LIBCMTD:getqloc.obj
 0003:00010cdc       ??_C@_0O@KIDLNNBA@dutch?9belgian?$AA@ 004e2cdc     LIBCMTD:getqloc.obj
 0003:00010cec       ??_C@_0BE@JBKABBMH@chinese?9traditional?$AA@ 004e2cec     LIBCMTD:getqloc.obj
 0003:00010d04       ??_C@_0BC@MJJMPKCG@chinese?9singapore?$AA@ 004e2d04     LIBCMTD:getqloc.obj
 0003:00010d1c       ??_C@_0BD@FDKADDCP@chinese?9simplified?$AA@ 004e2d1c     LIBCMTD:getqloc.obj
 0003:00010d34       ??_C@_0BB@DBEFDDME@chinese?9hongkong?$AA@ 004e2d34     LIBCMTD:getqloc.obj
 0003:00010d48       ??_C@_07DHNMFMCI@chinese?$AA@ 004e2d48     LIBCMTD:getqloc.obj
 0003:00010d54       ??_C@_03FNDDCHI@chi?$AA@   004e2d54     LIBCMTD:getqloc.obj
 0003:00010d58       ??_C@_03BMMIADDJ@chh?$AA@  004e2d58     LIBCMTD:getqloc.obj
 0003:00010d5c       ??_C@_08OAIPJDGI@canadian?$AA@ 004e2d5c     LIBCMTD:getqloc.obj
 0003:00010d68       ??_C@_07HBPMNPNJ@belgian?$AA@ 004e2d68     LIBCMTD:getqloc.obj
 0003:00010d74       ??_C@_0L@OEKOPBEL@australian?$AA@ 004e2d74     LIBCMTD:getqloc.obj
 0003:00010d84       ??_C@_0BB@MEIMBEDG@american?9english?$AA@ 004e2d84     LIBCMTD:getqloc.obj
 0003:00010d98       ??_C@_0BB@DFMDPDGB@american?5english?$AA@ 004e2d98     LIBCMTD:getqloc.obj
 0003:00010dac       ??_C@_08IJLOKOLL@american?$AA@ 004e2dac     LIBCMTD:getqloc.obj
 0003:00010db8       ___rg_language             004e2db8     LIBCMTD:getqloc.obj
 0003:00011028       ___rg_country              004e3028     LIBCMTD:getqloc.obj
 0003:00011104       ___rglangidNotDefault      004e3104     LIBCMTD:getqloc.obj
 0003:0001111c       ??_C@_0BC@NFIEMBLL@Norwegian?9Nynorsk?$AA@ 004e311c     LIBCMTD:getqloc.obj
 0003:00011138       ??_C@_1OM@OECHDGCF@?$AAs?$AAt?$AAr?$AAc?$AAp?$AAy?$AA_?$AAs?$AA?$CI?$AAl?$AAp?$AAO?$AAu?$AAt?$AAS?$AAt?$AAr?$AA?9?$AA?$DO?$AAs?$AAz?$AAL?$AAa?$AAn?$AAg?$AAu?$AAa?$AAg?$AAe?$AA?0?$AA?5?$AA?$CI@ 004e3138     LIBCMTD:getqloc.obj
 0003:00011254       ??_C@_1CO@NJACLALJ@?$AA_?$AA_?$AAg?$AAe?$AAt?$AA_?$AAq?$AAu?$AAa?$AAl?$AAi?$AAf?$AAi?$AAe?$AAd?$AA_?$AAl?$AAo?$AAc?$AAa?$AAl?$AAe?$AA?$AA@ 004e3254     LIBCMTD:getqloc.obj
 0003:0001128c       ??_C@_1BE@GIJNDGB@?$AAg?$AAe?$AAt?$AAq?$AAl?$AAo?$AAc?$AA?4?$AAc?$AA?$AA@ 004e328c     LIBCMTD:getqloc.obj
 0003:000112a4       ??_C@_03NFKLAGEF@OCP?$AA@  004e32a4     LIBCMTD:getqloc.obj
 0003:000112a8       ??_C@_03DFHEHBHG@ACP?$AA@  004e32a8     LIBCMTD:getqloc.obj
 0003:000112ac       ??_C@_1O@CEDCILHN@?$AA?$CI?$AAn?$AAu?$AAl?$AAl?$AA?$CJ?$AA?$AA@ 004e32ac     LIBCMTD:output.obj
 0003:000112bc       ??_C@_06OJHGLDPL@?$CInull?$CJ?$AA@ 004e32bc     LIBCMTD:output.obj
 0003:000112c8       ___lookuptable             004e32c8     LIBCMTD:output.obj
 0003:00011334       ??_C@_08MEPFMIND@output?4c?$AA@ 004e3334     LIBCMTD:output.obj
 0003:00011340       ??_C@_1CC@IFFHEMNF@?$AA?$CI?$AAc?$AAh?$AA?5?$AA?$CB?$AA?$DN?$AA?5?$AA_?$AAT?$AA?$CI?$AA?8?$AA?2?$AA0?$AA?8?$AA?$CJ?$AA?$CJ?$AA?$AA@ 004e3340     LIBCMTD:output.obj
 0003:00011368       ??_C@_1BE@IONLIDNC@?$AA_?$AAo?$AAu?$AAt?$AAp?$AAu?$AAt?$AA_?$AAl?$AA?$AA@ 004e3368     LIBCMTD:output.obj
 0003:00011380       ??_C@_1BC@NHKJGCDC@?$AAo?$AAu?$AAt?$AAp?$AAu?$AAt?$AA?4?$AAc?$AA?$AA@ 004e3380     LIBCMTD:output.obj
 0003:00011398       ??_C@_1BI@IGILPKD@?$AA_?$AAv?$AAs?$AAp?$AAr?$AAi?$AAn?$AAt?$AAf?$AA_?$AAl?$AA?$AA@ 004e3398     LIBCMTD:vsprintf.obj
 0003:000113b4       ??_C@_1BG@CBDPIEBA@?$AAv?$AAs?$AAp?$AAr?$AAi?$AAn?$AAt?$AAf?$AA?4?$AAc?$AA?$AA@ 004e33b4     LIBCMTD:vsprintf.obj
 0003:000113d0       ??_C@_1CE@HMKDJHB@?$AA_?$AAv?$AAs?$AAc?$AAp?$AAr?$AAi?$AAn?$AAt?$AAf?$AA_?$AAh?$AAe?$AAl?$AAp?$AAe?$AAr?$AA?$AA@ 004e33d0     LIBCMTD:vsprintf.obj
 0003:000113fc       ??_C@_1BA@NGNGNDEP@?$AA_?$AAc?$AAp?$AAu?$AAt?$AAw?$AAs?$AA?$AA@ 004e33fc     LIBCMTD:putwch.obj
 0003:00011410       ??_C@_1BC@HKEJKGAG@?$AAp?$AAu?$AAt?$AAw?$AAc?$AAh?$AA?4?$AAc?$AA?$AA@ 004e3410     LIBCMTD:putwch.obj
 0003:00011428       ??_C@_1BA@LEBDGIHM@?$AA_?$AAi?$AAs?$AAa?$AAt?$AAt?$AAy?$AA?$AA@ 004e3428     LIBCMTD:isatty.obj
 0003:0001143c       ??_C@_1BC@BPJEKAMC@?$AAi?$AAs?$AAa?$AAt?$AAt?$AAy?$AA?4?$AAc?$AA?$AA@ 004e343c     LIBCMTD:isatty.obj
 0003:00011454       ??_C@_1BE@KHFBJMNM@?$AA_?$AAl?$AAs?$AAe?$AAe?$AAk?$AAi?$AA6?$AA4?$AA?$AA@ 004e3454     LIBCMTD:lseeki64.obj
 0003:0001146c       ??_C@_1BG@NGOGNEMB@?$AAl?$AAs?$AAe?$AAe?$AAk?$AAi?$AA6?$AA4?$AA?4?$AAc?$AA?$AA@ 004e346c     LIBCMTD:lseeki64.obj
 0003:00011488       ??_C@_1M@NHJOLLDM@?$AA_?$AAr?$AAe?$AAa?$AAd?$AA?$AA@ 004e3488     LIBCMTD:read.obj
 0003:00011498       ??_C@_1O@OLAFBHGM@?$AAr?$AAe?$AAa?$AAd?$AA?4?$AAc?$AA?$AA@ 004e3498     LIBCMTD:read.obj
 0003:000114a8       ??_C@_06CNEIBCEN@read?4c?$AA@ 004e34a8     LIBCMTD:read.obj
 0003:000114b0       ??_C@_1CG@OHLJHGGK@?$AA?$CI?$AAi?$AAn?$AAp?$AAu?$AAt?$AAb?$AAu?$AAf?$AA?5?$AA?$CB?$AA?$DN?$AA?5?$AAN?$AAU?$AAL?$AAL?$AA?$CJ?$AA?$AA@ 004e34b0     LIBCMTD:read.obj
 0003:000114e0       ??_C@_1BK@JJBHNDKJ@?$AA_?$AAr?$AAe?$AAa?$AAd?$AA_?$AAn?$AAo?$AAl?$AAo?$AAc?$AAk?$AA?$AA@ 004e34e0     LIBCMTD:read.obj
 0003:00011500       ??_C@_09PKAEMGHJ@_getbuf?4c?$AA@ 004e3500     LIBCMTD:_getbuf.obj
 0003:0001150c       ??_C@_1BE@DJANJIEH@?$AA_?$AAg?$AAe?$AAt?$AAb?$AAu?$AAf?$AA?4?$AAc?$AA?$AA@ 004e350c     LIBCMTD:_getbuf.obj
 0003:00011524       ??_C@_1BI@GALBKMKE@?$AA?$CI?$AAs?$AAi?$AAz?$AAe?$AA?5?$AA?$DO?$AA?$DN?$AA?5?$AA0?$AA?$CJ?$AA?$AA@ 004e3524     LIBCMTD:chsize.obj
 0003:00011540       ??_C@_1BE@MAFDNGED@?$AA_?$AAc?$AAh?$AAs?$AAi?$AAz?$AAe?$AA_?$AAs?$AA?$AA@ 004e3540     LIBCMTD:chsize.obj
 0003:00011558       ??_C@_1BC@JBFLHAGK@?$AAc?$AAh?$AAs?$AAi?$AAz?$AAe?$AA?4?$AAc?$AA?$AA@ 004e3558     LIBCMTD:chsize.obj
 0003:00011570       ??_C@_1O@EDOIKGHF@?$AA_?$AAl?$AAs?$AAe?$AAe?$AAk?$AA?$AA@ 004e3570     LIBCMTD:lseek.obj
 0003:00011580       ??_C@_1BA@FKCCIBB@?$AAl?$AAs?$AAe?$AAe?$AAk?$AA?4?$AAc?$AA?$AA@ 004e3580     LIBCMTD:lseek.obj
 0003:00011594       ??_C@_1DM@LMLOLGJ@?$AA?$CI?$AA?$CC?$AAI?$AAn?$AAv?$AAa?$AAl?$AAi?$AAd?$AA?5?$AAf?$AAi?$AAl?$AAe?$AA?5?$AAd?$AAe?$AAs?$AAc?$AAr?$AAi?$AAp?$AAt?$AAo?$AAr?$AA?$CC?$AA?0?$AA0?$AA?$CJ?$AA?$AA@ 004e3594     LIBCMTD:lseek.obj
 0003:000115dc       ??_C@_1BC@JBGGJDCM@?$AA_?$AAs?$AAe?$AAt?$AAm?$AAo?$AAd?$AAe?$AA?$AA@ 004e35dc     LIBCMTD:setmode.obj
 0003:000115f4       ??_C@_1BE@KNPEBONM@?$AAs?$AAe?$AAt?$AAm?$AAo?$AAd?$AAe?$AA?4?$AAc?$AA?$AA@ 004e35f4     LIBCMTD:setmode.obj
 0003:00011610       ??_C@_1OA@HGPJIFPM@?$AA?$CI?$AA?$CI?$AAm?$AAo?$AAd?$AAe?$AA?5?$AA?$DN?$AA?$DN?$AA?5?$AA_?$AAO?$AA_?$AAT?$AAE?$AAX?$AAT?$AA?$CJ?$AA?5?$AA?$HM?$AA?$HM?$AA?5?$AA?$CI?$AAm?$AAo?$AAd?$AAe?$AA?5?$AA?$DN?$AA?$DN?$AA?5?$AA_@ 004e3610     LIBCMTD:setmode.obj
 0003:0001171c       ??_C@_1BG@IEEHLOCL@?$AA_?$AAs?$AAe?$AAt?$AA_?$AAf?$AAm?$AAo?$AAd?$AAe?$AA?$AA@ 004e371c     LIBCMTD:setmode.obj
 0003:00011738       ??_C@_1IC@NDCJMLB@?$AA?$CI?$AA?$CI?$AAm?$AAo?$AAd?$AAe?$AA?5?$AA?$DN?$AA?$DN?$AA?5?$AA_?$AAO?$AA_?$AAT?$AAE?$AAX?$AAT?$AA?$CJ?$AA?5?$AA?$HM?$AA?$HM?$AA?5?$AA?$CI?$AAm?$AAo?$AAd?$AAe?$AA?5?$AA?$DN?$AA?$DN?$AA?5?$AA_@ 004e3738     LIBCMTD:setmode.obj
 0003:000117d4       ??_C@_1BG@CKGMPOFH@?$AA_?$AAg?$AAe?$AAt?$AA_?$AAf?$AAm?$AAo?$AAd?$AAe?$AA?$AA@ 004e37d4     LIBCMTD:setmode.obj
 0003:000117f0       ??_C@_1CA@GPIGPPFN@?$AA?$CI?$AAp?$AAM?$AAo?$AAd?$AAe?$AA?5?$AA?$CB?$AA?$DN?$AA?5?$AAN?$AAU?$AAL?$AAL?$AA?$CJ?$AA?$AA@ 004e37f0     LIBCMTD:setmode.obj
 0003:00011818       ??_C@_1BG@GLLONOEH@?$AA_?$AAs?$AAt?$AAr?$AAi?$AAc?$AAm?$AAp?$AA_?$AAl?$AA?$AA@ 004e3818     LIBCMTD:stricmp.obj
 0003:00011834       ??_C@_1BE@OLHMELNO@?$AAs?$AAt?$AAr?$AAi?$AAc?$AAm?$AAp?$AA?4?$AAc?$AA?$AA@ 004e3834     LIBCMTD:stricmp.obj
 0003:0001184c       ??_C@_1BC@JLGKKIIG@?$AA_?$AAs?$AAt?$AAr?$AAi?$AAc?$AAm?$AAp?$AA?$AA@ 004e384c     LIBCMTD:stricmp.obj
 0003:00011864       ?commonFlags@?1??_control87@@9@9 004e3864     LIBCMTD:ieee87.obj
 0003:00011868       ??_C@_1GO@OKJGOMCB@?$AA_?$AAc?$AAo?$AAn?$AAt?$AAr?$AAo?$AAl?$AAf?$AAp?$AA_?$AAs?$AA?$CI?$AA?$CI?$AA?$CI?$AAv?$AAo?$AAi?$AAd?$AA?5?$AA?$CK?$AA?$CJ?$AA0?$AA?$CJ?$AA?0?$AA?5?$AAn?$AAe?$AAw?$AAc?$AAt?$AAr@ 004e3868     LIBCMTD:ieee87.obj
 0003:000118ec       ??_C@_1BO@OFDNCLL@?$AA_?$AAs?$AAe?$AAt?$AA_?$AAc?$AAo?$AAn?$AAt?$AAr?$AAo?$AAl?$AAf?$AAp?$AA?$AA@ 004e38ec     LIBCMTD:ieee87.obj
 0003:00011910       ??_C@_1BM@PNOCKIGC@?$AAi?$AA3?$AA8?$AA6?$AA?2?$AAi?$AAe?$AAe?$AAe?$AA8?$AA7?$AA?4?$AAc?$AA?$AA@ 004e3910     LIBCMTD:ieee87.obj
 0003:00011934       ??_C@_1BO@IHLJHOPI@?$AA_?$AA_?$AAs?$AAt?$AAr?$AAg?$AAt?$AAo?$AAl?$AAd?$AA1?$AA2?$AA_?$AAl?$AA?$AA@ 004e3934     LIBCMTD:strgtold.obj
 0003:00011958       ??_C@_1DE@JLGAJID@?$AA?4?$AA?4?$AA?1?$AAi?$AAn?$AAc?$AAl?$AAu?$AAd?$AAe?$AA?2?$AAs?$AAt?$AAr?$AAg?$AAt?$AAo?$AAl?$AAd?$AA1?$AA2?$AA?4?$AAi?$AAn?$AAl?$AA?$AA@ 004e3958     LIBCMTD:strgtold.obj
 0003:00011998       ??_C@_1CA@MBDBOHIB@?$AA_?$AAL?$AAo?$AAc?$AAa?$AAl?$AAe?$AA?5?$AA?$CB?$AA?$DN?$AA?5?$AAN?$AAU?$AAL?$AAL?$AA?$AA@ 004e3998     LIBCMTD:strgtold.obj
 0003:000119c0       ??_C@_06IMKFLFPG@1?$CDQNAN?$AA@ 004e39c0     LIBCMTD:x10fout.obj
 0003:000119c8       ??_C@_1EG@MCFPJJEM@?$AAs?$AAt?$AAr?$AAc?$AAp?$AAy?$AA_?$AAs?$AA?$CI?$AAf?$AAo?$AAs?$AA?9?$AA?$DO?$AAm?$AAa?$AAn?$AA?0?$AA?5?$AA2?$AA1?$AA?$CL?$AA1?$AA?0?$AA?5?$AA?$CC?$AA1?$AA?$CD?$AAQ?$AAN?$AAA?$AAN@ 004e39c8     LIBCMTD:x10fout.obj
 0003:00011a1c       ??_C@_05DNEBIAHO@1?$CDINF?$AA@ 004e3a1c     LIBCMTD:x10fout.obj
 0003:00011a28       ??_C@_1EE@ICBBBPAI@?$AAs?$AAt?$AAr?$AAc?$AAp?$AAy?$AA_?$AAs?$AA?$CI?$AAf?$AAo?$AAs?$AA?9?$AA?$DO?$AAm?$AAa?$AAn?$AA?0?$AA?5?$AA2?$AA1?$AA?$CL?$AA1?$AA?0?$AA?5?$AA?$CC?$AA1?$AA?$CD?$AAI?$AAN?$AAF?$AA?$CC@ 004e3a28     LIBCMTD:x10fout.obj
 0003:00011a7c       ??_C@_05PHHOCPM@1?$CDIND?$AA@ 004e3a7c     LIBCMTD:x10fout.obj
 0003:00011a88       ??_C@_1EE@MADEBIHF@?$AAs?$AAt?$AAr?$AAc?$AAp?$AAy?$AA_?$AAs?$AA?$CI?$AAf?$AAo?$AAs?$AA?9?$AA?$DO?$AAm?$AAa?$AAn?$AA?0?$AA?5?$AA2?$AA1?$AA?$CL?$AA1?$AA?0?$AA?5?$AA?$CC?$AA1?$AA?$CD?$AAI?$AAN?$AAD?$AA?$CC@ 004e3a88     LIBCMTD:x10fout.obj
 0003:00011adc       ??_C@_06PGGFOGJG@1?$CDSNAN?$AA@ 004e3adc     LIBCMTD:x10fout.obj
 0003:00011ae8       ??_C@_1EG@CDDBFNOB@?$AAs?$AAt?$AAr?$AAc?$AAp?$AAy?$AA_?$AAs?$AA?$CI?$AAf?$AAo?$AAs?$AA?9?$AA?$DO?$AAm?$AAa?$AAn?$AA?0?$AA?5?$AA2?$AA1?$AA?$CL?$AA1?$AA?0?$AA?5?$AA?$CC?$AA1?$AA?$CD?$AAS?$AAN?$AAA?$AAN@ 004e3ae8     LIBCMTD:x10fout.obj
 0003:00011b3c       ??_C@_1BI@ELMAAFLN@?$AA$?$AAI?$AA1?$AA0?$AA_?$AAO?$AAU?$AAT?$AAP?$AAU?$AAT?$AA?$AA@ 004e3b3c     LIBCMTD:x10fout.obj
 0003:00011b58       ??_C@_1BE@MNAKCECJ@?$AAx?$AA1?$AA0?$AAf?$AAo?$AAu?$AAt?$AA?4?$AAc?$AA?$AA@ 004e3b58     LIBCMTD:x10fout.obj
 0003:00011b70       ___lookuptable_s           004e3b70     LIBCMTD:outputs.obj
 0003:00011be0       ??_C@_1FK@LNCFKALM@?$AA?$CI?$AA?$CI?$AAs?$AAt?$AAa?$AAt?$AAe?$AA?5?$AA?$DN?$AA?$DN?$AA?5?$AAS?$AAT?$AA_?$AAN?$AAO?$AAR?$AAM?$AAA?$AAL?$AA?$CJ?$AA?5?$AA?$HM?$AA?$HM?$AA?5?$AA?$CI?$AAs?$AAt?$AAa?$AAt?$AAe?$AA?5@ 004e3be0     LIBCMTD:outputs.obj
 0003:00011c4c       ??_C@_1CM@IEGCDOKE@?$AA?$CI?$AAs?$AAt?$AAa?$AAt?$AAe?$AA?5?$AA?$CB?$AA?$DN?$AA?5?$AAS?$AAT?$AA_?$AAI?$AAN?$AAV?$AAA?$AAL?$AAI?$AAD?$AA?$CJ?$AA?$AA@ 004e3c4c     LIBCMTD:outputs.obj
 0003:00011c80       ??_C@_1BI@COFBLHCG@?$AA_?$AAo?$AAu?$AAt?$AAp?$AAu?$AAt?$AA_?$AAs?$AA_?$AAl?$AA?$AA@ 004e3c80     LIBCMTD:outputs.obj
 0003:00011ca0       ??_C@_1FK@BCPANIEK@?$AA?$CI?$AA?$CC?$AAM?$AAi?$AAs?$AAs?$AAi?$AAn?$AAg?$AA?5?$AAp?$AAo?$AAs?$AAi?$AAt?$AAi?$AAo?$AAn?$AA?5?$AAi?$AAn?$AA?5?$AAt?$AAh?$AAe?$AA?5?$AAf?$AAo?$AAr?$AAm?$AAa?$AAt@ 004e3ca0     LIBCMTD:outputp.obj
 0003:00011d10       ??_C@_1JC@OACKELNN@?$AA_?$AAt?$AAv?$AAa?$AAl?$AAi?$AAd?$AAa?$AAt?$AAe?$AA_?$AAp?$AAa?$AAr?$AAa?$AAm?$AA_?$AAr?$AAe?$AAu?$AAs?$AAe?$AA?$CI?$AA?$CG?$AAp?$AAo?$AAs?$AA_?$AAv?$AAa?$AAl?$AAu@ 004e3d10     LIBCMTD:outputp.obj
 0003:00011dc0       ??_C@_1IK@NBGDDCBN@?$AA_?$AAt?$AAv?$AAa?$AAl?$AAi?$AAd?$AAa?$AAt?$AAe?$AA_?$AAp?$AAa?$AAr?$AAa?$AAm?$AA_?$AAr?$AAe?$AAu?$AAs?$AAe?$AA?$CI?$AA?$CG?$AAp?$AAo?$AAs?$AA_?$AAv?$AAa?$AAl?$AAu@ 004e3dc0     LIBCMTD:outputp.obj
 0003:00011e68       ??_C@_1DG@GOHGNKHE@?$AAp?$AAa?$AAs?$AAs?$AA?5?$AA?$DN?$AA?$DN?$AA?5?$AAF?$AAO?$AAR?$AAM?$AAA?$AAT?$AA_?$AAO?$AAU?$AAT?$AAP?$AAU?$AAT?$AA_?$AAP?$AAA?$AAS?$AAS?$AA?$AA@ 004e3e68     LIBCMTD:outputp.obj
 0003:00011ea8       ??_C@_1IM@DNGHAPLB@?$AA_?$AAt?$AAv?$AAa?$AAl?$AAi?$AAd?$AAa?$AAt?$AAe?$AA_?$AAp?$AAa?$AAr?$AAa?$AAm?$AA_?$AAr?$AAe?$AAu?$AAs?$AAe?$AA?$CI?$AA?$CG?$AAp?$AAo?$AAs?$AA_?$AAv?$AAa?$AAl?$AAu@ 004e3ea8     LIBCMTD:outputp.obj
 0003:00011f50       ??_C@_1IG@HJIMKDHC@?$AA_?$AAt?$AAv?$AAa?$AAl?$AAi?$AAd?$AAa?$AAt?$AAe?$AA_?$AAp?$AAa?$AAr?$AAa?$AAm?$AA_?$AAr?$AAe?$AAu?$AAs?$AAe?$AA?$CI?$AA?$CG?$AAp?$AAo?$AAs?$AA_?$AAv?$AAa?$AAl?$AAu@ 004e3f50     LIBCMTD:outputp.obj
 0003:00011ff0       ??_C@_1IG@FDCPLALG@?$AA_?$AAt?$AAv?$AAa?$AAl?$AAi?$AAd?$AAa?$AAt?$AAe?$AA_?$AAp?$AAa?$AAr?$AAa?$AAm?$AA_?$AAr?$AAe?$AAu?$AAs?$AAe?$AA?$CI?$AA?$CG?$AAp?$AAo?$AAs?$AA_?$AAv?$AAa?$AAl?$AAu@ 004e3ff0     LIBCMTD:outputp.obj
 0003:00012090       ??_C@_1IK@MHEDJAMK@?$AA_?$AAt?$AAv?$AAa?$AAl?$AAi?$AAd?$AAa?$AAt?$AAe?$AA_?$AAp?$AAa?$AAr?$AAa?$AAm?$AA_?$AAr?$AAe?$AAu?$AAs?$AAe?$AA?$CI?$AA?$CG?$AAp?$AAo?$AAs?$AA_?$AAv?$AAa?$AAl?$AAu@ 004e4090     LIBCMTD:outputp.obj
 0003:00012138       ??_C@_1EM@BNPHBBIA@?$AA?$CI?$AA?$CI?$AAt?$AAy?$AAp?$AAe?$AA_?$AAp?$AAo?$AAs?$AA?$DO?$AA?$DN?$AA0?$AA?$CJ?$AA?5?$AA?$CG?$AA?$CG?$AA?5?$AA?$CI?$AAt?$AAy?$AAp?$AAe?$AA_?$AAp?$AAo?$AAs?$AA?$DM?$AA_?$AAA?$AAR?$AAG@ 004e4138     LIBCMTD:outputp.obj
 0003:00012198       ??_C@_1IK@EIEPDKHJ@?$AA_?$AAt?$AAv?$AAa?$AAl?$AAi?$AAd?$AAa?$AAt?$AAe?$AA_?$AAp?$AAa?$AAr?$AAa?$AAm?$AA_?$AAr?$AAe?$AAu?$AAs?$AAe?$AA?$CI?$AA?$CG?$AAp?$AAo?$AAs?$AA_?$AAv?$AAa?$AAl?$AAu@ 004e4198     LIBCMTD:outputp.obj
 0003:00012240       ??_C@_1JG@JBJBOCFB@?$AA?$CI?$AA?$CI?$AAp?$AAr?$AAe?$AAc?$AAi?$AAs?$AA_?$AAp?$AAo?$AAs?$AA?5?$AA?$DO?$AA?$DN?$AA?5?$AA0?$AA?$CJ?$AA?5?$AA?$CG?$AA?$CG?$AA?5?$AA?$CI?$AA?$CK?$AAe?$AAn?$AAd?$AA_?$AAp?$AAo?$AAs?$AA?5@ 004e4240     LIBCMTD:outputp.obj
 0003:000122f8       ??_C@_1II@PIPIMLPF@?$AA_?$AAt?$AAv?$AAa?$AAl?$AAi?$AAd?$AAa?$AAt?$AAe?$AA_?$AAp?$AAa?$AAr?$AAa?$AAm?$AA_?$AAr?$AAe?$AAu?$AAs?$AAe?$AA?$CI?$AA?$CG?$AAp?$AAo?$AAs?$AA_?$AAv?$AAa?$AAl?$AAu@ 004e42f8     LIBCMTD:outputp.obj
 0003:000123a0       ??_C@_1JE@NMBHOLFI@?$AA?$CI?$AA?$CI?$AAw?$AAi?$AAd?$AAt?$AAh?$AA_?$AAp?$AAo?$AAs?$AA?5?$AA?$DO?$AA?$DN?$AA?5?$AA0?$AA?$CJ?$AA?5?$AA?$CG?$AA?$CG?$AA?5?$AA?$CI?$AA?$CK?$AAe?$AAn?$AAd?$AA_?$AAp?$AAo?$AAs?$AA?5?$AA?$DN@ 004e43a0     LIBCMTD:outputp.obj
 0003:00012458       ??_C@_1JC@PFJNKEIO@?$AA?$CI?$AA?$CI?$AAt?$AAy?$AAp?$AAe?$AA_?$AAp?$AAo?$AAs?$AA?5?$AA?$DO?$AA?$DN?$AA?5?$AA0?$AA?$CJ?$AA?5?$AA?$CG?$AA?$CG?$AA?5?$AA?$CI?$AA?$CK?$AAe?$AAn?$AAd?$AA_?$AAp?$AAo?$AAs?$AA?5?$AA?$DN?$AA?$DN@ 004e4458     LIBCMTD:outputp.obj
 0003:00012508       ??_C@_1BI@KANOLAMF@?$AA_?$AAo?$AAu?$AAt?$AAp?$AAu?$AAt?$AA_?$AAp?$AA_?$AAl?$AA?$AA@ 004e4508     LIBCMTD:outputp.obj
 0003:00012524       ??_C@_1BK@ONMFGLDB@?$AA_?$AAw?$AAo?$AAu?$AAt?$AAp?$AAu?$AAt?$AA_?$AAs?$AA_?$AAl?$AA?$AA@ 004e4524     LIBCMTD:woutputs.obj
 0003:00012544       ??_C@_1BK@GDEKGMNC@?$AA_?$AAw?$AAo?$AAu?$AAt?$AAp?$AAu?$AAt?$AA_?$AAp?$AA_?$AAl?$AA?$AA@ 004e4544     LIBCMTD:woutputp.obj
 0003:00012564       ??_C@_1O@GKDHFACN@?$AAp?$AAr?$AAi?$AAn?$AAt?$AAf?$AA?$AA@ 004e4564     LIBCMTD:printf.obj
 0003:00012574       ??_C@_1BC@BHLBENIK@?$AAp?$AAr?$AAi?$AAn?$AAt?$AAf?$AA?4?$AAc?$AA?$AA@ 004e4574     LIBCMTD:printf.obj
 0003:0001258c       ??_C@_1O@HJNPHHHB@?$AAf?$AAp?$AAu?$AAt?$AAw?$AAc?$AA?$AA@ 004e458c     LIBCMTD:fputwc.obj
 0003:0001259c       ??_C@_1BC@LJHBJFMP@?$AAf?$AAp?$AAu?$AAt?$AAw?$AAc?$AA?4?$AAc?$AA?$AA@ 004e459c     LIBCMTD:fputwc.obj
 0003:000125b4       ??_C@_1BM@HBMHMBEM@?$AA_?$AAm?$AAb?$AAs?$AAn?$AAb?$AAc?$AAp?$AAy?$AA_?$AAs?$AA_?$AAl?$AA?$AA@ 004e45b4     LIBCMTD:mbsnbcpy_s_l.obj
 0003:000125d8       ??_C@_1GM@DGPOPJNC@?$AAF?$AA?3?$AA?2?$AAR?$AAT?$AAM?$AA?2?$AAv?$AAc?$AAt?$AAo?$AAo?$AAl?$AAs?$AA?2?$AAc?$AAr?$AAt?$AA_?$AAb?$AAl?$AAd?$AA?2?$AAS?$AAE?$AAL?$AAF?$AA_?$AAX?$AA8?$AA6?$AA?2@ 004e45d8     LIBCMTD:mbsnbcpy_s_l.obj
 0003:0001265c       ??_C@_0L@KBNGFDKM@convrtcp?4c?$AA@ 004e465c     LIBCMTD:convrtcp.obj
 0003:0001266c       ___dnames                  004e466c     LIBCMTD:timeset.obj
 0003:00012684       ___mnames                  004e4684     LIBCMTD:timeset.obj
 0003:000126b8       ??_C@_1BM@FIMHBHEB@?$AA_?$AAg?$AAe?$AAt?$AA_?$AAd?$AAa?$AAy?$AAl?$AAi?$AAg?$AAh?$AAt?$AA?$AA@ 004e46b8     LIBCMTD:timeset.obj
 0003:000126dc       ??_C@_1BE@OINBFMF@?$AAt?$AAi?$AAm?$AAe?$AAs?$AAe?$AAt?$AA?4?$AAc?$AA?$AA@ 004e46dc     LIBCMTD:timeset.obj
 0003:000126f4       ??_C@_1CI@MKJEHFPG@?$AA?$CI?$AA_?$AAD?$AAa?$AAy?$AAl?$AAi?$AAg?$AAh?$AAt?$AA?5?$AA?$CB?$AA?$DN?$AA?5?$AAN?$AAU?$AAL?$AAL?$AA?$CJ?$AA?$AA@ 004e46f4     LIBCMTD:timeset.obj
 0003:00012724       ??_C@_1BK@EMODDHEE@?$AA_?$AAg?$AAe?$AAt?$AA_?$AAd?$AAs?$AAt?$AAb?$AAi?$AAa?$AAs?$AA?$AA@ 004e4724     LIBCMTD:timeset.obj
 0003:00012748       ??_C@_1EC@PKDJPAAB@?$AA?$CI?$AA_?$AAD?$AAa?$AAy?$AAl?$AAi?$AAg?$AAh?$AAt?$AA_?$AAs?$AAa?$AAv?$AAi?$AAn?$AAg?$AAs?$AA_?$AAb?$AAi?$AAa?$AAs?$AA?5?$AA?$CB?$AA?$DN?$AA?5?$AAN?$AAU?$AAL?$AAL?$AA?$CJ@ 004e4748     LIBCMTD:timeset.obj
 0003:00012798       ??_C@_1BM@MGEAKPEJ@?$AA_?$AAg?$AAe?$AAt?$AA_?$AAt?$AAi?$AAm?$AAe?$AAz?$AAo?$AAn?$AAe?$AA?$AA@ 004e4798     LIBCMTD:timeset.obj
 0003:000127bc       ??_C@_1CI@PODJJGAL@?$AA?$CI?$AA_?$AAT?$AAi?$AAm?$AAe?$AAz?$AAo?$AAn?$AAe?$AA?5?$AA?$CB?$AA?$DN?$AA?5?$AAN?$AAU?$AAL?$AAL?$AA?$CJ?$AA?$AA@ 004e47bc     LIBCMTD:timeset.obj
 0003:000127ec       ??_C@_1DG@HLGKANIP@?$AA_?$AAI?$AAn?$AAd?$AAe?$AAx?$AA?5?$AA?$DN?$AA?$DN?$AA?5?$AA0?$AA?5?$AA?$HM?$AA?$HM?$AA?5?$AA_?$AAI?$AAn?$AAd?$AAe?$AAx?$AA?5?$AA?$DN?$AA?$DN?$AA?5?$AA1?$AA?$AA@ 004e47ec     LIBCMTD:timeset.obj
 0003:0001282c       ??_C@_1CK@GBKHKEI@?$AA_?$AAR?$AAe?$AAt?$AAu?$AAr?$AAn?$AAV?$AAa?$AAl?$AAu?$AAe?$AA?5?$AA?$CB?$AA?$DN?$AA?5?$AAN?$AAU?$AAL?$AAL?$AA?$AA@ 004e482c     LIBCMTD:timeset.obj
 0003:00012860       ??_C@_1BI@BHCKCCFA@?$AA_?$AAg?$AAe?$AAt?$AA_?$AAt?$AAz?$AAn?$AAa?$AAm?$AAe?$AA?$AA@ 004e4860     LIBCMTD:timeset.obj
 0003:00012880       ??_C@_1KA@POFLNEC@?$AA?$CI?$AA_?$AAB?$AAu?$AAf?$AAf?$AAe?$AAr?$AA?5?$AA?$CB?$AA?$DN?$AA?5?$AAN?$AAU?$AAL?$AAL?$AA?5?$AA?$CG?$AA?$CG?$AA?5?$AA_?$AAS?$AAi?$AAz?$AAe?$AAI?$AAn?$AAB?$AAy?$AAt?$AAe?$AAs@ 004e4880     LIBCMTD:timeset.obj
 0003:00012940       ??_C@_1EA@GEPBEDLJ@?$AAs?$AAt?$AAr?$AAn?$AAc?$AAp?$AAy?$AA_?$AAs?$AA?$CI?$AAt?$AAz?$AAn?$AAa?$AAm?$AAe?$AA?$FL?$AA1?$AA?$FN?$AA?0?$AA?5?$AA6?$AA4?$AA?0?$AA?5?$AAT?$AAZ?$AA?0?$AA?5?$AA3?$AA?$CJ?$AA?$AA@ 004e4940     LIBCMTD:tzset.obj
 0003:00012990       ??_C@_1EA@FIJBKALB@?$AAs?$AAt?$AAr?$AAn?$AAc?$AAp?$AAy?$AA_?$AAs?$AA?$CI?$AAt?$AAz?$AAn?$AAa?$AAm?$AAe?$AA?$FL?$AA0?$AA?$FN?$AA?0?$AA?5?$AA6?$AA4?$AA?0?$AA?5?$AAT?$AAZ?$AA?0?$AA?5?$AA3?$AA?$CJ?$AA?$AA@ 004e4990     LIBCMTD:tzset.obj
 0003:000129e0       ??_C@_1EK@MCAIMDPB@?$AAs?$AAt?$AAr?$AAc?$AAp?$AAy?$AA_?$AAs?$AA?$CI?$AAl?$AAa?$AAs?$AAt?$AAT?$AAZ?$AA?0?$AA?5?$AAs?$AAt?$AAr?$AAl?$AAe?$AAn?$AA?$CI?$AAT?$AAZ?$AA?$CJ?$AA?5?$AA?$CL?$AA?5?$AA1?$AA?0@ 004e49e0     LIBCMTD:tzset.obj
 0003:00012a38       ??_C@_07LOOFNDIO@tzset?4c?$AA@ 004e4a38     LIBCMTD:tzset.obj
 0003:00012a44       ??_C@_02CLFPBFFP@TZ?$AA@   004e4a44     LIBCMTD:tzset.obj
 0003:00012a48       ??_C@_1CO@IMMOMMCB@?$AA_?$AAg?$AAe?$AAt?$AA_?$AAd?$AAs?$AAt?$AAb?$AAi?$AAa?$AAs?$AA?$CI?$AA?$CG?$AAd?$AAs?$AAt?$AAb?$AAi?$AAa?$AAs?$AA?$CJ?$AA?$AA@ 004e4a48     LIBCMTD:tzset.obj
 0003:00012a80       ??_C@_1DC@MEHEMOPB@?$AA_?$AAg?$AAe?$AAt?$AA_?$AAd?$AAa?$AAy?$AAl?$AAi?$AAg?$AAh?$AAt?$AA?$CI?$AA?$CG?$AAd?$AAa?$AAy?$AAl?$AAi?$AAg?$AAh?$AAt?$AA?$CJ?$AA?$AA@ 004e4a80     LIBCMTD:tzset.obj
 0003:00012abc       ??_C@_1DC@CMKCHHFC@?$AA_?$AAg?$AAe?$AAt?$AA_?$AAt?$AAi?$AAm?$AAe?$AAz?$AAo?$AAn?$AAe?$AA?$CI?$AA?$CG?$AAt?$AAi?$AAm?$AAe?$AAz?$AAo?$AAn?$AAe?$AA?$CJ?$AA?$AA@ 004e4abc     LIBCMTD:tzset.obj
 0003:00012af8       ??_C@_1BM@IIODHMJC@?$AA_?$AAt?$AAz?$AAs?$AAe?$AAt?$AA_?$AAn?$AAo?$AAl?$AAo?$AAc?$AAk?$AA?$AA@ 004e4af8     LIBCMTD:tzset.obj
 0003:00012b1c       ??_C@_1BA@HIHOBNBL@?$AAt?$AAz?$AAs?$AAe?$AAt?$AA?4?$AAc?$AA?$AA@ 004e4b1c     LIBCMTD:tzset.obj
 0003:00012b30       ??_C@_1CA@GOLIIEDM@?$AA_?$AAi?$AAs?$AAi?$AAn?$AAd?$AAs?$AAt?$AA_?$AAn?$AAo?$AAl?$AAo?$AAc?$AAk?$AA?$AA@ 004e4b30     LIBCMTD:tzset.obj
 0003:00012b58       ??_C@_1BA@GOCKIDGO@?$AAc?$AAv?$AAt?$AAd?$AAa?$AAt?$AAe?$AA?$AA@ 004e4b58     LIBCMTD:tzset.obj
 0003:00012b6c       ??_C@_1CC@JLPHKJPH@?$AAc?$AAo?$AAu?$AAn?$AAt?$AA?5?$AA?$DM?$AA?$DN?$AA?5?$AAI?$AAN?$AAT?$AA_?$AAM?$AAA?$AAX?$AA?$AA@ 004e4b6c     LIBCMTD:strnicmp.obj
 0003:00012b94       ??_C@_1BI@BJLEPLEF@?$AA_?$AAs?$AAt?$AAr?$AAn?$AAi?$AAc?$AAm?$AAp?$AA_?$AAl?$AA?$AA@ 004e4b94     LIBCMTD:strnicmp.obj
 0003:00012bb0       ??_C@_1BG@DAODMAPG@?$AAs?$AAt?$AAr?$AAn?$AAi?$AAc?$AAm?$AAp?$AA?4?$AAc?$AA?$AA@ 004e4bb0     LIBCMTD:strnicmp.obj
 0003:00012bcc       ??_C@_1BE@BHJDFFNA@?$AA_?$AAs?$AAt?$AAr?$AAn?$AAi?$AAc?$AAm?$AAp?$AA?$AA@ 004e4bcc     LIBCMTD:strnicmp.obj
 0003:00012be4       ??_C@_1BI@IEADNOHF@?$AA_?$AAw?$AAc?$AAt?$AAo?$AAm?$AAb?$AA_?$AAs?$AA_?$AAl?$AA?$AA@ 004e4be4     LIBCMTD:wctomb.obj
 0003:00012c00       ??_C@_1BC@KLMMEMGB@?$AAw?$AAc?$AAt?$AAo?$AAm?$AAb?$AA?4?$AAc?$AA?$AA@ 004e4c00     LIBCMTD:wctomb.obj
 0003:00012c18       ??_C@_1CO@HFMIILNF@?$AAs?$AAi?$AAz?$AAe?$AAI?$AAn?$AAB?$AAy?$AAt?$AAe?$AAs?$AA?5?$AA?$DM?$AA?$DN?$AA?5?$AAI?$AAN?$AAT?$AA_?$AAM?$AAA?$AAX?$AA?$AA@ 004e4c18     LIBCMTD:wctomb.obj
 0003:00012c50       ??_C@_1FE@CEHLKAHD@?$AAi?$AAb?$AAa?$AAs?$AAe?$AA?5?$AA?$DN?$AA?$DN?$AA?5?$AA0?$AA?5?$AA?$HM?$AA?$HM?$AA?5?$AA?$CI?$AA2?$AA?5?$AA?$DM?$AA?$DN?$AA?5?$AAi?$AAb?$AAa?$AAs?$AAe?$AA?5?$AA?$CG?$AA?$CG?$AA?5?$AAi?$AAb?$AAa@ 004e4c50     LIBCMTD:strtol.obj
 0003:00012cb4       ??_C@_1BA@LOLAMAJG@?$AAs?$AAt?$AAr?$AAt?$AAo?$AAx?$AAl?$AA?$AA@ 004e4cb4     LIBCMTD:strtol.obj
 0003:00012cc8       ??_C@_1BC@CPINJNMH@?$AAs?$AAt?$AAr?$AAt?$AAo?$AAl?$AA?4?$AAc?$AA?$AA@ 004e4cc8     LIBCMTD:strtol.obj
 0003:00012ce0       ??_C@_1BK@LAOAACLJ@?$AAn?$AAp?$AAt?$AAr?$AA?5?$AA?$CB?$AA?$DN?$AA?5?$AAN?$AAU?$AAL?$AAL?$AA?$AA@ 004e4ce0     LIBCMTD:strtol.obj
 0003:00012d00       ??_C@_1BA@BMMDEPNE@?$AAs?$AAt?$AAr?$AAt?$AAo?$AAx?$AAq?$AA?$AA@ 004e4d00     LIBCMTD:strtoq.obj
 0003:00012d14       ??_C@_1BC@MIDDLJDN@?$AAs?$AAt?$AAr?$AAt?$AAo?$AAq?$AA?4?$AAc?$AA?$AA@ 004e4d14     LIBCMTD:strtoq.obj
 0003:00012d2c       ??_C@_06GDENEHCP@CONIN$?$AA@ 004e4d2c     LIBCMTD:initcon.obj
 0003:00012d34       ??_C@_07GPDNMNG@CONOUT$?$AA@ 004e4d34     LIBCMTD:initcon.obj
 0003:00012d40       ??_C@_1BA@PCFLFGNC@?$AAw?$AAc?$AAs?$AAt?$AAo?$AAx?$AAl?$AA?$AA@ 004e4d40     LIBCMTD:wcstol.obj
 0003:00012d54       ??_C@_1BC@KCPEGNFM@?$AAw?$AAc?$AAs?$AAt?$AAo?$AAl?$AA?4?$AAc?$AA?$AA@ 004e4d54     LIBCMTD:wcstol.obj
 0003:00012d6c       ??_C@_09IFKHNCOH@_sftbuf?4c?$AA@ 004e4d6c     LIBCMTD:_sftbuf.obj
 0003:00012d78       ??_C@_1BE@DFMOKHKL@?$AA_?$AAs?$AAf?$AAt?$AAb?$AAu?$AAf?$AA?4?$AAc?$AA?$AA@ 004e4d78     LIBCMTD:_sftbuf.obj
 0003:00012d90       ??_C@_1CO@KCKAACMI@?$AAf?$AAl?$AAa?$AAg?$AA?5?$AA?$DN?$AA?$DN?$AA?5?$AA0?$AA?5?$AA?$HM?$AA?$HM?$AA?5?$AAf?$AAl?$AAa?$AAg?$AA?5?$AA?$DN?$AA?$DN?$AA?5?$AA1?$AA?$AA@ 004e4d90     LIBCMTD:_sftbuf.obj
 0003:00012dc8       ??_C@_1BO@JGFPDJCP@?$AAv?$AAp?$AAr?$AAi?$AAn?$AAt?$AAf?$AA_?$AAh?$AAe?$AAl?$AAp?$AAe?$AAr?$AA?$AA@ 004e4dc8     LIBCMTD:vprintf.obj
 0003:00012dec       ??_C@_1BE@DEJONPKH@?$AAv?$AAp?$AAr?$AAi?$AAn?$AAt?$AAf?$AA?4?$AAc?$AA?$AA@ 004e4dec     LIBCMTD:vprintf.obj
 0003:00012e08       ??_C@_1GE@DJLAMNDK@?$AAf?$AA?3?$AA?2?$AAr?$AAt?$AAm?$AA?2?$AAv?$AAc?$AAt?$AAo?$AAo?$AAl?$AAs?$AA?2?$AAc?$AAr?$AAt?$AA_?$AAb?$AAl?$AAd?$AA?2?$AAs?$AAe?$AAl?$AAf?$AA_?$AAx?$AA8?$AA6?$AA?2@ 004e4e08     LIBCMTD:_flswbuf.obj
 0003:00012e80       ??_C@_1FA@HILOOCMA@?$AA?$CI?$AA_?$AAt?$AAc?$AAs?$AAn?$AAl?$AAe?$AAn?$AA?$CI?$AAo?$AAp?$AAt?$AAi?$AAo?$AAn?$AA?0?$AA?5?$AA_?$AAM?$AAA?$AAX?$AA_?$AAE?$AAN?$AAV?$AA?$CJ?$AA?5?$AA?$DM?$AA?5?$AA_?$AAM@ 004e4e80     LIBCMTD:getenv.obj
 0003:00012ee0       ??_C@_1O@GMKGKCJO@?$AAg?$AAe?$AAt?$AAe?$AAn?$AAv?$AA?$AA@ 004e4ee0     LIBCMTD:getenv.obj
 0003:00012ef0       ??_C@_1BC@CPAPBFCO@?$AAg?$AAe?$AAt?$AAe?$AAn?$AAv?$AA?4?$AAc?$AA?$AA@ 004e4ef0     LIBCMTD:getenv.obj
 0003:00012f08       ??_C@_1CC@FKAOHHLO@?$AA?$CI?$AAo?$AAp?$AAt?$AAi?$AAo?$AAn?$AA?5?$AA?$CB?$AA?$DN?$AA?5?$AAN?$AAU?$AAL?$AAL?$AA?$CJ?$AA?$AA@ 004e4f08     LIBCMTD:getenv.obj
 0003:00012f30       ??_C@_1GI@JBIFPFJH@?$AA_?$AAt?$AAc?$AAs?$AAn?$AAl?$AAe?$AAn?$AA?$CI?$AA?$CK?$AAs?$AAe?$AAa?$AAr?$AAc?$AAh?$AA?5?$AA?$CL?$AA?5?$AAl?$AAe?$AAn?$AAg?$AAt?$AAh?$AA?5?$AA?$CL?$AA?5?$AA1?$AA?0?$AA?5?$AA_@ 004e4f30     LIBCMTD:getenv.obj
 0003:00012fb0       ??_C@_1EI@HHOBPCFK@?$AAs?$AAt?$AAr?$AAc?$AAp?$AAy?$AA_?$AAs?$AA?$CI?$AAb?$AAu?$AAf?$AAf?$AAe?$AAr?$AA?0?$AA?5?$AAs?$AAi?$AAz?$AAe?$AAI?$AAn?$AAT?$AAC?$AAh?$AAa?$AAr?$AAs?$AA?0?$AA?5?$AAs@ 004e4fb0     LIBCMTD:getenv.obj
 0003:00013008       ??_C@_1JM@NLPGJJPH@?$AA?$CI?$AAb?$AAu?$AAf?$AAf?$AAe?$AAr?$AA?5?$AA?$CB?$AA?$DN?$AA?5?$AAN?$AAU?$AAL?$AAL?$AA?5?$AA?$CG?$AA?$CG?$AA?5?$AAs?$AAi?$AAz?$AAe?$AAI?$AAn?$AAT?$AAC?$AAh?$AAa?$AAr?$AAs?$AA?5@ 004e5008     LIBCMTD:getenv.obj
 0003:000130c4       ??_C@_1CC@BAJKDIIF@?$AA_?$AAg?$AAe?$AAt?$AAe?$AAn?$AAv?$AA_?$AAs?$AA_?$AAh?$AAe?$AAl?$AAp?$AAe?$AAr?$AA?$AA@ 004e50c4     LIBCMTD:getenv.obj
 0003:000130ec       ??_C@_1CK@PIKDAOCL@?$AAp?$AAR?$AAe?$AAt?$AAu?$AAr?$AAn?$AAV?$AAa?$AAl?$AAu?$AAe?$AA?5?$AA?$CB?$AA?$DN?$AA?5?$AAN?$AAU?$AAL?$AAL?$AA?$AA@ 004e50ec     LIBCMTD:getenv.obj
 0003:00013120       ??_C@_1DM@GNKNEGJO@?$AAs?$AAt?$AAr?$AAc?$AAp?$AAy?$AA_?$AAs?$AA?$CI?$AA?$CK?$AAp?$AAB?$AAu?$AAf?$AAf?$AAe?$AAr?$AA?0?$AA?5?$AAs?$AAi?$AAz?$AAe?$AA?0?$AA?5?$AAs?$AAt?$AAr?$AA?$CJ?$AA?$AA@ 004e5120     LIBCMTD:getenv.obj
 0003:00013168       ??_C@_1CA@GDBKELOE@?$AAv?$AAa?$AAr?$AAn?$AAa?$AAm?$AAe?$AA?5?$AA?$CB?$AA?$DN?$AA?5?$AAN?$AAU?$AAL?$AAL?$AA?$AA@ 004e5168     LIBCMTD:getenv.obj
 0003:00013190       ??_C@_1CC@KPLOPIEM@?$AA_?$AAd?$AAu?$AAp?$AAe?$AAn?$AAv?$AA_?$AAs?$AA_?$AAh?$AAe?$AAl?$AAp?$AAe?$AAr?$AA?$AA@ 004e5190     LIBCMTD:getenv.obj
 0003:000131b8       ??_C@_1CA@FHNFMDOJ@?$AAp?$AAB?$AAu?$AAf?$AAf?$AAe?$AAr?$AA?5?$AA?$CB?$AA?$DN?$AA?5?$AAN?$AAU?$AAL?$AAL?$AA?$AA@ 004e51b8     LIBCMTD:getenv.obj
 0003:000131e0       ??_C@_1BM@FKNNDAHH@?$AA_?$AAm?$AAb?$AAs?$AAn?$AAb?$AAi?$AAc?$AAo?$AAl?$AAl?$AA_?$AAl?$AA?$AA@ 004e51e0     LIBCMTD:mbsnbico.obj
 0003:00013204       ??_C@_1BG@MHEMLGJO@?$AAm?$AAb?$AAs?$AAn?$AAb?$AAi?$AAc?$AAo?$AA?4?$AAc?$AA?$AA@ 004e5204     LIBCMTD:mbsnbico.obj
 0003:00013220       ??_C@_0L@CELCHBFJ@wtombenv?4c?$AA@ 004e5220     LIBCMTD:wtombenv.obj
 0003:00013230       ??_C@_1BA@DGECELNE@?$AAa?$AA_?$AAc?$AAm?$AAp?$AA?4?$AAc?$AA?$AA@ 004e5230     LIBCMTD:a_cmp.obj
 0003:00013248       ??_C@_1HK@ELDMAMK@?$AAc?$AAc?$AAh?$AAC?$AAo?$AAu?$AAn?$AAt?$AA1?$AA?$DN?$AA?$DN?$AA0?$AA?5?$AA?$CG?$AA?$CG?$AA?5?$AAc?$AAc?$AAh?$AAC?$AAo?$AAu?$AAn?$AAt?$AA2?$AA?$DN?$AA?$DN?$AA1?$AA?5?$AA?$HM?$AA?$HM?$AA?5@ 004e5248     LIBCMTD:a_cmp.obj
 0003:000132dc       ??_C@_1CC@CNADELFK@?$AA_?$AAs?$AAt?$AAr?$AAi?$AAn?$AAg?$AA2?$AA?5?$AA?$CB?$AA?$DN?$AA?5?$AAN?$AAU?$AAL?$AAL?$AA?$AA@ 004e52dc     LIBCMTD:strnicol.obj
 0003:00013304       ??_C@_1BK@IOJEBPLP@?$AA_?$AAs?$AAt?$AAr?$AAn?$AAi?$AAc?$AAo?$AAl?$AAl?$AA_?$AAl?$AA?$AA@ 004e5304     LIBCMTD:strnicol.obj
 0003:00013324       ??_C@_1BG@BPACDEKP@?$AAs?$AAt?$AAr?$AAn?$AAi?$AAc?$AAo?$AAl?$AA?4?$AAc?$AA?$AA@ 004e5324     LIBCMTD:strnicol.obj
 0003:00013340       ??_C@_1CC@ICKKAGJA@?$AA_?$AAs?$AAt?$AAr?$AAi?$AAn?$AAg?$AA1?$AA?5?$AA?$CB?$AA?$DN?$AA?5?$AAN?$AAU?$AAL?$AAL?$AA?$AA@ 004e5340     LIBCMTD:strnicol.obj
 0003:00013368       ??_C@_1FG@OKIAKKPK@?$AAs?$AAt?$AAr?$AAc?$AAp?$AAy?$AA_?$AAs?$AA?$CI?$AAn?$AAa?$AAm?$AAe?$AA?0?$AA?5?$AAs?$AAt?$AAr?$AAl?$AAe?$AAn?$AA?$CI?$AAo?$AAp?$AAt?$AAi?$AAo?$AAn?$AA?$CJ?$AA?5?$AA?$CL?$AA?5@ 004e5368     LIBCMTD:setenv.obj
 0003:000133d0       ??_C@_1EI@GHDNAPMG@?$AA?$CI?$AA?$CC?$AAC?$AAR?$AAT?$AA?5?$AAL?$AAo?$AAg?$AAi?$AAc?$AA?5?$AAe?$AAr?$AAr?$AAo?$AAr?$AA?5?$AAd?$AAu?$AAr?$AAi?$AAn?$AAg?$AA?5?$AAs?$AAe?$AAt?$AAe?$AAn?$AAv?$AA?$CC@ 004e53d0     LIBCMTD:setenv.obj
 0003:00013428       ??_C@_08BMJILFKN@setenv?4c?$AA@ 004e5428     LIBCMTD:setenv.obj
 0003:00013438       ??_C@_1FC@EEJIEIDF@?$AA_?$AAt?$AAc?$AAs?$AAn?$AAl?$AAe?$AAn?$AA?$CI?$AAe?$AAq?$AAu?$AAa?$AAl?$AA?5?$AA?$CL?$AA?5?$AA1?$AA?0?$AA?5?$AA_?$AAM?$AAA?$AAX?$AA_?$AAE?$AAN?$AAV?$AA?$CJ?$AA?5?$AA?$DM?$AA?5@ 004e5438     LIBCMTD:setenv.obj
 0003:0001349c       ??_C@_1DE@EEHFNNGH@?$AAe?$AAq?$AAu?$AAa?$AAl?$AA?5?$AA?9?$AA?5?$AAo?$AAp?$AAt?$AAi?$AAo?$AAn?$AA?5?$AA?$DM?$AA?5?$AA_?$AAM?$AAA?$AAX?$AA_?$AAE?$AAN?$AAV?$AA?$AA@ 004e549c     LIBCMTD:setenv.obj
 0003:000134dc       ??_C@_1BI@CDAFOAAL@?$AA_?$AA_?$AAc?$AAr?$AAt?$AAs?$AAe?$AAt?$AAe?$AAn?$AAv?$AA?$AA@ 004e54dc     LIBCMTD:setenv.obj
 0003:000134f8       ??_C@_1BC@KAEJODA@?$AAs?$AAe?$AAt?$AAe?$AAn?$AAv?$AA?4?$AAc?$AA?$AA@ 004e54f8     LIBCMTD:setenv.obj
 0003:00013510       ??_C@_1CA@LMBEKBDN@?$AAp?$AAo?$AAp?$AAt?$AAi?$AAo?$AAn?$AA?5?$AA?$CB?$AA?$DN?$AA?5?$AAN?$AAU?$AAL?$AAL?$AA?$AA@ 004e5510     LIBCMTD:setenv.obj
 0003:00013538       ??_C@_1FK@DNFLNPD@?$AAs?$AAt?$AAr?$AAc?$AAp?$AAy?$AA_?$AAs?$AA?$CI?$AA?$CK?$AAn?$AAe?$AAw?$AAe?$AAn?$AAv?$AAp?$AAt?$AAr?$AA?0?$AA?5?$AAe?$AAn?$AAv?$AAp?$AAt?$AAr?$AAS?$AAi?$AAz?$AAe?$AA?0@ 004e5538     LIBCMTD:setenv.obj
 0003:000135a4       ??_C@_1BK@ECKIJLPM@?$AAc?$AAo?$AAp?$AAy?$AA_?$AAe?$AAn?$AAv?$AAi?$AAr?$AAo?$AAn?$AA?$AA@ 004e55a4     LIBCMTD:setenv.obj
 0003:000135c4       ??_C@_1BE@JKKFLIKJ@?$AA_?$AAm?$AAb?$AAs?$AAc?$AAh?$AAr?$AA_?$AAl?$AA?$AA@ 004e55c4     LIBCMTD:mbschr.obj
 0003:000135dc       ??_C@_1BC@MDNHFJEJ@?$AAm?$AAb?$AAs?$AAc?$AAh?$AAr?$AA?4?$AAc?$AA?$AA@ 004e55dc     LIBCMTD:mbschr.obj
 0003:000135f4       ??_C@_1BO@JIBAMMGI@?$AAs?$AAt?$AAr?$AAi?$AAn?$AAg?$AA?5?$AA?$CB?$AA?$DN?$AA?5?$AAN?$AAU?$AAL?$AAL?$AA?$AA@ 004e55f4     LIBCMTD:mbschr.obj
 0003:0001361c       ??_C@_0CP@HHLHLFOA@F?3?2RTM?2vctools?2crt_bld?2SELF_X86?2@ 004e561c     libcpmtd:xdebug.obj
 0003:00013654       ??_C@_07CIFAGBMG@unknown?$AA@ 004e5654     libcpmtd:stdthrow.obj
 0003:00013660       ??_C@_0M@LLHBPFNE@exception?3?5?$AA@ 004e5660     libcpmtd:stdthrow.obj
 0003:00013670       ??_C@_0BA@JFNIOLAK@string?5too?5long?$AA@ 004e5670     libcpmtd:string.obj
 0003:00013684       ??_C@_0BI@CFPLBAOH@invalid?5string?5position?$AA@ 004e5684     libcpmtd:string.obj
 0003:000136a4       ??_7out_of_range@std@@6B@  004e56a4     libcpmtd:string.obj
 0003:000136b0       ??_C@_0BI@ILCMCLF@invalid?5string?5argument?$AA@ 004e56b0     libcpmtd:string.obj
 0003:000136d0       ??_7invalid_argument@std@@6B@ 004e56d0     libcpmtd:string.obj
 0003:000136e0       ??_C@_1GA@HDIJEDEG@?$AAF?$AA?3?$AA?2?$AAR?$AAT?$AAM?$AA?2?$AAv?$AAc?$AAt?$AAo?$AAo?$AAl?$AAs?$AA?2?$AAc?$AAr?$AAt?$AA_?$AAb?$AAl?$AAd?$AA?2?$AAS?$AAE?$AAL?$AAF?$AA_?$AAX?$AA8?$AA6?$AA?2@ 004e56e0     libcpmtd:string.obj
 0003:00013754       ??_C@_1M@LIIFKKLB@?$AAf?$AAp?$AAu?$AAt?$AAs?$AA?$AA@ 004e5754     LIBCMTD:fputs.obj
 0003:00013764       ??_C@_1BA@OGFKJKFC@?$AAf?$AAp?$AAu?$AAt?$AAs?$AA?4?$AAc?$AA?$AA@ 004e5764     LIBCMTD:fputs.obj
 0003:00013778       ??_C@_1CC@CGFEEBMC@?$AA?$CI?$AAb?$AAu?$AAf?$AAf?$AAe?$AAr?$AA?5?$AA?$CB?$AA?$DN?$AA?5?$AAN?$AAU?$AAL?$AAL?$AA?$CJ?$AA?$AA@ 004e5778     LIBCMTD:fwrite.obj
 0003:000137a0       ??_C@_1O@KLNKIMAP@?$AAf?$AAw?$AAr?$AAi?$AAt?$AAe?$AA?$AA@ 004e57a0     LIBCMTD:fwrite.obj
 0003:000137b0       ??_C@_1BC@JOKKJJOM@?$AAf?$AAw?$AAr?$AAi?$AAt?$AAe?$AA?4?$AAc?$AA?$AA@ 004e57b0     LIBCMTD:fwrite.obj
 0003:000137c8       ??_C@_1LG@DCNDJCHK@?$AA?$CI?$AA?$CC?$AAI?$AAn?$AAc?$AAo?$AAn?$AAs?$AAi?$AAs?$AAt?$AAe?$AAn?$AAt?$AA?5?$AAS?$AAt?$AAr?$AAe?$AAa?$AAm?$AA?5?$AAC?$AAo?$AAu?$AAn?$AAt?$AA?4?$AA?5?$AAF?$AAl?$AAu@ 004e57c8     LIBCMTD:fwrite.obj
 0003:0001403c       ??_R4ArmorKing@@6B@        004e603c     armorking.obj
 0003:00014054       ??_R3ArmorKing@@8          004e6054     armorking.obj
 0003:00014068       ??_R2ArmorKing@@8          004e6068     armorking.obj
 0003:00014074       ??_R1A@?0A@EA@ArmorKing@@8 004e6074     armorking.obj
 0003:00014098       ??_R1A@?0A@EA@Heroi@@8     004e6098     armorking.obj
 0003:000140bc       ??_R3Heroi@@8              004e60bc     armorking.obj
 0003:000140d0       ??_R2Heroi@@8              004e60d0     armorking.obj
 0003:000140d8       ??_R4Heroi@@6B@            004e60d8     armorking.obj
 0003:000140f0       ??_R4Charade@@6B@          004e60f0     controlador.obj
 0003:00014108       ??_R3Charade@@8            004e6108     controlador.obj
 0003:0001411c       ??_R2Charade@@8            004e611c     controlador.obj
 0003:00014128       ??_R1A@?0A@EA@Charade@@8   004e6128     controlador.obj
 0003:0001414c       ??_R1A@?0A@EA@Inimigo@@8   004e614c     controlador.obj
 0003:00014170       ??_R3Inimigo@@8            004e6170     controlador.obj
 0003:00014184       ??_R2Inimigo@@8            004e6184     controlador.obj
 0003:0001418c       ??_R4Raptor@@6B@           004e618c     controlador.obj
 0003:000141a4       ??_R3Raptor@@8             004e61a4     controlador.obj
 0003:000141b8       ??_R2Raptor@@8             004e61b8     controlador.obj
 0003:000141c4       ??_R1A@?0A@EA@Raptor@@8    004e61c4     controlador.obj
 0003:000141e8       ??_R4Hiryuu@@6B@           004e61e8     controlador.obj
 0003:00014200       ??_R3Hiryuu@@8             004e6200     controlador.obj
 0003:00014214       ??_R2Hiryuu@@8             004e6214     controlador.obj
 0003:00014220       ??_R1A@?0A@EA@Hiryuu@@8    004e6220     controlador.obj
 0003:00014244       ??_R4Ginzu@@6B@            004e6244     controlador.obj
 0003:0001425c       ??_R3Ginzu@@8              004e625c     controlador.obj
 0003:00014270       ??_R2Ginzu@@8              004e6270     controlador.obj
 0003:0001427c       ??_R1A@?0A@EA@Ginzu@@8     004e627c     controlador.obj
 0003:000142a0       ??_R4Morte@@6B@            004e62a0     controlador.obj
 0003:000142b8       ??_R3Morte@@8              004e62b8     controlador.obj
 0003:000142cc       ??_R2Morte@@8              004e62cc     controlador.obj
 0003:000142d8       ??_R1A@?0A@EA@Morte@@8     004e62d8     controlador.obj
 0003:000142fc       ??_R4Lobo@@6B@             004e62fc     controlador.obj
 0003:00014314       ??_R3Lobo@@8               004e6314     controlador.obj
 0003:00014328       ??_R2Lobo@@8               004e6328     controlador.obj
 0003:00014334       ??_R1A@?0A@EA@Lobo@@8      004e6334     controlador.obj
 0003:00014358       ??_R4Ogre@@6B@             004e6358     controlador.obj
 0003:00014370       ??_R3Ogre@@8               004e6370     controlador.obj
 0003:00014384       ??_R2Ogre@@8               004e6384     controlador.obj
 0003:00014390       ??_R1A@?0A@EA@Ogre@@8      004e6390     controlador.obj
 0003:000143b4       ??_R4Sam@@6B@              004e63b4     controlador.obj
 0003:000143cc       ??_R3Sam@@8                004e63cc     controlador.obj
 0003:000143e0       ??_R2Sam@@8                004e63e0     controlador.obj
 0003:000143ec       ??_R1A@?0A@EA@Sam@@8       004e63ec     controlador.obj
 0003:00014410       ??_R4Heihachi@@6B@         004e6410     controlador.obj
 0003:00014428       ??_R3Heihachi@@8           004e6428     controlador.obj
 0003:0001443c       ??_R2Heihachi@@8           004e643c     controlador.obj
 0003:00014448       ??_R1A@?0A@EA@Heihachi@@8  004e6448     controlador.obj
 0003:0001446c       ??_R4Valkirie@@6B@         004e646c     controlador.obj
 0003:00014484       ??_R3Valkirie@@8           004e6484     controlador.obj
 0003:00014498       ??_R2Valkirie@@8           004e6498     controlador.obj
 0003:000144a4       ??_R1A@?0A@EA@Valkirie@@8  004e64a4     controlador.obj
 0003:000144c8       ??_R4Imp@@6B@              004e64c8     controlador.obj
 0003:000144e0       ??_R3Imp@@8                004e64e0     controlador.obj
 0003:000144f4       ??_R2Imp@@8                004e64f4     controlador.obj
 0003:00014500       ??_R1A@?0A@EA@Imp@@8       004e6500     controlador.obj
 0003:00014524       ??_R4Boss@@6B@             004e6524     controlador.obj
 0003:0001453c       ??_R3Boss@@8               004e653c     controlador.obj
 0003:00014550       ??_R2Boss@@8               004e6550     controlador.obj
 0003:0001455c       ??_R1A@?0A@EA@Boss@@8      004e655c     controlador.obj
 0003:00014580       ??_R4Felicia@@6B@          004e6580     felicia.obj
 0003:00014598       ??_R3Felicia@@8            004e6598     felicia.obj
 0003:000145ac       ??_R2Felicia@@8            004e65ac     felicia.obj
 0003:000145b8       ??_R1A@?0A@EA@Felicia@@8   004e65b8     felicia.obj
 0003:000145dc       ??_R4_Marshaller_InfoHeroi@@6B@ 004e65dc     idl.obj
 0003:000145f4       ??_R3_Marshaller_InfoHeroi@@8 004e65f4     idl.obj
 0003:00014608       ??_R2_Marshaller_InfoHeroi@@8 004e6608     idl.obj
 0003:00014614       ??_R1A@?0A@EA@_Marshaller_InfoHeroi@@8 004e6614     idl.obj
 0003:00014638       ??_R1A@?0A@EA@StaticTypeInfo@CORBA@@8 004e6638     idl.obj
 0003:0001465c       ??_R3StaticTypeInfo@CORBA@@8 004e665c     idl.obj
 0003:00014670       ??_R2StaticTypeInfo@CORBA@@8 004e6670     idl.obj
 0003:00014678       ??_R4_Marshaller_InfoInimigo@@6B@ 004e6678     idl.obj
 0003:00014690       ??_R3_Marshaller_InfoInimigo@@8 004e6690     idl.obj
 0003:000146a4       ??_R2_Marshaller_InfoInimigo@@8 004e66a4     idl.obj
 0003:000146b0       ??_R1A@?0A@EA@_Marshaller_InfoInimigo@@8 004e66b0     idl.obj
 0003:000146d4       ??_R4_Marshaller_InfoItem@@6B@ 004e66d4     idl.obj
 0003:000146ec       ??_R3_Marshaller_InfoItem@@8 004e66ec     idl.obj
 0003:00014700       ??_R2_Marshaller_InfoItem@@8 004e6700     idl.obj
 0003:0001470c       ??_R1A@?0A@EA@_Marshaller_InfoItem@@8 004e670c     idl.obj
 0003:00014730       ??_R4_Marshaller_InfoFase@@6B@ 004e6730     idl.obj
 0003:00014748       ??_R3_Marshaller_InfoFase@@8 004e6748     idl.obj
 0003:0001475c       ??_R2_Marshaller_InfoFase@@8 004e675c     idl.obj
 0003:00014768       ??_R1A@?0A@EA@_Marshaller_InfoFase@@8 004e6768     idl.obj
 0003:0001478c       ??_R4_Marshaller_InfoInicial@@6B@ 004e678c     idl.obj
 0003:000147a4       ??_R3_Marshaller_InfoInicial@@8 004e67a4     idl.obj
 0003:000147b8       ??_R2_Marshaller_InfoInicial@@8 004e67b8     idl.obj
 0003:000147c4       ??_R1A@?0A@EA@_Marshaller_InfoInicial@@8 004e67c4     idl.obj
 0003:000147e8       ??_R4InterfaceServidor@@6B0@@ 004e67e8     idl.obj
 0003:00014800       ??_R3InterfaceServidor@@8  004e6800     idl.obj
 0003:00014814       ??_R2InterfaceServidor@@8  004e6814     idl.obj
 0003:00014828       ??_R1A@?0A@EA@InterfaceServidor@@8 004e6828     idl.obj
 0003:0001484c       ??_R1A@33FA@Object@CORBA@@8 004e684c     idl.obj
 0003:00014870       ??_R3Object@CORBA@@8       004e6870     idl.obj
 0003:00014884       ??_R2Object@CORBA@@8       004e6884     idl.obj
 0003:00014894       ??_R1A@?0A@EA@Object@CORBA@@8 004e6894     idl.obj
 0003:000148b8       ??_R1A@?0A@EA@ServerlessObject@CORBA@@8 004e68b8     idl.obj
 0003:000148dc       ??_R3ServerlessObject@CORBA@@8 004e68dc     idl.obj
 0003:000148f0       ??_R2ServerlessObject@CORBA@@8 004e68f0     idl.obj
 0003:000148fc       ??_R13?0A@EA@MagicChecker@CORBA@@8 004e68fc     idl.obj
 0003:00014920       ??_R3MagicChecker@CORBA@@8 004e6920     idl.obj
 0003:00014934       ??_R2MagicChecker@CORBA@@8 004e6934     idl.obj
 0003:0001493c       ??_R1A@?0A@EA@MagicChecker@CORBA@@8 004e693c     idl.obj
 0003:00014960       ??_R1A@33EA@ServerlessObject@CORBA@@8 004e6960     idl.obj
 0003:00014984       ??_R1333EA@MagicChecker@CORBA@@8 004e6984     idl.obj
 0003:000149a8       ??_R4InterfaceServidor@@6BObject@CORBA@@@ 004e69a8     idl.obj
 0003:000149c0       ??_R4InterfaceServidor_stub@@6BObject@CORBA@@@ 004e69c0     idl.obj
 0003:000149d8       ??_R3InterfaceServidor_stub@@8 004e69d8     idl.obj
 0003:000149ec       ??_R2InterfaceServidor_stub@@8 004e69ec     idl.obj
 0003:00014a08       ??_R1A@?0A@EA@InterfaceServidor_stub@@8 004e6a08     idl.obj
 0003:00014a2c       ??_R1A@A@7FA@InterfaceServidor@@8 004e6a2c     idl.obj
 0003:00014a50       ??_R1A@A@3FA@Object@CORBA@@8 004e6a50     idl.obj
 0003:00014a74       ??_R1A@A@3EA@ServerlessObject@CORBA@@8 004e6a74     idl.obj
 0003:00014a98       ??_R13A@3EA@MagicChecker@CORBA@@8 004e6a98     idl.obj
 0003:00014abc       ??_R4InterfaceServidor_stub@@6BInterfaceServidor@@@ 004e6abc     idl.obj
 0003:00014ad4       ??_R4_Marshaller_InterfaceServidor@@6B@ 004e6ad4     idl.obj
 0003:00014aec       ??_R3_Marshaller_InterfaceServidor@@8 004e6aec     idl.obj
 0003:00014b00       ??_R2_Marshaller_InterfaceServidor@@8 004e6b00     idl.obj
 0003:00014b0c       ??_R1A@?0A@EA@_Marshaller_InterfaceServidor@@8 004e6b0c     idl.obj
 0003:00014b30       ??_R4InterfaceServidor_stub_clp@@6BObject@CORBA@@@ 004e6b30     idl.obj
 0003:00014b48       ??_R3InterfaceServidor_stub_clp@@8 004e6b48     idl.obj
 0003:00014b5c       ??_R2InterfaceServidor_stub_clp@@8 004e6b5c     idl.obj
 0003:00014b90       ??_R1A@?0A@EA@InterfaceServidor_stub_clp@@8 004e6b90     idl.obj
 0003:00014bb4       ??_R1A@A@M@FA@InterfaceServidor_stub@@8 004e6bb4     idl.obj
 0003:00014bd8       ??_R1A@A@BA@FA@StubBase@PortableServer@@8 004e6bd8     idl.obj
 0003:00014bfc       ??_R3StubBase@PortableServer@@8 004e6bfc     idl.obj
 0003:00014c10       ??_R2StubBase@PortableServer@@8 004e6c10     idl.obj
 0003:00014c24       ??_R1A@?0A@EA@StubBase@PortableServer@@8 004e6c24     idl.obj
 0003:00014c48       ??_R4InterfaceServidor_stub_clp@@6BInterfaceServidor@@@ 004e6c48     idl.obj
 0003:00014c60       ??_R4_Marshaller__seq_InfoInimigo@@6B@ 004e6c60     idl.obj
 0003:00014c78       ??_R3_Marshaller__seq_InfoInimigo@@8 004e6c78     idl.obj
 0003:00014c8c       ??_R2_Marshaller__seq_InfoInimigo@@8 004e6c8c     idl.obj
 0003:00014c98       ??_R1A@?0A@EA@_Marshaller__seq_InfoInimigo@@8 004e6c98     idl.obj
 0003:00014cbc       ??_R4_Marshaller__seq_InfoItem@@6B@ 004e6cbc     idl.obj
 0003:00014cd4       ??_R3_Marshaller__seq_InfoItem@@8 004e6cd4     idl.obj
 0003:00014ce8       ??_R2_Marshaller__seq_InfoItem@@8 004e6ce8     idl.obj
 0003:00014cf4       ??_R1A@?0A@EA@_Marshaller__seq_InfoItem@@8 004e6cf4     idl.obj
 0003:00014d18       ??_R4POA_InterfaceServidor@@6B@ 004e6d18     idl.obj
 0003:00014d30       ??_R3POA_InterfaceServidor@@8 004e6d30     idl.obj
 0003:00014d44       ??_R2POA_InterfaceServidor@@8 004e6d44     idl.obj
 0003:00014d54       ??_R1A@?0A@EA@POA_InterfaceServidor@@8 004e6d54     idl.obj
 0003:00014d78       ??_R1A@37FA@StaticImplementation@PortableServer@@8 004e6d78     idl.obj
 0003:00014d9c       ??_R3StaticImplementation@PortableServer@@8 004e6d9c     idl.obj
 0003:00014db0       ??_R2StaticImplementation@PortableServer@@8 004e6db0     idl.obj
 0003:00014dbc       ??_R1A@?0A@EA@StaticImplementation@PortableServer@@8 004e6dbc     idl.obj
 0003:00014de0       ??_R1A@33FA@ServantBase@PortableServer@@8 004e6de0     idl.obj
 0003:00014e04       ??_R3ServantBase@PortableServer@@8 004e6e04     idl.obj
 0003:00014e18       ??_R2ServantBase@PortableServer@@8 004e6e18     idl.obj
 0003:00014e20       ??_R1A@?0A@EA@ServantBase@PortableServer@@8 004e6e20     idl.obj
 0003:00014e44       ??_R4POA_InterfaceServidor@@6BServantBase@PortableServer@@@ 004e6e44     idl.obj
 0003:00014e5c       ??_R4POA_InterfaceServidor@@6BStaticImplementation@PortableServer@@@ 004e6e5c     idl.obj
 0003:00014e74       ??_R4bad_alloc@std@@6B@    004e6e74     idl.obj
 0003:00014e8c       ??_R3bad_alloc@std@@8      004e6e8c     idl.obj
 0003:00014ea0       ??_R2bad_alloc@std@@8      004e6ea0     idl.obj
 0003:00014eac       ??_R1A@?0A@EA@bad_alloc@std@@8 004e6eac     idl.obj
 0003:00014ed0       ??_R1A@?0A@EA@exception@std@@8 004e6ed0     idl.obj
 0003:00014ef4       ??_R3exception@std@@8      004e6ef4     idl.obj
 0003:00014f08       ??_R2exception@std@@8      004e6f08     idl.obj
 0003:00014f10       ??_R4length_error@std@@6B@ 004e6f10     idl.obj
 0003:00014f28       ??_R3length_error@std@@8   004e6f28     idl.obj
 0003:00014f3c       ??_R2length_error@std@@8   004e6f3c     idl.obj
 0003:00014f4c       ??_R1A@?0A@EA@length_error@std@@8 004e6f4c     idl.obj
 0003:00014f70       ??_R1A@?0A@EA@logic_error@std@@8 004e6f70     idl.obj
 0003:00014f94       ??_R3logic_error@std@@8    004e6f94     idl.obj
 0003:00014fa8       ??_R2logic_error@std@@8    004e6fa8     idl.obj
 0003:00014fb4       ??_R4logic_error@std@@6B@  004e6fb4     idl.obj
 0003:00014fcc       ??_R4StaticTypeInfo@CORBA@@6B@ 004e6fcc     idl.obj
 0003:00014fe4       ??_R4Inimigo@@6B@          004e6fe4     inimigo.obj
 0003:00014ffc       ??_R4Item@@6B@             004e6ffc     item.obj
 0003:00015014       ??_R3Item@@8               004e7014     item.obj
 0003:00015028       ??_R2Item@@8               004e7028     item.obj
 0003:00015030       ??_R1A@?0A@EA@Item@@8      004e7030     item.obj
 0003:00015054       ??_R4Jin@@6B@              004e7054     jin.obj
 0003:0001506c       ??_R3Jin@@8                004e706c     jin.obj
 0003:00015080       ??_R2Jin@@8                004e7080     jin.obj
 0003:0001508c       ??_R1A@?0A@EA@Jin@@8       004e708c     jin.obj
 0003:000150b0       ??_R4King@@6B@             004e70b0     king.obj
 0003:000150c8       ??_R3King@@8               004e70c8     king.obj
 0003:000150dc       ??_R2King@@8               004e70dc     king.obj
 0003:000150e8       ??_R1A@?0A@EA@King@@8      004e70e8     king.obj
 0003:0001510c       ??_R4Morfador@@6B@         004e710c     morfador.obj
 0003:00015124       ??_R3Morfador@@8           004e7124     morfador.obj
 0003:00015138       ??_R2Morfador@@8           004e7138     morfador.obj
 0003:00015144       ??_R1A@?0A@EA@Morfador@@8  004e7144     morfador.obj
 0003:00015168       ??_R4Morrigan@@6B@         004e7168     morrigan.obj
 0003:00015180       ??_R3Morrigan@@8           004e7180     morrigan.obj
 0003:00015194       ??_R2Morrigan@@8           004e7194     morrigan.obj
 0003:000151a0       ??_R1A@?0A@EA@Morrigan@@8  004e71a0     morrigan.obj
 0003:000151c4       ??_R4Vida@@6B@             004e71c4     vida.obj
 0003:000151dc       ??_R3Vida@@8               004e71dc     vida.obj
 0003:000151f0       ??_R2Vida@@8               004e71f0     vida.obj
 0003:000151fc       ??_R1A@?0A@EA@Vida@@8      004e71fc     vida.obj
 0003:00015220       ??_R4type_info@@6B@        004e7220     LIBCMTD:typinfo.obj
 0003:00015238       ??_R3type_info@@8          004e7238     LIBCMTD:typinfo.obj
 0003:0001524c       ??_R2type_info@@8          004e724c     LIBCMTD:typinfo.obj
 0003:00015254       ??_R1A@?0A@EA@type_info@@8 004e7254     LIBCMTD:typinfo.obj
 0003:00015278       ??_R4exception@std@@6B@    004e7278     LIBCMTD:stdexcpt.obj
 0003:00015290       ??_R4bad_cast@std@@6B@     004e7290     LIBCMTD:stdexcpt.obj
 0003:000152a8       ??_R3bad_cast@std@@8       004e72a8     LIBCMTD:stdexcpt.obj
 0003:000152bc       ??_R2bad_cast@std@@8       004e72bc     LIBCMTD:stdexcpt.obj
 0003:000152c8       ??_R1A@?0A@EA@bad_cast@std@@8 004e72c8     LIBCMTD:stdexcpt.obj
 0003:000152ec       ??_R4bad_typeid@std@@6B@   004e72ec     LIBCMTD:stdexcpt.obj
 0003:00015304       ??_R3bad_typeid@std@@8     004e7304     LIBCMTD:stdexcpt.obj
 0003:00015318       ??_R2bad_typeid@std@@8     004e7318     LIBCMTD:stdexcpt.obj
 0003:00015324       ??_R1A@?0A@EA@bad_typeid@std@@8 004e7324     LIBCMTD:stdexcpt.obj
 0003:00015348       ??_R4__non_rtti_object@std@@6B@ 004e7348     LIBCMTD:stdexcpt.obj
 0003:00015360       ??_R3__non_rtti_object@std@@8 004e7360     LIBCMTD:stdexcpt.obj
 0003:00015374       ??_R2__non_rtti_object@std@@8 004e7374     LIBCMTD:stdexcpt.obj
 0003:00015384       ??_R1A@?0A@EA@__non_rtti_object@std@@8 004e7384     LIBCMTD:stdexcpt.obj
 0003:000153a8       ??_R4bad_exception@std@@6B@ 004e73a8     LIBCMTD:frame.obj
 0003:000153c0       ??_R3bad_exception@std@@8  004e73c0     LIBCMTD:frame.obj
 0003:000153d4       ??_R2bad_exception@std@@8  004e73d4     LIBCMTD:frame.obj
 0003:000153e0       ??_R1A@?0A@EA@bad_exception@std@@8 004e73e0     LIBCMTD:frame.obj
 0003:00015404       ??_R4DNameNode@@6B@        004e7404     LIBCMTD:undname.obj
 0003:0001541c       ??_R3DNameNode@@8          004e741c     LIBCMTD:undname.obj
 0003:00015430       ??_R2DNameNode@@8          004e7430     LIBCMTD:undname.obj
 0003:00015438       ??_R1A@?0A@EA@DNameNode@@8 004e7438     LIBCMTD:undname.obj
 0003:0001545c       ??_R4charNode@@6B@         004e745c     LIBCMTD:undname.obj
 0003:00015474       ??_R3charNode@@8           004e7474     LIBCMTD:undname.obj
 0003:00015488       ??_R2charNode@@8           004e7488     LIBCMTD:undname.obj
 0003:00015494       ??_R1A@?0A@EA@charNode@@8  004e7494     LIBCMTD:undname.obj
 0003:000154b8       ??_R4pcharNode@@6B@        004e74b8     LIBCMTD:undname.obj
 0003:000154d0       ??_R3pcharNode@@8          004e74d0     LIBCMTD:undname.obj
 0003:000154e4       ??_R2pcharNode@@8          004e74e4     LIBCMTD:undname.obj
 0003:000154f0       ??_R1A@?0A@EA@pcharNode@@8 004e74f0     LIBCMTD:undname.obj
 0003:00015514       ??_R4pDNameNode@@6B@       004e7514     LIBCMTD:undname.obj
 0003:0001552c       ??_R3pDNameNode@@8         004e752c     LIBCMTD:undname.obj
 0003:00015540       ??_R2pDNameNode@@8         004e7540     LIBCMTD:undname.obj
 0003:0001554c       ??_R1A@?0A@EA@pDNameNode@@8 004e754c     LIBCMTD:undname.obj
 0003:00015570       ??_R4DNameStatusNode@@6B@  004e7570     LIBCMTD:undname.obj
 0003:00015588       ??_R3DNameStatusNode@@8    004e7588     LIBCMTD:undname.obj
 0003:0001559c       ??_R2DNameStatusNode@@8    004e759c     LIBCMTD:undname.obj
 0003:000155a8       ??_R1A@?0A@EA@DNameStatusNode@@8 004e75a8     LIBCMTD:undname.obj
 0003:000155cc       ??_R4out_of_range@std@@6B@ 004e75cc     libcpmtd:string.obj
 0003:000155e4       ??_R3out_of_range@std@@8   004e75e4     libcpmtd:string.obj
 0003:000155f8       ??_R2out_of_range@std@@8   004e75f8     libcpmtd:string.obj
 0003:00015608       ??_R1A@?0A@EA@out_of_range@std@@8 004e7608     libcpmtd:string.obj
 0003:0001562c       ??_R4invalid_argument@std@@6B@ 004e762c     libcpmtd:string.obj
 0003:00015644       ??_R3invalid_argument@std@@8 004e7644     libcpmtd:string.obj
 0003:00015658       ??_R2invalid_argument@std@@8 004e7658     libcpmtd:string.obj
 0003:00015668       ??_R1A@?0A@EA@invalid_argument@std@@8 004e7668     libcpmtd:string.obj
 0003:0001582c       ___rtc_iaa                 004e782c     LIBCMTD:initsect.obj
 0003:00015a78       ___rtc_izz                 004e7a78     LIBCMTD:initsect.obj
 0003:00015b7c       ___rtc_taa                 004e7b7c     LIBCMTD:initsect.obj
 0003:00015dc8       ___rtc_tzz                 004e7dc8     LIBCMTD:initsect.obj
 0003:000168b0       __TI2?AVbad_alloc@std@@    004e88b0     idl.obj
 0003:000168c4       __CTA2?AVbad_alloc@std@@   004e88c4     idl.obj
 0003:000168d4       __CT??_R0?AVbad_alloc@std@@@8??0bad_alloc@std@@QAE@ABV01@@Z12 004e88d4     idl.obj
 0003:000168f4       __CT??_R0?AVexception@std@@@8??0exception@std@@QAE@ABV01@@Z12 004e88f4     idl.obj
 0003:00016aa8       __TI3?AVlength_error@std@@ 004e8aa8     idl.obj
 0003:00016aec       __CTA3?AVlength_error@std@@ 004e8aec     idl.obj
 0003:00016b00       __CT??_R0?AVlength_error@std@@@8??0length_error@std@@QAE@ABV01@@Z44 004e8b00     idl.obj
 0003:00016b20       __CT??_R0?AVlogic_error@std@@@8??0logic_error@std@@QAE@ABV01@@Z44 004e8b20     idl.obj
 0003:00017718       __TI2?AVbad_exception@std@@ 004e9718     LIBCMTD:frame.obj
 0003:0001772c       __CTA2?AVbad_exception@std@@ 004e972c     LIBCMTD:frame.obj
 0003:0001773c       __CT??_R0?AVbad_exception@std@@@8??0bad_exception@std@@QAE@ABV01@@Z12 004e973c     LIBCMTD:frame.obj
 0003:000182b0       __TI3?AVout_of_range@std@@ 004ea2b0     libcpmtd:string.obj
 0003:000182f4       __CTA3?AVout_of_range@std@@ 004ea2f4     libcpmtd:string.obj
 0003:00018308       __CT??_R0?AVout_of_range@std@@@8??0out_of_range@std@@QAE@ABV01@@Z44 004ea308     libcpmtd:string.obj
 0003:00018328       __TI3?AVinvalid_argument@std@@ 004ea328     libcpmtd:string.obj
 0003:0001836c       __CTA3?AVinvalid_argument@std@@ 004ea36c     libcpmtd:string.obj
 0003:00018380       __CT??_R0?AVinvalid_argument@std@@@8??0invalid_argument@std@@QAE@ABV01@@Z44 004ea380     libcpmtd:string.obj
 0004:00000000       ??_R0?AVArmorKing@@@8      004eb000     armorking.obj
 0004:0000001c       ??_R0?AVHeroi@@@8          004eb01c     armorking.obj
 0004:00000034       ??_R0?AVCharade@@@8        004eb034     controlador.obj
 0004:00000050       ??_R0?AVInimigo@@@8        004eb050     controlador.obj
 0004:0000006c       ??_R0?AVRaptor@@@8         004eb06c     controlador.obj
 0004:00000088       ??_R0?AVHiryuu@@@8         004eb088     controlador.obj
 0004:000000a4       ??_R0?AVGinzu@@@8          004eb0a4     controlador.obj
 0004:000000bc       ??_R0?AVMorte@@@8          004eb0bc     controlador.obj
 0004:000000d4       ??_R0?AVLobo@@@8           004eb0d4     controlador.obj
 0004:000000ec       ??_R0?AVOgre@@@8           004eb0ec     controlador.obj
 0004:00000104       ??_R0?AVSam@@@8            004eb104     controlador.obj
 0004:0000011c       ??_R0?AVHeihachi@@@8       004eb11c     controlador.obj
 0004:00000138       ??_R0?AVValkirie@@@8       004eb138     controlador.obj
 0004:00000154       ??_R0?AVImp@@@8            004eb154     controlador.obj
 0004:0000016c       ??_R0?AVBoss@@@8           004eb16c     controlador.obj
 0004:00000184       ??_R0?AVFelicia@@@8        004eb184     felicia.obj
 0004:000001a4       ??_R0?AV_Marshaller_InfoHeroi@@@8 004eb1a4     idl.obj
 0004:000001d0       ??_R0?AVStaticTypeInfo@CORBA@@@8 004eb1d0     idl.obj
 0004:000001fc       ??_R0?AV_Marshaller_InfoInimigo@@@8 004eb1fc     idl.obj
 0004:0000022c       ??_R0?AV_Marshaller_InfoItem@@@8 004eb22c     idl.obj
 0004:00000258       ??_R0?AV_Marshaller_InfoFase@@@8 004eb258     idl.obj
 0004:00000284       ??_R0?AV_Marshaller_InfoInicial@@@8 004eb284     idl.obj
 0004:000002b4       ??_R0?AVInterfaceServidor@@@8 004eb2b4     idl.obj
 0004:000002dc       ??_R0?AVObject@CORBA@@@8   004eb2dc     idl.obj
 0004:000002fc       ??_R0?AVServerlessObject@CORBA@@@8 004eb2fc     idl.obj
 0004:00000328       ??_R0?AVMagicChecker@CORBA@@@8 004eb328     idl.obj
 0004:00000350       ??_R0?AVInterfaceServidor_stub@@@8 004eb350     idl.obj
 0004:0000037c       ??_R0?AV_Marshaller_InterfaceServidor@@@8 004eb37c     idl.obj
 0004:000003b0       ??_R0?AVInterfaceServidor_stub_clp@@@8 004eb3b0     idl.obj
 0004:000003e4       ??_R0?AVStubBase@PortableServer@@@8 004eb3e4     idl.obj
 0004:00000414       ?__LINE__Var@?1??mico_sii_throw@@YAXPAVStaticRequest@CORBA@@ZZ@4JA@8909b7c6 004eb414     idl.obj
 0004:00000418       ??_R0?AV_Marshaller__seq_InfoInimigo@@@8 004eb418     idl.obj
 0004:0000044c       ??_R0?AV_Marshaller__seq_InfoItem@@@8 004eb44c     idl.obj
 0004:0000047c       ??_R0?AVPOA_InterfaceServidor@@@8 004eb47c     idl.obj
 0004:000004a8       ??_R0?AVStaticImplementation@PortableServer@@@8 004eb4a8     idl.obj
 0004:000004e4       ??_R0?AVServantBase@PortableServer@@@8 004eb4e4     idl.obj
 0004:00000518       ??_R0?AVSystemException@CORBA@@@8 004eb518     idl.obj
 0004:00000544       ??_R0?AVbad_alloc@std@@@8  004eb544     idl.obj
 0004:00000568       ??_R0?AVexception@std@@@8  004eb568     idl.obj
 0004:0000058c       ??_R0?AVlength_error@std@@@8 004eb58c     idl.obj
 0004:000005b4       ??_R0?AVlogic_error@std@@@8 004eb5b4     idl.obj
 0004:000005d8       ??_R0?AVItem@@@8           004eb5d8     item.obj
 0004:000005f0       ??_R0?AVJin@@@8            004eb5f0     jin.obj
 0004:00000608       ??_R0?AVKing@@@8           004eb608     king.obj
 0004:00000624       ??_R0?AVMorfador@@@8       004eb624     morfador.obj
 0004:00000640       ??_R0?AVMorrigan@@@8       004eb640     morrigan.obj
 0004:0000065c       ??_R0?AVVida@@@8           004eb65c     vida.obj
 0004:00000678       ___security_cookie         004eb678     LIBCMTD:gs_cookie.obj
 0004:0000067c       ___security_cookie_complement 004eb67c     LIBCMTD:gs_cookie.obj
 0004:00000684       ??_R0?AVtype_info@@@8      004eb684     LIBCMTD:typinfo.obj
 0004:000006a0       __fltused                  004eb6a0     LIBCMTD:fpinit.obj
 0004:000006a4       __ldused                   004eb6a4     LIBCMTD:fpinit.obj
 0004:000006b0       ?__pMyUnhandledExceptionFilter@@3PAXA 004eb6b0     LIBCMTD:throw.obj
 0004:000006b8       ??_R0?AVbad_cast@std@@@8   004eb6b8     LIBCMTD:stdexcpt.obj
 0004:000006d8       ??_R0?AVbad_typeid@std@@@8 004eb6d8     LIBCMTD:stdexcpt.obj
 0004:000006fc       ??_R0?AV__non_rtti_object@std@@@8 004eb6fc     LIBCMTD:stdexcpt.obj
 0004:00000744       __crtDbgFlag               004eb744     LIBCMTD:dbgheap.obj
 0004:00000748       ___crtDebugFillThreshold   004eb748     LIBCMTD:dbgheap.obj
 0004:00000750       __crtBreakAlloc            004eb750     LIBCMTD:dbgheap.obj
 0004:00000774       __aexit_rtn                004eb774     LIBCMTD:crt0dat.obj
 0004:00000934       ___app_type                004eb934     LIBCMTD:wincrt0.obj
 0004:00000aa0       ??_R0?AVbad_exception@std@@@8 004ebaa0     LIBCMTD:frame.obj
 0004:00000ad0       ___flsindex                004ebad0     LIBCMTD:tidtable.obj
 0004:00000ad4       ___getvalueindex           004ebad4     LIBCMTD:tidtable.obj
 0004:00000adc       ?_RTC_ErrorLevels@@3PAHA   004ebadc     LIBCMTD:error.obj
 0004:00000b2c       ___abort_behavior          004ebb2c     LIBCMTD:abort.obj
 0004:00000c10       __iob                      004ebc10     LIBCMTD:_file.obj
 0004:00000f10       ___badioinfo               004ebf10     LIBCMTD:ioinit.obj
 0004:00000f40       __cfltcvt_tab              004ebf40     LIBCMTD:cmiscdat.obj
 0004:00000f70       __pfnAllocHook             004ebf70     LIBCMTD:dbghook.obj
 0004:00000f80       __crtAssertBusy            004ebf80     LIBCMTD:dbgrptt.obj
 0004:00000f84       __CrtDbgMode               004ebf84     LIBCMTD:dbgrptt.obj
 0004:00000f90       __CrtDbgFile               004ebf90     LIBCMTD:dbgrptt.obj
 0004:00000fc4       __amblksiz                 004ebfc4     LIBCMTD:heapinit.obj
 0004:00000fc8       ___initialmbcinfo          004ebfc8     LIBCMTD:mbctype.obj
 0004:000011e8       __mbctype                  004ec1e8     LIBCMTD:mbctype.obj
 0004:000012f0       __mbcasemap                004ec2f0     LIBCMTD:mbctype.obj
 0004:000013f0       ___ptmbcinfo               004ec3f0     LIBCMTD:mbctype.obj
 0004:000015f4       ___globallocalestatus      004ec5f4     LIBCMTD:glstatus.obj
 0004:000015f8       ___clocalestr              004ec5f8     LIBCMTD:nlsdata2.obj
 0004:00001600       ___initiallocinfo          004ec600     LIBCMTD:nlsdata2.obj
 0004:000016d8       ___ptlocinfo               004ec6d8     LIBCMTD:nlsdata2.obj
 0004:000016dc       ___lc_clike                004ec6dc     LIBCMTD:nlsdata2.obj
 0004:000016e0       ___initiallocalestructinfo 004ec6e0     LIBCMTD:nlsdata2.obj
 0004:00001720       __XcptActTab               004ec720     LIBCMTD:winxfltr.obj
 0004:00001798       __First_FPE_Indx           004ec798     LIBCMTD:winxfltr.obj
 0004:0000179c       __Num_FPE                  004ec79c     LIBCMTD:winxfltr.obj
 0004:000017a0       __XcptActTabSize           004ec7a0     LIBCMTD:winxfltr.obj
 0004:000017a4       __XcptActTabCount          004ec7a4     LIBCMTD:winxfltr.obj
 0004:000017c4       __NLG_Destination          004ec7c4     LIBCMTD:exsup.obj
 0004:000017dc       ??_R0?AVDNameNode@@@8      004ec7dc     LIBCMTD:undname.obj
 0004:000017f8       ??_R0?AVcharNode@@@8       004ec7f8     LIBCMTD:undname.obj
 0004:00001814       ??_R0?AVpcharNode@@@8      004ec814     LIBCMTD:undname.obj
 0004:00001830       ??_R0?AVpDNameNode@@@8     004ec830     LIBCMTD:undname.obj
 0004:00001850       ??_R0?AVDNameStatusNode@@@8 004ec850     LIBCMTD:undname.obj
 0004:00001880       __pctype                   004ec880     LIBCMTD:ctype.obj
 0004:00001884       __pwctype                  004ec884     LIBCMTD:ctype.obj
 0004:00001890       ___lc_time_c               004ec890     LIBCMTD:strftime.obj
 0004:0000196c       ___lc_time_curr            004ec96c     LIBCMTD:strftime.obj
 0004:00001970       ___lconv_static_decimal    004ec970     LIBCMTD:lconv.obj
 0004:00001974       ___lconv_c                 004ec974     LIBCMTD:lconv.obj
 0004:000019a4       ___lconv                   004ec9a4     LIBCMTD:lconv.obj
 0004:000019b4       ___mb_cur_max              004ec9b4     LIBCMTD:nlsdata1.obj
 0004:000019b8       ___decimal_point           004ec9b8     LIBCMTD:nlsdata1.obj
 0004:000019bc       ___decimal_point_length    004ec9bc     LIBCMTD:nlsdata1.obj
 0004:000019d0       ___nullstring              004ec9d0     LIBCMTD:output.obj
 0004:000019d4       ___wnullstring             004ec9d4     LIBCMTD:output.obj
 0004:000019e8       __lookuptrailbytes         004ec9e8     LIBCMTD:read.obj
 0004:00001b58       __timezone                 004ecb58     LIBCMTD:timeset.obj
 0004:00001b5c       __daylight                 004ecb5c     LIBCMTD:timeset.obj
 0004:00001b60       __dstbias                  004ecb60     LIBCMTD:timeset.obj
 0004:00001be8       __tzname                   004ecbe8     LIBCMTD:timeset.obj
 0004:00001c2c       __lpdays                   004ecc2c     LIBCMTD:days.obj
 0004:00001c60       __days                     004ecc60     LIBCMTD:days.obj
 0004:00001ca8       __coninpfh                 004ecca8     LIBCMTD:initcon.obj
 0004:00001cac       __confh                    004eccac     LIBCMTD:initcon.obj
 0004:00001cd8       __pow10pos                 004eccd8     LIBCMTD:constpow.obj
 0004:00001e38       __pow10neg                 004ece38     LIBCMTD:constpow.obj
 0004:00002030       ??_R0?AVout_of_range@std@@@8 004ed030     libcpmtd:string.obj
 0004:00002058       ??_R0?AVinvalid_argument@std@@@8 004ed058     libcpmtd:string.obj
 0004:00002200       ?_marshaller_InfoFase@@3PAVStaticTypeInfo@CORBA@@A 004ed200     idl.obj
 0004:00002204       ?_marshaller_InterfaceServidor@@3PAVStaticTypeInfo@CORBA@@A 004ed204     idl.obj
 0004:00002208       ?_marshaller__seq_InfoInimigo@@3PAVStaticTypeInfo@CORBA@@A 004ed208     idl.obj
 0004:0000220c       ?_marshaller_InfoHeroi@@3PAVStaticTypeInfo@CORBA@@A 004ed20c     idl.obj
 0004:00002210       ?_marshaller_InfoInicial@@3PAVStaticTypeInfo@CORBA@@A 004ed210     idl.obj
 0004:00002214       ?_marshaller_InfoInimigo@@3PAVStaticTypeInfo@CORBA@@A 004ed214     idl.obj
 0004:00002218       ?_marshaller__seq_InfoItem@@3PAVStaticTypeInfo@CORBA@@A 004ed218     idl.obj
 0004:0000221c       ?_marshaller_InfoItem@@3PAVStaticTypeInfo@CORBA@@A 004ed21c     idl.obj
 0004:00002228       ?ctrl@@3PAVControlador@@A  004ed228     main.obj
 0004:0000222c       ?dbb@@3PAVSprite@@A        004ed22c     main.obj
 0004:00002230       ?tela@@3PAVSprite@@A       004ed230     main.obj
 0004:00002234       ?speed_counter@@3HC        004ed234     main.obj
 0004:00002254       ___fastflag                004ed254     LIBCMTD:fpinit.obj
 0004:00002258       __adjust_fdiv              004ed258     LIBCMTD:fpinit.obj
 0004:00002260       ___pInvalidArgHandler      004ed260     LIBCMTD:invarg.obj
 0004:00002278       ?_pfnDumpClient@@3P6AXPAXI@ZA 004ed278     LIBCMTD:dbgheap.obj
 0004:00002280       ___crtDebugCheckCount      004ed280     LIBCMTD:dbgheap.obj
 0004:00002290       __umaskval                 004ed290     LIBCMTD:crt0dat.obj
 0004:00002294       __osplatform               004ed294     LIBCMTD:crt0dat.obj
 0004:00002298       __osver                    004ed298     LIBCMTD:crt0dat.obj
 0004:0000229c       __winver                   004ed29c     LIBCMTD:crt0dat.obj
 0004:000022a0       __winmajor                 004ed2a0     LIBCMTD:crt0dat.obj
 0004:000022a4       __winminor                 004ed2a4     LIBCMTD:crt0dat.obj
 0004:000022a8       ___argc                    004ed2a8     LIBCMTD:crt0dat.obj
 0004:000022ac       ___argv                    004ed2ac     LIBCMTD:crt0dat.obj
 0004:000022b0       ___wargv                   004ed2b0     LIBCMTD:crt0dat.obj
 0004:000022b4       __environ                  004ed2b4     LIBCMTD:crt0dat.obj
 0004:000022b8       ___initenv                 004ed2b8     LIBCMTD:crt0dat.obj
 0004:000022bc       __wenviron                 004ed2bc     LIBCMTD:crt0dat.obj
 0004:000022c0       ___winitenv                004ed2c0     LIBCMTD:crt0dat.obj
 0004:000022c4       __pgmptr                   004ed2c4     LIBCMTD:crt0dat.obj
 0004:000022c8       __wpgmptr                  004ed2c8     LIBCMTD:crt0dat.obj
 0004:000022cc       __exitflag                 004ed2cc     LIBCMTD:crt0dat.obj
 0004:000022d0       __C_Termination_Done       004ed2d0     LIBCMTD:crt0dat.obj
 0004:000022d4       __C_Exit_Done              004ed2d4     LIBCMTD:crt0dat.obj
 0004:000022ec       __aenvptr                  004ed2ec     LIBCMTD:wincrt0.obj
 0004:000022f0       __wenvptr                  004ed2f0     LIBCMTD:wincrt0.obj
 0004:000022f4       ___error_mode              004ed2f4     LIBCMTD:wincrt0.obj
 0004:000024b0       ?_pnhHeap@@3P6AHI@ZA       004ed4b0     LIBCMTD:handler.obj
 0004:000024b4       _gpFlsAlloc                004ed4b4     LIBCMTD:tidtable.obj
 0004:000024b8       _gpFlsGetValue             004ed4b8     LIBCMTD:tidtable.obj
 0004:000024bc       _gpFlsSetValue             004ed4bc     LIBCMTD:tidtable.obj
 0004:000024c0       _gpFlsFree                 004ed4c0     LIBCMTD:tidtable.obj
 0004:000024c8       ?__pInconsistency@@3P6AXXZA 004ed4c8     LIBCMTD:hooks.obj
 0004:00002894       ?wsprintffp@@3P6AHPADPBDZZA 004ed894     LIBCMTD:error.obj
 0004:00002c6c       ___pPurecall               004edc6c     LIBCMTD:inithelp.obj
 0004:00002c74       __cflush                   004edc74     LIBCMTD:_file.obj
 0004:00002cb0       __newmode                  004edcb0     LIBCMTD:_newmode.obj
 0004:00002cb4       __crtheap                  004edcb4     LIBCMTD:heapinit.obj
 0004:00002cb8       ___sbh_pHeaderDefer        004edcb8     LIBCMTD:sbheap.obj
 0004:00002cc0       ___mbulinfo                004edcc0     LIBCMTD:mbctype.obj
 0004:00002ccc       ___mbcodepage              004edccc     LIBCMTD:mbctype.obj
 0004:00002cd0       ___ismbcodepage            004edcd0     LIBCMTD:mbctype.obj
 0004:00002cd4       ___mblcid                  004edcd4     LIBCMTD:mbctype.obj
 0004:00002ce0       ___locale_changed          004edce0     LIBCMTD:setlocal.obj
 0004:00002ce4       ___lc_handle               004edce4     LIBCMTD:nlsdata2.obj
 0004:00002cfc       ___lc_codepage             004edcfc     LIBCMTD:nlsdata2.obj
 0004:00002d00       ___lc_collate_cp           004edd00     LIBCMTD:nlsdata2.obj
 0004:00002e78       ?pArgList@UnDecorator@@0PAVReplicator@@A 004ede78     LIBCMTD:undname.obj
 0004:00002e7c       ?pZNameList@UnDecorator@@0PAVReplicator@@A 004ede7c     LIBCMTD:undname.obj
 0004:00002e80       ?pTemplateArgList@UnDecorator@@0PAVReplicator@@A 004ede80     LIBCMTD:undname.obj
 0004:00002e84       ?gName@UnDecorator@@0PBDB  004ede84     LIBCMTD:undname.obj
 0004:00002e88       ?name@UnDecorator@@0PBDB   004ede88     LIBCMTD:undname.obj
 0004:00002e8c       ?outputString@UnDecorator@@0PADA 004ede8c     LIBCMTD:undname.obj
 0004:00002e90       ?maxStringLength@UnDecorator@@0HA 004ede90     LIBCMTD:undname.obj
 0004:00002e94       ?disableFlags@UnDecorator@@0KA 004ede94     LIBCMTD:undname.obj
 0004:00002e98       ?m_pGetParameter@UnDecorator@@0P6APADJ@ZA 004ede98     LIBCMTD:undname.obj
 0004:00002e9c       ?fExplicitTemplateParams@UnDecorator@@0_NA 004ede9c     LIBCMTD:undname.obj
 0004:00002e9d       ?fGetTemplateArgumentList@UnDecorator@@0_NA 004ede9d     LIBCMTD:undname.obj
 0004:00002f30       __commode                  004edf30     LIBCMTD:ncommode.obj
 0004:00002f34       __outputformat             004edf34     LIBCMTD:outputformat.obj
 0004:00002f40       ___lconv_static_null       004edf40     LIBCMTD:lconv.obj
 0004:00003028       __fmode                    004ee028     LIBCMTD:txtmode.obj
 0004:0000302c       __stdbuf                   004ee02c     LIBCMTD:_sftbuf.obj
 0004:000030c4       ___setlc_active            004ee0c4     <common>
 0004:000030d4       ___unguarded_readlc_active 004ee0d4     <common>
 0004:000030d8       ___sbh_initialized         004ee0d8     <common>
 0004:000030ec       ___sbh_cntHeaderList       004ee0ec     <common>
 0004:000030f0       ___sbh_pHeaderList         004ee0f0     <common>
 0004:000030f4       ___sbh_threshold           004ee0f4     <common>
 0004:000030f8       ___sbh_pHeaderScan         004ee0f8     <common>
 0004:000030fc       ___sbh_sizeHeaderList      004ee0fc     <common>
 0004:00003100       ___sbh_indGroupDefer       004ee100     <common>
 0004:00003104       ___active_heap             004ee104     <common>
 0004:00003110       __pfnReportHook            004ee110     <common>
 0004:00003120       __pReportHookListW         004ee120     <common>
 0004:00003124       __pReportHookList          004ee124     <common>
 0004:00003128       __debugger_hook_dummy      004ee128     <common>
 0004:00003134       ___use_sse2_mathfcns       004ee134     <common>
 0004:00003144       ___sse2_available          004ee144     <common>
 0004:00003148       __nhandle                  004ee148     <common>
 0004:000031a0       ___pioinfo                 004ee1a0     <common>
 0004:000032a0       ___piob                    004ee2a0     <common>
 0004:000035e0       __bufin                    004ee5e0     <common>
 0004:000045e0       __nstream                  004ef5e0     <common>
 0004:000045e4       __acmdln                   004ef5e4     <common>
 0004:000045f0       ___env_initialized         004ef5f0     <common>
 0004:00004600       ___onexitend               004ef600     <common>
 0004:00004604       ___onexitbegin             004ef604     <common>
 0004:00004608       ___mbctype_initialized     004ef608     <common>
 0004:0000460c       ___dyn_tls_init_callback   004ef60c     <common>
 0005:00000000       __IMPORT_DESCRIPTOR_mico2312 004f0000     mico2312:mico2312.dll
 0005:00000014       __IMPORT_DESCRIPTOR_alleg42 004f0014     alleg:alleg42.dll
 0005:00000028       __IMPORT_DESCRIPTOR_KERNEL32 004f0028     kernel32:KERNEL32.dll
 0005:0000003c       __NULL_IMPORT_DESCRIPTOR   004f003c     mico2312:mico2312.dll
 0005:00000448       __imp__GetCurrentProcess@0 004f0448     kernel32:KERNEL32.dll
 0005:0000044c       __imp__Sleep@4             004f044c     kernel32:KERNEL32.dll
 0005:00000450       __imp__SetEnvironmentVariableA@8 004f0450     kernel32:KERNEL32.dll
 0005:00000454       __imp__CompareStringW@24   004f0454     kernel32:KERNEL32.dll
 0005:00000458       __imp__CompareStringA@24   004f0458     kernel32:KERNEL32.dll
 0005:0000045c       __imp__GetTimeZoneInformation@4 004f045c     kernel32:KERNEL32.dll
 0005:00000460       __imp__SetEndOfFile@4      004f0460     kernel32:KERNEL32.dll
 0005:00000464       __imp__ReadFile@20         004f0464     kernel32:KERNEL32.dll
 0005:00000468       __imp__SetFilePointer@16   004f0468     kernel32:KERNEL32.dll
 0005:0000046c       __imp__GetConsoleOutputCP@0 004f046c     kernel32:KERNEL32.dll
 0005:00000470       __imp__WriteConsoleA@20    004f0470     kernel32:KERNEL32.dll
 0005:00000474       __imp__GetUserDefaultLCID@0 004f0474     kernel32:KERNEL32.dll
 0005:00000478       __imp__EnumSystemLocalesA@8 004f0478     kernel32:KERNEL32.dll
 0005:0000047c       __imp__IsValidCodePage@4   004f047c     kernel32:KERNEL32.dll
 0005:00000480       __imp__IsValidLocale@8     004f0480     kernel32:KERNEL32.dll
 0005:00000484       __imp__GetDateFormatA@24   004f0484     kernel32:KERNEL32.dll
 0005:00000488       __imp__GetTimeFormatA@24   004f0488     kernel32:KERNEL32.dll
 0005:0000048c       __imp__GetStringTypeW@16   004f048c     kernel32:KERNEL32.dll
 0005:00000490       __imp__GetStringTypeA@20   004f0490     kernel32:KERNEL32.dll
 0005:00000494       __imp__LCMapStringW@24     004f0494     kernel32:KERNEL32.dll
 0005:00000498       __imp__LCMapStringA@24     004f0498     kernel32:KERNEL32.dll
 0005:0000049c       __imp__CreateFileA@28      004f049c     kernel32:KERNEL32.dll
 0005:000004a0       __imp__GetConsoleMode@8    004f04a0     kernel32:KERNEL32.dll
 0005:000004a4       __imp__GetConsoleCP@0      004f04a4     kernel32:KERNEL32.dll
 0005:000004a8       __imp__FlushFileBuffers@4  004f04a8     kernel32:KERNEL32.dll
 0005:000004ac       __imp__SetStdHandle@8      004f04ac     kernel32:KERNEL32.dll
 0005:000004b0       __imp__GetLocaleInfoW@16   004f04b0     kernel32:KERNEL32.dll
 0005:000004b4       __imp__GetLocaleInfoA@16   004f04b4     kernel32:KERNEL32.dll
 0005:000004b8       __imp__VirtualQuery@12     004f04b8     kernel32:KERNEL32.dll
 0005:000004bc       __imp__GetEnvironmentStringsW@0 004f04bc     kernel32:KERNEL32.dll
 0005:000004c0       __imp__FreeEnvironmentStringsW@4 004f04c0     kernel32:KERNEL32.dll
 0005:000004c4       __imp__GetEnvironmentStrings@0 004f04c4     kernel32:KERNEL32.dll
 0005:000004c8       __imp__FreeEnvironmentStringsA@4 004f04c8     kernel32:KERNEL32.dll
 0005:000004cc       __imp__GetSystemTimeAsFileTime@4 004f04cc     kernel32:KERNEL32.dll
 0005:000004d0       __imp__GetCurrentProcessId@0 004f04d0     kernel32:KERNEL32.dll
 0005:000004d4       __imp__GetTickCount@0      004f04d4     kernel32:KERNEL32.dll
 0005:000004d8       __imp__QueryPerformanceCounter@4 004f04d8     kernel32:KERNEL32.dll
 0005:000004dc       __imp__InitializeCriticalSection@4 004f04dc     kernel32:KERNEL32.dll
 0005:000004e0       __imp__InterlockedExchange@8 004f04e0     kernel32:KERNEL32.dll
 0005:000004e4       __imp__FreeLibrary@4       004f04e4     kernel32:KERNEL32.dll
 0005:000004e8       __imp__GetCPInfo@8         004f04e8     kernel32:KERNEL32.dll
 0005:000004ec       __imp__GetOEMCP@0          004f04ec     kernel32:KERNEL32.dll
 0005:000004f0       __imp__GetACP@0            004f04f0     kernel32:KERNEL32.dll
 0005:000004f4       __imp__VirtualAlloc@16     004f04f4     kernel32:KERNEL32.dll
 0005:000004f8       __imp__VirtualFree@12      004f04f8     kernel32:KERNEL32.dll
 0005:000004fc       __imp__HeapCreate@12       004f04fc     kernel32:KERNEL32.dll
 0005:00000500       __imp__HeapDestroy@4       004f0500     kernel32:KERNEL32.dll
 0005:00000504       __imp__HeapReAlloc@16      004f0504     kernel32:KERNEL32.dll
 0005:00000508       __imp__LoadLibraryW@4      004f0508     kernel32:KERNEL32.dll
 0005:0000050c       __imp__SetConsoleCtrlHandler@8 004f050c     kernel32:KERNEL32.dll
 0005:00000510       __imp__OutputDebugStringW@4 004f0510     kernel32:KERNEL32.dll
 0005:00000514       __imp__WriteConsoleW@20    004f0514     kernel32:KERNEL32.dll
 0005:00000518       __imp__OutputDebugStringA@4 004f0518     kernel32:KERNEL32.dll
 0005:0000051c       __imp__GetFileType@4       004f051c     kernel32:KERNEL32.dll
 0005:00000520       __imp__SetHandleCount@4    004f0520     kernel32:KERNEL32.dll
 0005:00000524       __imp__CloseHandle@4       004f0524     kernel32:KERNEL32.dll
 0005:00000528       __imp__GetStdHandle@4      004f0528     kernel32:KERNEL32.dll
 0005:0000052c       __imp__WriteFile@20        004f052c     kernel32:KERNEL32.dll
 0005:00000530       __imp__GetModuleFileNameA@12 004f0530     kernel32:KERNEL32.dll
 0005:00000534       __imp__LoadLibraryA@4      004f0534     kernel32:KERNEL32.dll
 0005:00000538       __imp__lstrlenA@4          004f0538     kernel32:KERNEL32.dll
 0005:0000053c       __imp__MultiByteToWideChar@24 004f053c     kernel32:KERNEL32.dll
 0005:00000540       __imp__WideCharToMultiByte@32 004f0540     kernel32:KERNEL32.dll
 0005:00000544       __imp__DebugBreak@0        004f0544     kernel32:KERNEL32.dll
 0005:00000548       __imp__GetCurrentThread@0  004f0548     kernel32:KERNEL32.dll
 0005:0000054c       __imp__GetLastError@0      004f054c     kernel32:KERNEL32.dll
 0005:00000550       __imp__SetLastError@4      004f0550     kernel32:KERNEL32.dll
 0005:00000554       __imp__TlsFree@4           004f0554     kernel32:KERNEL32.dll
 0005:00000558       __imp__GetCurrentThreadId@0 004f0558     kernel32:KERNEL32.dll
 0005:0000055c       __imp__TlsSetValue@8       004f055c     kernel32:KERNEL32.dll
 0005:00000560       __imp__TlsAlloc@0          004f0560     kernel32:KERNEL32.dll
 0005:00000564       __imp__TlsGetValue@4       004f0564     kernel32:KERNEL32.dll
 0005:00000568       __imp__FatalAppExitA@8     004f0568     kernel32:KERNEL32.dll
 0005:0000056c       __imp__LeaveCriticalSection@4 004f056c     kernel32:KERNEL32.dll
 0005:00000570       __imp__EnterCriticalSection@4 004f0570     kernel32:KERNEL32.dll
 0005:00000574       __imp__DeleteCriticalSection@4 004f0574     kernel32:KERNEL32.dll
 0005:00000578       __imp__GetStartupInfoA@4   004f0578     kernel32:KERNEL32.dll
 0005:0000057c       __imp__GetProcessHeap@0    004f057c     kernel32:KERNEL32.dll
 0005:00000580       __imp__HeapAlloc@12        004f0580     kernel32:KERNEL32.dll
 0005:00000584       __imp__GetVersionExA@4     004f0584     kernel32:KERNEL32.dll
 0005:00000588       __imp__HeapFree@12         004f0588     kernel32:KERNEL32.dll
 0005:0000058c       __imp__GetCommandLineA@0   004f058c     kernel32:KERNEL32.dll
 0005:00000590       __imp__ExitProcess@4       004f0590     kernel32:KERNEL32.dll
 0005:00000594       __imp__GetModuleHandleA@4  004f0594     kernel32:KERNEL32.dll
 0005:00000598       __imp__GetProcAddress@8    004f0598     kernel32:KERNEL32.dll
 0005:0000059c       __imp__InterlockedDecrement@4 004f059c     kernel32:KERNEL32.dll
 0005:000005a0       __imp__InterlockedIncrement@4 004f05a0     kernel32:KERNEL32.dll
 0005:000005a4       __imp__IsBadReadPtr@8      004f05a4     kernel32:KERNEL32.dll
 0005:000005a8       __imp__HeapValidate@12     004f05a8     kernel32:KERNEL32.dll
 0005:000005ac       __imp__GetModuleFileNameW@12 004f05ac     kernel32:KERNEL32.dll
 0005:000005b0       __imp__IsDebuggerPresent@0 004f05b0     kernel32:KERNEL32.dll
 0005:000005b4       __imp__RtlUnwind@16        004f05b4     kernel32:KERNEL32.dll
 0005:000005b8       __imp__RaiseException@16   004f05b8     kernel32:KERNEL32.dll
 0005:000005bc       __imp__TerminateProcess@8  004f05bc     kernel32:KERNEL32.dll
 0005:000005c0       __imp__UnhandledExceptionFilter@4 004f05c0     kernel32:KERNEL32.dll
 0005:000005c4       __imp__SetUnhandledExceptionFilter@4 004f05c4     kernel32:KERNEL32.dll
 0005:000005c8       \177KERNEL32_NULL_THUNK_DATA 004f05c8     kernel32:KERNEL32.dll
 0005:00000640       __imp__calc_spline         004f0640     alleg:alleg42.dll
 0005:00000644       __imp___WinMain            004f0644     alleg:alleg42.dll
 0005:00000648       __imp__allegro_exit        004f0648     alleg:alleg42.dll
 0005:0000064c       __imp__install_int_ex      004f064c     alleg:alleg42.dll
 0005:00000650       __imp__vsync               004f0650     alleg:alleg42.dll
 0005:00000654       __imp__install_allegro     004f0654     alleg:alleg42.dll
 0005:00000658       __imp__set_color_depth     004f0658     alleg:alleg42.dll
 0005:0000065c       __imp__set_gfx_mode        004f065c     alleg:alleg42.dll
 0005:00000660       __imp__install_keyboard    004f0660     alleg:alleg42.dll
 0005:00000664       __imp__install_timer       004f0664     alleg:alleg42.dll
 0005:00000668       __imp__install_sound       004f0668     alleg:alleg42.dll
 0005:0000066c       __imp__create_bitmap       004f066c     alleg:alleg42.dll
 0005:00000670       __imp__clear_bitmap        004f0670     alleg:alleg42.dll
 0005:00000674       __imp__load_bitmap         004f0674     alleg:alleg42.dll
 0005:00000678       __imp__blit                004f0678     alleg:alleg42.dll
 0005:0000067c       __imp__screen              004f067c     alleg:alleg42.dll
 0005:00000680       __imp__rest                004f0680     alleg:alleg42.dll
 0005:00000684       __imp__key                 004f0684     alleg:alleg42.dll
 0005:00000688       __imp__destroy_bitmap      004f0688     alleg:alleg42.dll
 0005:0000068c       __imp__draw_sprite_h_flip  004f068c     alleg:alleg42.dll
 0005:00000690       __imp__makecol             004f0690     alleg:alleg42.dll
 0005:00000694       __imp__rectfill            004f0694     alleg:alleg42.dll
 0005:00000698       __imp__draw_sprite         004f0698     alleg:alleg42.dll
 0005:0000069c       __imp__play_sample         004f069c     alleg:alleg42.dll
 0005:000006a0       __imp__stop_midi           004f06a0     alleg:alleg42.dll
 0005:000006a4       __imp__getpixel            004f06a4     alleg:alleg42.dll
 0005:000006a8       __imp__play_midi           004f06a8     alleg:alleg42.dll
 0005:000006ac       __imp__destroy_sample      004f06ac     alleg:alleg42.dll
 0005:000006b0       __imp__load_sample         004f06b0     alleg:alleg42.dll
 0005:000006b4       __imp__load_midi           004f06b4     alleg:alleg42.dll
 0005:000006b8       __imp__masked_blit         004f06b8     alleg:alleg42.dll
 0005:000006bc       __imp__load_tga            004f06bc     alleg:alleg42.dll
 0005:000006c0       __imp__load_bmp            004f06c0     alleg:alleg42.dll
 0005:000006c4       __imp__allegro_message     004f06c4     alleg:alleg42.dll
 0005:000006c8       \177alleg42_NULL_THUNK_DATA 004f06c8     alleg:alleg42.dll
 0005:0000070c       __imp_??1StubBase@PortableServer@@UAE@XZ 004f070c     mico2312:mico2312.dll
 0005:00000710       __imp_??1StaticImplementation@PortableServer@@UAE@XZ 004f0710     mico2312:mico2312.dll
 0005:00000714       __imp_??1ServantBase@PortableServer@@UAE@XZ 004f0714     mico2312:mico2312.dll
 0005:00000718       __imp_?make_request@StaticImplementation@PortableServer@@UAEPAVServerRequestBase@CORBA@@PAVORBRequest@4@PAVObject@4@PAVORBInvokeRec@4@PAVObjectAdapter@4@PAVPrincipal@4@@Z 004f0718     mico2312:mico2312.dll
 0005:0000071c       __imp_?doinvoke@StaticImplementation@PortableServer@@UAEXPAVServerRequestBase@CORBA@@@Z 004f071c     mico2312:mico2312.dll
 0005:00000720       __imp_??0BAD_OPERATION@CORBA@@QAE@KW4completion_status@1@@Z 004f0720     mico2312:mico2312.dll
 0005:00000724       __imp_?exception@Environment@CORBA@@QAEXPAVException@2@@Z 004f0724     mico2312:mico2312.dll
 0005:00000728       __imp_?read_args@StaticServerRequest@CORBA@@QAEEXZ 004f0728     mico2312:mico2312.dll
 0005:0000072c       __imp_?value@StaticAny@CORBA@@QAEXPAVStaticTypeInfo@2@PBXE@Z 004f072c     mico2312:mico2312.dll
 0005:00000730       __imp_?write_results@StaticServerRequest@CORBA@@QAEXXZ 004f0730     mico2312:mico2312.dll
 0005:00000734       __imp_?add_in_arg@StaticServerRequest@CORBA@@QAEXPAVStaticAny@2@@Z 004f0734     mico2312:mico2312.dll
 0005:00000738       __imp_??0UNKNOWN@CORBA@@QAE@KW4completion_status@1@@Z 004f0738     mico2312:mico2312.dll
 0005:0000073c       __imp_?string_dup@CORBA@@YAPADPBD@Z 004f073c     mico2312:mico2312.dll
 0005:00000740       __imp_?_get_interface@ServantBase@PortableServer@@QAEPAVInterfaceDef@CORBA@@PBD@Z 004f0740     mico2312:mico2312.dll
 0005:00000744       __imp_??0OBJ_ADAPTER@CORBA@@QAE@KW4completion_status@1@@Z 004f0744     mico2312:mico2312.dll
 0005:00000748       __imp_??1OBJ_ADAPTER@CORBA@@UAE@XZ 004f0748     mico2312:mico2312.dll
 0005:0000074c       __imp_?_this@ServantBase@PortableServer@@QAEPAVObject@CORBA@@XZ 004f074c     mico2312:mico2312.dll
 0005:00000750       __imp_?_check@ServantBase@PortableServer@@UAEXXZ 004f0750     mico2312:mico2312.dll
 0005:00000754       __imp_?_remove_ref@ServantBase@PortableServer@@UAEXXZ 004f0754     mico2312:mico2312.dll
 0005:00000758       __imp_?_add_ref@ServantBase@PortableServer@@UAEXXZ 004f0758     mico2312:mico2312.dll
 0005:0000075c       __imp_?_get_component@ServantBase@PortableServer@@UAEPAVObject@CORBA@@XZ 004f075c     mico2312:mico2312.dll
 0005:00000760       __imp_?_non_existent@ServantBase@PortableServer@@UAEEXZ 004f0760     mico2312:mico2312.dll
 0005:00000764       __imp_?_default_POA@ServantBase@PortableServer@@UAEPAVPOA@2@XZ 004f0764     mico2312:mico2312.dll
 0005:00000768       __imp_?add_in_arg@StaticRequest@CORBA@@QAEXPAVStaticAny@2@@Z 004f0768     mico2312:mico2312.dll
 0005:0000076c       __imp_?_preinvoke@StubBase@PortableServer@@QAEPAVServantBase@2@XZ 004f076c     mico2312:mico2312.dll
 0005:00000770       __imp_?_postinvoke@StubBase@PortableServer@@QAEXXZ 004f0770     mico2312:mico2312.dll
 0005:00000774       __imp_?exception@StaticRequest@CORBA@@QAEPAVException@2@XZ 004f0774     mico2312:mico2312.dll
 0005:00000778       __imp_?_downcast@UnknownUserException@CORBA@@SAPAV12@PAVException@2@@Z 004f0778     mico2312:mico2312.dll
 0005:0000077c       __imp_?mico_assert@@YAXPBDH@Z 004f077c     mico2312:mico2312.dll
 0005:00000780       __imp_?exception@UnknownUserException@CORBA@@QAEAAVStaticAny@2@PAVStaticTypeInfo@2@@Z 004f0780     mico2312:mico2312.dll
 0005:00000784       __imp_??0UNKNOWN@CORBA@@QAE@XZ 004f0784     mico2312:mico2312.dll
 0005:00000788       __imp_??1UNKNOWN@CORBA@@UAE@XZ 004f0788     mico2312:mico2312.dll
 0005:0000078c       __imp_??0StaticRequest@CORBA@@QAE@PAVObject@1@PBD@Z 004f078c     mico2312:mico2312.dll
 0005:00000790       __imp_?invoke@StaticRequest@CORBA@@QAEXXZ 004f0790     mico2312:mico2312.dll
 0005:00000794       __imp_?_retn@StaticAny@CORBA@@QAEPAXXZ 004f0794     mico2312:mico2312.dll
 0005:00000798       __imp_??1StaticRequest@CORBA@@UAE@XZ 004f0798     mico2312:mico2312.dll
 0005:0000079c       __imp_??1StaticAny@CORBA@@QAE@XZ 004f079c     mico2312:mico2312.dll
 0005:000007a0       __imp_??0Object@CORBA@@QAE@ABV01@@Z 004f07a0     mico2312:mico2312.dll
 0005:000007a4       __imp_??0StubBase@PortableServer@@QAE@PAVPOA@1@@Z 004f07a4     mico2312:mico2312.dll
 0005:000007a8       __imp_??0StubBase@PortableServer@@IAE@XZ 004f07a8     mico2312:mico2312.dll
 0005:000007ac       __imp_?_stc_Object@CORBA@@3PAVStaticTypeInfo@1@A 004f07ac     mico2312:mico2312.dll
 0005:000007b0       __imp_?_deref@ServerlessObject@CORBA@@QAEEXZ 004f07b0     mico2312:mico2312.dll
 0005:000007b4       __imp_??0Object@CORBA@@QAE@PAVIOR@1@@Z 004f07b4     mico2312:mico2312.dll
 0005:000007b8       __imp_??1Object@CORBA@@UAE@XZ 004f07b8     mico2312:mico2312.dll
 0005:000007bc       __imp_?_ref@ServerlessObject@CORBA@@QAEXXZ 004f07bc     mico2312:mico2312.dll
 0005:000007c0       __imp_?objid@IOR@CORBA@@QBEPBDXZ 004f07c0     mico2312:mico2312.dll
 0005:000007c4       __imp_?_is_a_remote@Object@CORBA@@QAEEPBD@Z 004f07c4     mico2312:mico2312.dll
 0005:000007c8       __imp_??4Object@CORBA@@QAEAAV01@ABV01@@Z 004f07c8     mico2312:mico2312.dll
 0005:000007cc       __imp_?_stc_short@CORBA@@3PAVStaticTypeInfo@1@A 004f07cc     mico2312:mico2312.dll
 0005:000007d0       __imp_?_stc_octet@CORBA@@3PAVStaticTypeInfo@1@A 004f07d0     mico2312:mico2312.dll
 0005:000007d4       __imp_?_stc_boolean@CORBA@@3PAVStaticTypeInfo@1@A 004f07d4     mico2312:mico2312.dll
 0005:000007d8       __imp_?typecode@StaticTypeInfo@CORBA@@UAEPAVTypeCode@2@XZ 004f07d8     mico2312:mico2312.dll
 0005:000007dc       __imp_?release@StaticTypeInfo@CORBA@@UBEXPAX@Z 004f07dc     mico2312:mico2312.dll
 0005:000007e0       __imp_?copy@StaticTypeInfo@CORBA@@UBEPAXQAX@Z 004f07e0     mico2312:mico2312.dll
 0005:000007e4       __imp_??1StaticTypeInfo@CORBA@@MAE@XZ 004f07e4     mico2312:mico2312.dll
 0005:000007e8       \177mico2312_NULL_THUNK_DATA 004f07e8     mico2312:mico2312.dll

 entry point at        0002:0000139c

